SF:/app/src/ast.rs
FN:799,_RNvXs5_NtCs4a0SCptkpqe_6glossa3astNtB5_4ExprNtNtNtCs4kUJL3MZFFz_4core3ops4drop4Drop4drop
FN:1005,_RINvMs6_NtCs4a0SCptkpqe_6glossa3astNtB6_4Word3newReEB8_
FN:69,_RNCNvXNtCs4a0SCptkpqe_6glossa3astNtB4_7ProgramNtNtCs4kUJL3MZFFz_4core3fmt5Debug3fmt0B6_
FN:417,_RNCNvXs0_NtCs4a0SCptkpqe_6glossa3astNtB7_9StatementNtNtCs4kUJL3MZFFz_4core3fmt5Debug3fmt0B9_
FN:637,_RNCNvXs2_NtCs4a0SCptkpqe_6glossa3astNtB7_4ExprNtNtCs4kUJL3MZFFz_4core3fmt5Debug3fmt0B9_
FN:683,_RNCNvXs3_NtCs4a0SCptkpqe_6glossa3astNtB7_4ExprNtNtCs4kUJL3MZFFz_4core5clone5Clone5clone0B9_
FN:723,_RNCNvXs4_NtCs4a0SCptkpqe_6glossa3astNtB7_4ExprNtNtCs4kUJL3MZFFz_4core3cmp9PartialEq2eq0B9_
FN:801,_RNCNvXs5_NtCs4a0SCptkpqe_6glossa3astNtB7_4ExprNtNtNtCs4kUJL3MZFFz_4core3ops4drop4Drop4drop0B9_
FN:407,_RNCNvXs_NtCs4a0SCptkpqe_6glossa3astNtB6_6ClauseNtNtCs4kUJL3MZFFz_4core3fmt5Debug3fmt0B8_
FN:481,_RNvMs1_NtCs4a0SCptkpqe_6glossa3astNtB5_9Statement12is_propagate
FN:505,_RNvMs1_NtCs4a0SCptkpqe_6glossa3astNtB5_9Statement7clauses
FN:454,_RNvMs1_NtCs4a0SCptkpqe_6glossa3astNtB5_9Statement8is_query
FN:68,_RNvXNtCs4a0SCptkpqe_6glossa3astNtB2_7ProgramNtNtCs4kUJL3MZFFz_4core3fmt5Debug3fmt
FN:416,_RNvXs0_NtCs4a0SCptkpqe_6glossa3astNtB5_9StatementNtNtCs4kUJL3MZFFz_4core3fmt5Debug3fmt
FN:636,_RNvXs2_NtCs4a0SCptkpqe_6glossa3astNtB5_4ExprNtNtCs4kUJL3MZFFz_4core3fmt5Debug3fmt
FN:681,_RNvXs3_NtCs4a0SCptkpqe_6glossa3astNtB5_4ExprNtNtCs4kUJL3MZFFz_4core5clone5Clone5clone
FN:721,_RNvXs4_NtCs4a0SCptkpqe_6glossa3astNtB5_4ExprNtNtCs4kUJL3MZFFz_4core3cmp9PartialEq2eq
FN:406,_RNvXs_NtCs4a0SCptkpqe_6glossa3astNtB4_6ClauseNtNtCs4kUJL3MZFFz_4core3fmt5Debug3fmt
FN:69,_RNCNvXNtCs14PW5HJOtOs_6glossa3astNtB4_7ProgramNtNtCs4kUJL3MZFFz_4core3fmt5Debug3fmt0B6_
FN:723,_RNCNvXs4_NtCs14PW5HJOtOs_6glossa3astNtB7_4ExprNtNtCs4kUJL3MZFFz_4core3cmp9PartialEq2eq0B9_
FN:68,_RNvXNtCs14PW5HJOtOs_6glossa3astNtB2_7ProgramNtNtCs4kUJL3MZFFz_4core3fmt5Debug3fmt
FN:721,_RNvXs4_NtCs14PW5HJOtOs_6glossa3astNtB5_4ExprNtNtCs4kUJL3MZFFz_4core3cmp9PartialEq2eq
FN:1005,_RINvMs6_NtCs14PW5HJOtOs_6glossa3astNtB6_4Word3newReEB8_
FN:417,_RNCNvXs0_NtCs14PW5HJOtOs_6glossa3astNtB7_9StatementNtNtCs4kUJL3MZFFz_4core3fmt5Debug3fmt0B9_
FN:637,_RNCNvXs2_NtCs14PW5HJOtOs_6glossa3astNtB7_4ExprNtNtCs4kUJL3MZFFz_4core3fmt5Debug3fmt0B9_
FN:683,_RNCNvXs3_NtCs14PW5HJOtOs_6glossa3astNtB7_4ExprNtNtCs4kUJL3MZFFz_4core5clone5Clone5clone0B9_
FN:801,_RNCNvXs5_NtCs14PW5HJOtOs_6glossa3astNtB7_4ExprNtNtNtCs4kUJL3MZFFz_4core3ops4drop4Drop4drop0B9_
FN:407,_RNCNvXs_NtCs14PW5HJOtOs_6glossa3astNtB6_6ClauseNtNtCs4kUJL3MZFFz_4core3fmt5Debug3fmt0B8_
FN:481,_RNvMs1_NtCs14PW5HJOtOs_6glossa3astNtB5_9Statement12is_propagate
FN:505,_RNvMs1_NtCs14PW5HJOtOs_6glossa3astNtB5_9Statement7clauses
FN:454,_RNvMs1_NtCs14PW5HJOtOs_6glossa3astNtB5_9Statement8is_query
FN:416,_RNvXs0_NtCs14PW5HJOtOs_6glossa3astNtB5_9StatementNtNtCs4kUJL3MZFFz_4core3fmt5Debug3fmt
FN:636,_RNvXs2_NtCs14PW5HJOtOs_6glossa3astNtB5_4ExprNtNtCs4kUJL3MZFFz_4core3fmt5Debug3fmt
FN:681,_RNvXs3_NtCs14PW5HJOtOs_6glossa3astNtB5_4ExprNtNtCs4kUJL3MZFFz_4core5clone5Clone5clone
FN:406,_RNvXs_NtCs14PW5HJOtOs_6glossa3astNtB4_6ClauseNtNtCs4kUJL3MZFFz_4core3fmt5Debug3fmt
FN:799,_RNvXs5_NtCs14PW5HJOtOs_6glossa3astNtB5_4ExprNtNtNtCs4kUJL3MZFFz_4core3ops4drop4Drop4drop
FNDA:19023146,_RNvXs5_NtCs4a0SCptkpqe_6glossa3astNtB5_4ExprNtNtNtCs4kUJL3MZFFz_4core3ops4drop4Drop4drop
FNDA:1977322,_RINvMs6_NtCs4a0SCptkpqe_6glossa3astNtB6_4Word3newReEB8_
FNDA:7,_RNCNvXNtCs4a0SCptkpqe_6glossa3astNtB4_7ProgramNtNtCs4kUJL3MZFFz_4core3fmt5Debug3fmt0B6_
FNDA:15,_RNCNvXs0_NtCs4a0SCptkpqe_6glossa3astNtB7_9StatementNtNtCs4kUJL3MZFFz_4core3fmt5Debug3fmt0B9_
FNDA:50087,_RNCNvXs2_NtCs4a0SCptkpqe_6glossa3astNtB7_4ExprNtNtCs4kUJL3MZFFz_4core3fmt5Debug3fmt0B9_
FNDA:3452015,_RNCNvXs3_NtCs4a0SCptkpqe_6glossa3astNtB7_4ExprNtNtCs4kUJL3MZFFz_4core5clone5Clone5clone0B9_
FNDA:2563276,_RNCNvXs4_NtCs4a0SCptkpqe_6glossa3astNtB7_4ExprNtNtCs4kUJL3MZFFz_4core3cmp9PartialEq2eq0B9_
FNDA:19023146,_RNCNvXs5_NtCs4a0SCptkpqe_6glossa3astNtB7_4ExprNtNtNtCs4kUJL3MZFFz_4core3ops4drop4Drop4drop0B9_
FNDA:9,_RNCNvXs_NtCs4a0SCptkpqe_6glossa3astNtB6_6ClauseNtNtCs4kUJL3MZFFz_4core3fmt5Debug3fmt0B8_
FNDA:829,_RNvMs1_NtCs4a0SCptkpqe_6glossa3astNtB5_9Statement12is_propagate
FNDA:3206,_RNvMs1_NtCs4a0SCptkpqe_6glossa3astNtB5_9Statement7clauses
FNDA:829,_RNvMs1_NtCs4a0SCptkpqe_6glossa3astNtB5_9Statement8is_query
FNDA:7,_RNvXNtCs4a0SCptkpqe_6glossa3astNtB2_7ProgramNtNtCs4kUJL3MZFFz_4core3fmt5Debug3fmt
FNDA:15,_RNvXs0_NtCs4a0SCptkpqe_6glossa3astNtB5_9StatementNtNtCs4kUJL3MZFFz_4core3fmt5Debug3fmt
FNDA:50087,_RNvXs2_NtCs4a0SCptkpqe_6glossa3astNtB5_4ExprNtNtCs4kUJL3MZFFz_4core3fmt5Debug3fmt
FNDA:3452015,_RNvXs3_NtCs4a0SCptkpqe_6glossa3astNtB5_4ExprNtNtCs4kUJL3MZFFz_4core5clone5Clone5clone
FNDA:2563276,_RNvXs4_NtCs4a0SCptkpqe_6glossa3astNtB5_4ExprNtNtCs4kUJL3MZFFz_4core3cmp9PartialEq2eq
FNDA:9,_RNvXs_NtCs4a0SCptkpqe_6glossa3astNtB4_6ClauseNtNtCs4kUJL3MZFFz_4core3fmt5Debug3fmt
FNDA:0,_RNCNvXNtCs14PW5HJOtOs_6glossa3astNtB4_7ProgramNtNtCs4kUJL3MZFFz_4core3fmt5Debug3fmt0B6_
FNDA:0,_RNCNvXs4_NtCs14PW5HJOtOs_6glossa3astNtB7_4ExprNtNtCs4kUJL3MZFFz_4core3cmp9PartialEq2eq0B9_
FNDA:0,_RNvXNtCs14PW5HJOtOs_6glossa3astNtB2_7ProgramNtNtCs4kUJL3MZFFz_4core3fmt5Debug3fmt
FNDA:0,_RNvXs4_NtCs14PW5HJOtOs_6glossa3astNtB5_4ExprNtNtCs4kUJL3MZFFz_4core3cmp9PartialEq2eq
FNDA:236,_RINvMs6_NtCs14PW5HJOtOs_6glossa3astNtB6_4Word3newReEB8_
FNDA:0,_RNCNvXs0_NtCs14PW5HJOtOs_6glossa3astNtB7_9StatementNtNtCs4kUJL3MZFFz_4core3fmt5Debug3fmt0B9_
FNDA:0,_RNCNvXs2_NtCs14PW5HJOtOs_6glossa3astNtB7_4ExprNtNtCs4kUJL3MZFFz_4core3fmt5Debug3fmt0B9_
FNDA:1607,_RNCNvXs3_NtCs14PW5HJOtOs_6glossa3astNtB7_4ExprNtNtCs4kUJL3MZFFz_4core5clone5Clone5clone0B9_
FNDA:10950,_RNCNvXs5_NtCs14PW5HJOtOs_6glossa3astNtB7_4ExprNtNtNtCs4kUJL3MZFFz_4core3ops4drop4Drop4drop0B9_
FNDA:0,_RNCNvXs_NtCs14PW5HJOtOs_6glossa3astNtB6_6ClauseNtNtCs4kUJL3MZFFz_4core3fmt5Debug3fmt0B8_
FNDA:1375,_RNvMs1_NtCs14PW5HJOtOs_6glossa3astNtB5_9Statement12is_propagate
FNDA:4193,_RNvMs1_NtCs14PW5HJOtOs_6glossa3astNtB5_9Statement7clauses
FNDA:1377,_RNvMs1_NtCs14PW5HJOtOs_6glossa3astNtB5_9Statement8is_query
FNDA:0,_RNvXs0_NtCs14PW5HJOtOs_6glossa3astNtB5_9StatementNtNtCs4kUJL3MZFFz_4core3fmt5Debug3fmt
FNDA:0,_RNvXs2_NtCs14PW5HJOtOs_6glossa3astNtB5_4ExprNtNtCs4kUJL3MZFFz_4core3fmt5Debug3fmt
FNDA:1607,_RNvXs3_NtCs14PW5HJOtOs_6glossa3astNtB5_4ExprNtNtCs4kUJL3MZFFz_4core5clone5Clone5clone
FNDA:0,_RNvXs_NtCs14PW5HJOtOs_6glossa3astNtB4_6ClauseNtNtCs4kUJL3MZFFz_4core3fmt5Debug3fmt
FNDA:10950,_RNvXs5_NtCs14PW5HJOtOs_6glossa3astNtB5_4ExprNtNtNtCs4kUJL3MZFFz_4core3ops4drop4Drop4drop
FNF:18
FNH:18
DA:68,7
DA:69,7
DA:70,7
DA:71,7
DA:72,7
DA:73,7
DA:74,7
DA:406,9
DA:407,9
DA:408,9
DA:409,9
DA:410,9
DA:411,9
DA:412,9
DA:416,15
DA:417,15
DA:419,11
DA:420,11
DA:421,11
DA:422,11
DA:423,11
DA:424,11
DA:425,11
DA:426,11
DA:427,11
DA:428,1
DA:429,1
DA:430,1
DA:431,1
DA:432,15
DA:433,15
DA:454,2206
DA:455,2206
DA:456,2202
DA:457,1
DA:458,1
DA:459,1
DA:460,1
DA:462,2206
DA:481,2204
DA:482,2204
DA:483,2200
DA:484,1
DA:485,1
DA:486,1
DA:487,1
DA:489,2204
DA:505,7399
DA:506,7399
DA:507,7395
DA:508,1
DA:509,1
DA:510,1
DA:511,1
DA:513,7399
DA:636,50087
DA:637,50087
DA:638,1
DA:639,30
DA:640,2
DA:641,7
DA:642,1
DA:643,1
DA:644,1
DA:645,1
DA:646,1
DA:647,31
DA:648,50009
DA:649,1
DA:650,1
DA:651,1
DA:652,1
DA:653,1
DA:654,1
DA:655,1
DA:656,1
DA:657,1
DA:658,1
DA:659,1
DA:660,1
DA:661,1
DA:662,1
DA:663,1
DA:664,1
DA:665,1
DA:666,1
DA:667,1
DA:668,1
DA:669,1
DA:670,1
DA:671,1
DA:672,1
DA:673,1
DA:674,1
DA:675,1
DA:676,50087
DA:677,50087
DA:681,3453622
DA:683,3453622
DA:684,29
DA:685,1058568
DA:686,4
DA:687,4
DA:688,598810
DA:689,598810
DA:690,598810
DA:691,598810
DA:692,846601
DA:693,237134
DA:694,50005
DA:695,50005
DA:696,50005
DA:697,50005
DA:698,2
DA:699,2
DA:700,2
DA:701,2
DA:702,2
DA:703,2
DA:704,2
DA:705,2
DA:706,662456
DA:707,662456
DA:708,662456
DA:709,662456
DA:710,662456
DA:711,2
DA:712,2
DA:713,2
DA:714,2
DA:715,5
DA:716,3453622
DA:717,3453622
DA:721,2563276
DA:723,2563276
DA:724,3
DA:725,662736
DA:726,5
DA:727,6
DA:730,598811
DA:731,598811
DA:734,598811
DA:735,598811
DA:737,598811
DA:738,599072
DA:739,40003
DA:742,3
DA:743,3
DA:746,3
DA:747,3
DA:749,3
DA:752,3
DA:753,3
DA:756,3
DA:757,3
DA:759,3
DA:762,3
DA:763,3
DA:766,3
DA:767,3
DA:769,3
DA:772,662457
DA:773,662457
DA:774,662457
DA:777,662457
DA:778,662457
DA:779,662457
DA:781,662457
DA:784,3
DA:785,3
DA:788,3
DA:789,3
DA:791,3
DA:792,3
DA:793,168
DA:794,2563276
DA:795,2563276
DA:799,19034096
DA:801,19034096
DA:803,19034096
DA:807,14707238
DA:808,4326858
DA:817,4326858
DA:818,302541
DA:819,302541
DA:820,302541
DA:821,329
DA:822,329
DA:823,329
DA:824,503
DA:825,503
DA:826,503
DA:827,1873171
DA:828,1873171
DA:829,1873171
DA:830,1873171
DA:831,748746
DA:832,748746
DA:833,748746
DA:834,748746
DA:835,71
DA:836,71
DA:837,71
DA:838,71
DA:839,71
DA:840,71
DA:841,71
DA:842,71
DA:843,71
DA:844,1401043
DA:845,1401043
DA:846,1401043
DA:847,1401043
DA:848,383
DA:849,383
DA:850,383
DA:852,0
DA:854,19034096
DA:855,19034096
DA:1005,1977558
DA:1006,1977558
DA:1007,1977558
DA:1008,1977558
DA:1009,1977558
DA:1010,1977558
DA:1011,1977558
DA:1012,1977558
BRF:0
BRH:0
LF:234
LH:233
end_of_record
SF:/app/src/codegen.rs
FN:231,_RINvNtCs4a0SCptkpqe_6glossa7codegen17transliterate_fmtNtNtCs4kUJL3MZFFz_4core3fmt9FormatterEB4_
FN:231,_RINvNtCs4a0SCptkpqe_6glossa7codegen17transliterate_fmtNtNtCsauO83Ko6oyK_5alloc6string6StringEB4_
FN:215,_RNCNvNtCs4a0SCptkpqe_6glossa7codegen13transliterate0B5_
FN:716,_RNCNvNtCs4a0SCptkpqe_6glossa7codegen14generate_match0B5_
FN:745,_RNCNvNtCs4a0SCptkpqe_6glossa7codegen15generate_fn_def0B5_
FN:1173,_RNCNvNtCs4a0SCptkpqe_6glossa7codegen16generate_closure0B5_
FN:842,_RNCNvNtCs4a0SCptkpqe_6glossa7codegen18generate_trait_def0B5_
FN:784,_RNCNvNtCs4a0SCptkpqe_6glossa7codegen19generate_struct_def0B5_
FN:1158,_RNCNvNtCs4a0SCptkpqe_6glossa7codegen19generate_struct_lit0B5_
FN:905,_RNCNvNtCs4a0SCptkpqe_6glossa7codegen19generate_trait_impl0B5_
FN:811,_RNCNvNtCs4a0SCptkpqe_6glossa7codegen27generate_trait_method_parts0B5_
FN:609,_RNCNvNtCs4a0SCptkpqe_6glossa7codegen29generate_statement_expression0B5_
FN:657,_RNvNtCs4a0SCptkpqe_6glossa7codegen11generate_if
FN:1233,_RNvNtCs4a0SCptkpqe_6glossa7codegen11is_std_type
FN:696,_RNvNtCs4a0SCptkpqe_6glossa7codegen12generate_for
FN:626,_RNvNtCs4a0SCptkpqe_6glossa7codegen12generate_let
FN:278,_RNvNtCs4a0SCptkpqe_6glossa7codegen12to_rust_type
FN:991,_RNvNtCs4a0SCptkpqe_6glossa7codegen13generate_expr
FN:405,_RNvNtCs4a0SCptkpqe_6glossa7codegen13generate_rust
FN:939,_RNvNtCs4a0SCptkpqe_6glossa7codegen13generate_test
FN:1199,_RNvNtCs4a0SCptkpqe_6glossa7codegen13is_std_method
FN:174,_RNvNtCs4a0SCptkpqe_6glossa7codegen13sanitize_name
FN:207,_RNvNtCs4a0SCptkpqe_6glossa7codegen13transliterate
FN:711,_RNvNtCs4a0SCptkpqe_6glossa7codegen14generate_match
FN:637,_RNvNtCs4a0SCptkpqe_6glossa7codegen14generate_print
FN:1297,_RNvNtCs4a0SCptkpqe_6glossa7codegen14generate_range
FN:686,_RNvNtCs4a0SCptkpqe_6glossa7codegen14generate_while
FN:110,_RNvNtCs4a0SCptkpqe_6glossa7codegen14sanitize_ident
FN:1062,_RNvNtCs4a0SCptkpqe_6glossa7codegen15generate_bin_op
FN:735,_RNvNtCs4a0SCptkpqe_6glossa7codegen15generate_fn_def
FN:284,_RNvNtCs4a0SCptkpqe_6glossa7codegen15write_rust_type
FN:1167,_RNvNtCs4a0SCptkpqe_6glossa7codegen16generate_closure
FN:971,_RNvNtCs4a0SCptkpqe_6glossa7codegen16generate_expr_ok
FN:976,_RNvNtCs4a0SCptkpqe_6glossa7codegen17generate_expr_err
FN:981,_RNvNtCs4a0SCptkpqe_6glossa7codegen17generate_expr_try
FN:1276,_RNvNtCs4a0SCptkpqe_6glossa7codegen17generate_unary_op
FN:1265,_RNvNtCs4a0SCptkpqe_6glossa7codegen17generate_variable
FN:1186,_RNvNtCs4a0SCptkpqe_6glossa7codegen17is_self_parameter
FN:966,_RNvNtCs4a0SCptkpqe_6glossa7codegen18generate_expr_some
FN:506,_RNvNtCs4a0SCptkpqe_6glossa7codegen18generate_rust_file
FN:553,_RNvNtCs4a0SCptkpqe_6glossa7codegen18generate_statement
FN:830,_RNvNtCs4a0SCptkpqe_6glossa7codegen18generate_trait_def
FN:1132,_RNvNtCs4a0SCptkpqe_6glossa7codegen19generate_checked_op
FN:461,_RNvNtCs4a0SCptkpqe_6glossa7codegen19generate_panic_hook
FN:549,_RNvNtCs4a0SCptkpqe_6glossa7codegen19generate_statements
FN:772,_RNvNtCs4a0SCptkpqe_6glossa7codegen19generate_struct_def
FN:1142,_RNvNtCs4a0SCptkpqe_6glossa7codegen19generate_struct_lit
FN:881,_RNvNtCs4a0SCptkpqe_6glossa7codegen19generate_trait_impl
FN:986,_RNvNtCs4a0SCptkpqe_6glossa7codegen20generate_expr_unwrap
FN:1339,_RNvNtCs4a0SCptkpqe_6glossa7codegen20generate_method_call
FN:342,_RNvNtCs4a0SCptkpqe_6glossa7codegen20generate_type_tokens
FN:1360,_RNvNtCs4a0SCptkpqe_6glossa7codegen22generate_function_call
FN:1317,_RNvNtCs4a0SCptkpqe_6glossa7codegen23generate_collection_new
FN:1371,_RNvNtCs4a0SCptkpqe_6glossa7codegen23generate_control_assert
FN:1257,_RNvNtCs4a0SCptkpqe_6glossa7codegen23generate_literal_number
FN:1253,_RNvNtCs4a0SCptkpqe_6glossa7codegen23generate_literal_string
FN:545,_RNvNtCs4a0SCptkpqe_6glossa7codegen23generate_statement_code
FN:1261,_RNvNtCs4a0SCptkpqe_6glossa7codegen24generate_literal_boolean
FN:1270,_RNvNtCs4a0SCptkpqe_6glossa7codegen24generate_property_access
FN:1311,_RNvNtCs4a0SCptkpqe_6glossa7codegen25generate_collection_array
FN:1323,_RNvNtCs4a0SCptkpqe_6glossa7codegen25generate_collection_index
FN:616,_RNvNtCs4a0SCptkpqe_6glossa7codegen25generate_statement_return
FN:1376,_RNvNtCs4a0SCptkpqe_6glossa7codegen26generate_control_assert_eq
FN:595,_RNvNtCs4a0SCptkpqe_6glossa7codegen26generate_statement_binding
FN:804,_RNvNtCs4a0SCptkpqe_6glossa7codegen27generate_trait_method_parts
FN:601,_RNvNtCs4a0SCptkpqe_6glossa7codegen29generate_statement_assignment
FN:607,_RNvNtCs4a0SCptkpqe_6glossa7codegen29generate_statement_expression
FN:128,_RNvXNtCs4a0SCptkpqe_6glossa7codegenNtB2_9SanitizerNtNtCs4kUJL3MZFFz_4core3fmt7Display3fmt
FN:657,_RNvNtCs14PW5HJOtOs_6glossa7codegen11generate_if
FN:1233,_RNvNtCs14PW5HJOtOs_6glossa7codegen11is_std_type
FN:696,_RNvNtCs14PW5HJOtOs_6glossa7codegen12generate_for
FN:626,_RNvNtCs14PW5HJOtOs_6glossa7codegen12generate_let
FN:278,_RNvNtCs14PW5HJOtOs_6glossa7codegen12to_rust_type
FN:991,_RNvNtCs14PW5HJOtOs_6glossa7codegen13generate_expr
FN:405,_RNvNtCs14PW5HJOtOs_6glossa7codegen13generate_rust
FN:939,_RNvNtCs14PW5HJOtOs_6glossa7codegen13generate_test
FN:1199,_RNvNtCs14PW5HJOtOs_6glossa7codegen13is_std_method
FN:174,_RNvNtCs14PW5HJOtOs_6glossa7codegen13sanitize_name
FN:207,_RNvNtCs14PW5HJOtOs_6glossa7codegen13transliterate
FN:711,_RNvNtCs14PW5HJOtOs_6glossa7codegen14generate_match
FN:637,_RNvNtCs14PW5HJOtOs_6glossa7codegen14generate_print
FN:1297,_RNvNtCs14PW5HJOtOs_6glossa7codegen14generate_range
FN:686,_RNvNtCs14PW5HJOtOs_6glossa7codegen14generate_while
FN:110,_RNvNtCs14PW5HJOtOs_6glossa7codegen14sanitize_ident
FN:1062,_RNvNtCs14PW5HJOtOs_6glossa7codegen15generate_bin_op
FN:735,_RNvNtCs14PW5HJOtOs_6glossa7codegen15generate_fn_def
FN:284,_RNvNtCs14PW5HJOtOs_6glossa7codegen15write_rust_type
FN:1167,_RNvNtCs14PW5HJOtOs_6glossa7codegen16generate_closure
FN:971,_RNvNtCs14PW5HJOtOs_6glossa7codegen16generate_expr_ok
FN:976,_RNvNtCs14PW5HJOtOs_6glossa7codegen17generate_expr_err
FN:981,_RNvNtCs14PW5HJOtOs_6glossa7codegen17generate_expr_try
FN:1276,_RNvNtCs14PW5HJOtOs_6glossa7codegen17generate_unary_op
FN:1265,_RNvNtCs14PW5HJOtOs_6glossa7codegen17generate_variable
FN:1186,_RNvNtCs14PW5HJOtOs_6glossa7codegen17is_self_parameter
FN:966,_RNvNtCs14PW5HJOtOs_6glossa7codegen18generate_expr_some
FN:506,_RNvNtCs14PW5HJOtOs_6glossa7codegen18generate_rust_file
FN:553,_RNvNtCs14PW5HJOtOs_6glossa7codegen18generate_statement
FN:830,_RNvNtCs14PW5HJOtOs_6glossa7codegen18generate_trait_def
FN:1132,_RNvNtCs14PW5HJOtOs_6glossa7codegen19generate_checked_op
FN:461,_RNvNtCs14PW5HJOtOs_6glossa7codegen19generate_panic_hook
FN:549,_RNvNtCs14PW5HJOtOs_6glossa7codegen19generate_statements
FN:772,_RNvNtCs14PW5HJOtOs_6glossa7codegen19generate_struct_def
FN:1142,_RNvNtCs14PW5HJOtOs_6glossa7codegen19generate_struct_lit
FN:881,_RNvNtCs14PW5HJOtOs_6glossa7codegen19generate_trait_impl
FN:986,_RNvNtCs14PW5HJOtOs_6glossa7codegen20generate_expr_unwrap
FN:1339,_RNvNtCs14PW5HJOtOs_6glossa7codegen20generate_method_call
FN:342,_RNvNtCs14PW5HJOtOs_6glossa7codegen20generate_type_tokens
FN:1360,_RNvNtCs14PW5HJOtOs_6glossa7codegen22generate_function_call
FN:1317,_RNvNtCs14PW5HJOtOs_6glossa7codegen23generate_collection_new
FN:1371,_RNvNtCs14PW5HJOtOs_6glossa7codegen23generate_control_assert
FN:1257,_RNvNtCs14PW5HJOtOs_6glossa7codegen23generate_literal_number
FN:1253,_RNvNtCs14PW5HJOtOs_6glossa7codegen23generate_literal_string
FN:545,_RNvNtCs14PW5HJOtOs_6glossa7codegen23generate_statement_code
FN:1261,_RNvNtCs14PW5HJOtOs_6glossa7codegen24generate_literal_boolean
FN:1270,_RNvNtCs14PW5HJOtOs_6glossa7codegen24generate_property_access
FN:1311,_RNvNtCs14PW5HJOtOs_6glossa7codegen25generate_collection_array
FN:1323,_RNvNtCs14PW5HJOtOs_6glossa7codegen25generate_collection_index
FN:616,_RNvNtCs14PW5HJOtOs_6glossa7codegen25generate_statement_return
FN:1376,_RNvNtCs14PW5HJOtOs_6glossa7codegen26generate_control_assert_eq
FN:595,_RNvNtCs14PW5HJOtOs_6glossa7codegen26generate_statement_binding
FN:804,_RNvNtCs14PW5HJOtOs_6glossa7codegen27generate_trait_method_parts
FN:601,_RNvNtCs14PW5HJOtOs_6glossa7codegen29generate_statement_assignment
FN:607,_RNvNtCs14PW5HJOtOs_6glossa7codegen29generate_statement_expression
FN:128,_RNvXNtCs14PW5HJOtOs_6glossa7codegenNtB2_9SanitizerNtNtCs4kUJL3MZFFz_4core3fmt7Display3fmt
FN:1699,_RNvNtNtNtCs14PW5HJOtOs_6glossa7codegen5tests14refactor_testss_32test_generate_checked_arithmetic
FN:1718,_RNvNtNtNtCs14PW5HJOtOs_6glossa7codegen5tests14refactor_testss_32test_generate_rust_large_program
FN:1670,_RNvNtNtNtCs14PW5HJOtOs_6glossa7codegen5tests14refactor_testss_32test_generate_trait_parts_manual
FN:1687,_RNCNvNtNtNtCs14PW5HJOtOs_6glossa7codegen5tests14refactor_testss_32test_generate_trait_parts_manual0B9_
FN:231,_RINvNtCs14PW5HJOtOs_6glossa7codegen17transliterate_fmtNtNtCs4kUJL3MZFFz_4core3fmt9FormatterEB4_
FN:231,_RINvNtCs14PW5HJOtOs_6glossa7codegen17transliterate_fmtNtNtCsauO83Ko6oyK_5alloc6string6StringEB4_
FN:215,_RNCNvNtCs14PW5HJOtOs_6glossa7codegen13transliterate0B5_
FN:716,_RNCNvNtCs14PW5HJOtOs_6glossa7codegen14generate_match0B5_
FN:745,_RNCNvNtCs14PW5HJOtOs_6glossa7codegen15generate_fn_def0B5_
FN:1173,_RNCNvNtCs14PW5HJOtOs_6glossa7codegen16generate_closure0B5_
FN:842,_RNCNvNtCs14PW5HJOtOs_6glossa7codegen18generate_trait_def0B5_
FN:784,_RNCNvNtCs14PW5HJOtOs_6glossa7codegen19generate_struct_def0B5_
FN:1158,_RNCNvNtCs14PW5HJOtOs_6glossa7codegen19generate_struct_lit0B5_
FN:905,_RNCNvNtCs14PW5HJOtOs_6glossa7codegen19generate_trait_impl0B5_
FN:811,_RNCNvNtCs14PW5HJOtOs_6glossa7codegen27generate_trait_method_parts0B5_
FN:609,_RNCNvNtCs14PW5HJOtOs_6glossa7codegen29generate_statement_expression0B5_
FN:1533,_RNvNtNtCs14PW5HJOtOs_6glossa7codegen5tests7compile
FN:1477,_RNvNtNtCs14PW5HJOtOs_6glossa7codegen5testss_16test_basic_types
FN:1516,_RNvNtNtCs14PW5HJOtOs_6glossa7codegen5testss_16test_struct_type
FN:1399,_RNvNtNtCs14PW5HJOtOs_6glossa7codegen5testss_18test_transliterate
FN:1540,_RNvNtNtCs14PW5HJOtOs_6glossa7codegen5testss_19test_generate_hello
FN:1486,_RNvNtNtCs14PW5HJOtOs_6glossa7codegen5testss_20test_container_types
FN:1556,_RNvNtNtCs14PW5HJOtOs_6glossa7codegen5testss_20test_generate_number
FN:1548,_RNvNtNtCs14PW5HJOtOs_6glossa7codegen5testss_21test_generate_binding
FN:1585,_RNvNtNtCs14PW5HJOtOs_6glossa7codegen5testss_24test_generate_checked_op
FN:1458,_RNvNtNtCs14PW5HJOtOs_6glossa7codegen5testss_24test_sanitize_edge_cases
FN:1417,_RNvNtNtCs14PW5HJOtOs_6glossa7codegen5testss_25test_transliterate_unique
FN:1563,_RNvNtNtCs14PW5HJOtOs_6glossa7codegen5testss_26test_generate_full_program
FN:1392,_RNvNtNtCs14PW5HJOtOs_6glossa7codegen5testss_26test_sanitize_greek_letter
FN:1625,_RNvNtNtCs14PW5HJOtOs_6glossa7codegen5testss_28test_generate_control_unwrap
FN:1575,_RNvNtNtCs14PW5HJOtOs_6glossa7codegen5testss_28test_generate_statement_code
FN:1445,_RNvNtNtCs14PW5HJOtOs_6glossa7codegen5testss_33test_sanitize_keywords_and_prefix
FN:1596,_RNvNtNtCs14PW5HJOtOs_6glossa7codegen5testss_34test_generate_unary_op_neg_checked
FN:1641,_RNvNtNtCs14PW5HJOtOs_6glossa7codegen5testss_35test_generate_unreachable_operators
FN:1434,_RNvNtNtCs14PW5HJOtOs_6glossa7codegen5testss_38test_transliterate_mixed_valid_invalid
FN:1608,_RNvNtNtCs14PW5HJOtOs_6glossa7codegen5testss_43test_generate_collection_index_bounds_check
FNDA:588,_RINvNtCs4a0SCptkpqe_6glossa7codegen17transliterate_fmtNtNtCs4kUJL3MZFFz_4core3fmt9FormatterEB4_
FNDA:245,_RINvNtCs4a0SCptkpqe_6glossa7codegen17transliterate_fmtNtNtCsauO83Ko6oyK_5alloc6string6StringEB4_
FNDA:245,_RNCNvNtCs4a0SCptkpqe_6glossa7codegen13transliterate0B5_
FNDA:5,_RNCNvNtCs4a0SCptkpqe_6glossa7codegen14generate_match0B5_
FNDA:12,_RNCNvNtCs4a0SCptkpqe_6glossa7codegen15generate_fn_def0B5_
FNDA:36,_RNCNvNtCs4a0SCptkpqe_6glossa7codegen16generate_closure0B5_
FNDA:15,_RNCNvNtCs4a0SCptkpqe_6glossa7codegen18generate_trait_def0B5_
FNDA:27,_RNCNvNtCs4a0SCptkpqe_6glossa7codegen19generate_struct_def0B5_
FNDA:16,_RNCNvNtCs4a0SCptkpqe_6glossa7codegen19generate_struct_lit0B5_
FNDA:12,_RNCNvNtCs4a0SCptkpqe_6glossa7codegen19generate_trait_impl0B5_
FNDA:27,_RNCNvNtCs4a0SCptkpqe_6glossa7codegen27generate_trait_method_parts0B5_
FNDA:48,_RNCNvNtCs4a0SCptkpqe_6glossa7codegen29generate_statement_expression0B5_
FNDA:7,_RNvNtCs4a0SCptkpqe_6glossa7codegen11generate_if
FNDA:94,_RNvNtCs4a0SCptkpqe_6glossa7codegen11is_std_type
FNDA:7,_RNvNtCs4a0SCptkpqe_6glossa7codegen12generate_for
FNDA:186,_RNvNtCs4a0SCptkpqe_6glossa7codegen12generate_let
FNDA:4,_RNvNtCs4a0SCptkpqe_6glossa7codegen12to_rust_type
FNDA:978,_RNvNtCs4a0SCptkpqe_6glossa7codegen13generate_expr
FNDA:216,_RNvNtCs4a0SCptkpqe_6glossa7codegen13generate_rust
FNDA:8,_RNvNtCs4a0SCptkpqe_6glossa7codegen13generate_test
FNDA:99,_RNvNtCs4a0SCptkpqe_6glossa7codegen13is_std_method
FNDA:2,_RNvNtCs4a0SCptkpqe_6glossa7codegen13sanitize_name
FNDA:256,_RNvNtCs4a0SCptkpqe_6glossa7codegen13transliterate
FNDA:2,_RNvNtCs4a0SCptkpqe_6glossa7codegen14generate_match
FNDA:133,_RNvNtCs4a0SCptkpqe_6glossa7codegen14generate_print
FNDA:4,_RNvNtCs4a0SCptkpqe_6glossa7codegen14generate_range
FNDA:2,_RNvNtCs4a0SCptkpqe_6glossa7codegen14generate_while
FNDA:509,_RNvNtCs4a0SCptkpqe_6glossa7codegen14sanitize_ident
FNDA:59,_RNvNtCs4a0SCptkpqe_6glossa7codegen15generate_bin_op
FNDA:17,_RNvNtCs4a0SCptkpqe_6glossa7codegen15generate_fn_def
FNDA:9,_RNvNtCs4a0SCptkpqe_6glossa7codegen15write_rust_type
FNDA:32,_RNvNtCs4a0SCptkpqe_6glossa7codegen16generate_closure
FNDA:13,_RNvNtCs4a0SCptkpqe_6glossa7codegen16generate_expr_ok
FNDA:11,_RNvNtCs4a0SCptkpqe_6glossa7codegen17generate_expr_err
FNDA:11,_RNvNtCs4a0SCptkpqe_6glossa7codegen17generate_expr_try
FNDA:7,_RNvNtCs4a0SCptkpqe_6glossa7codegen17generate_unary_op
FNDA:166,_RNvNtCs4a0SCptkpqe_6glossa7codegen17generate_variable
FNDA:27,_RNvNtCs4a0SCptkpqe_6glossa7codegen17is_self_parameter
FNDA:24,_RNvNtCs4a0SCptkpqe_6glossa7codegen18generate_expr_some
FNDA:16,_RNvNtCs4a0SCptkpqe_6glossa7codegen18generate_rust_file
FNDA:489,_RNvNtCs4a0SCptkpqe_6glossa7codegen18generate_statement
FNDA:14,_RNvNtCs4a0SCptkpqe_6glossa7codegen18generate_trait_def
FNDA:18,_RNvNtCs4a0SCptkpqe_6glossa7codegen19generate_checked_op
FNDA:216,_RNvNtCs4a0SCptkpqe_6glossa7codegen19generate_panic_hook
FNDA:64,_RNvNtCs4a0SCptkpqe_6glossa7codegen19generate_statements
FNDA:25,_RNvNtCs4a0SCptkpqe_6glossa7codegen19generate_struct_def
FNDA:12,_RNvNtCs4a0SCptkpqe_6glossa7codegen19generate_struct_lit
FNDA:12,_RNvNtCs4a0SCptkpqe_6glossa7codegen19generate_trait_impl
FNDA:8,_RNvNtCs4a0SCptkpqe_6glossa7codegen20generate_expr_unwrap
FNDA:99,_RNvNtCs4a0SCptkpqe_6glossa7codegen20generate_method_call
FNDA:75,_RNvNtCs4a0SCptkpqe_6glossa7codegen20generate_type_tokens
FNDA:3,_RNvNtCs4a0SCptkpqe_6glossa7codegen22generate_function_call
FNDA:9,_RNvNtCs4a0SCptkpqe_6glossa7codegen23generate_collection_new
FNDA:2,_RNvNtCs4a0SCptkpqe_6glossa7codegen23generate_control_assert
FNDA:381,_RNvNtCs4a0SCptkpqe_6glossa7codegen23generate_literal_number
FNDA:53,_RNvNtCs4a0SCptkpqe_6glossa7codegen23generate_literal_string
FNDA:8,_RNvNtCs4a0SCptkpqe_6glossa7codegen23generate_statement_code
FNDA:10,_RNvNtCs4a0SCptkpqe_6glossa7codegen24generate_literal_boolean
FNDA:3,_RNvNtCs4a0SCptkpqe_6glossa7codegen24generate_property_access
FNDA:52,_RNvNtCs4a0SCptkpqe_6glossa7codegen25generate_collection_array
FNDA:10,_RNvNtCs4a0SCptkpqe_6glossa7codegen25generate_collection_index
FNDA:18,_RNvNtCs4a0SCptkpqe_6glossa7codegen25generate_statement_return
FNDA:5,_RNvNtCs4a0SCptkpqe_6glossa7codegen26generate_control_assert_eq
FNDA:186,_RNvNtCs4a0SCptkpqe_6glossa7codegen26generate_statement_binding
FNDA:27,_RNvNtCs4a0SCptkpqe_6glossa7codegen27generate_trait_method_parts
FNDA:4,_RNvNtCs4a0SCptkpqe_6glossa7codegen29generate_statement_assignment
FNDA:52,_RNvNtCs4a0SCptkpqe_6glossa7codegen29generate_statement_expression
FNDA:588,_RNvXNtCs4a0SCptkpqe_6glossa7codegenNtB2_9SanitizerNtNtCs4kUJL3MZFFz_4core3fmt7Display3fmt
FNDA:0,_RNvNtCs14PW5HJOtOs_6glossa7codegen11generate_if
FNDA:0,_RNvNtCs14PW5HJOtOs_6glossa7codegen11is_std_type
FNDA:0,_RNvNtCs14PW5HJOtOs_6glossa7codegen12generate_for
FNDA:4,_RNvNtCs14PW5HJOtOs_6glossa7codegen12generate_let
FNDA:11,_RNvNtCs14PW5HJOtOs_6glossa7codegen12to_rust_type
FNDA:46,_RNvNtCs14PW5HJOtOs_6glossa7codegen13generate_expr
FNDA:11,_RNvNtCs14PW5HJOtOs_6glossa7codegen13generate_rust
FNDA:20,_RNvNtCs14PW5HJOtOs_6glossa7codegen13generate_test
FNDA:0,_RNvNtCs14PW5HJOtOs_6glossa7codegen13is_std_method
FNDA:9,_RNvNtCs14PW5HJOtOs_6glossa7codegen13sanitize_name
FNDA:9,_RNvNtCs14PW5HJOtOs_6glossa7codegen13transliterate
FNDA:0,_RNvNtCs14PW5HJOtOs_6glossa7codegen14generate_match
FNDA:11,_RNvNtCs14PW5HJOtOs_6glossa7codegen14generate_print
FNDA:0,_RNvNtCs14PW5HJOtOs_6glossa7codegen14generate_range
FNDA:0,_RNvNtCs14PW5HJOtOs_6glossa7codegen14generate_while
FNDA:30,_RNvNtCs14PW5HJOtOs_6glossa7codegen14sanitize_ident
FNDA:3,_RNvNtCs14PW5HJOtOs_6glossa7codegen15generate_bin_op
FNDA:20,_RNvNtCs14PW5HJOtOs_6glossa7codegen15generate_fn_def
FNDA:18,_RNvNtCs14PW5HJOtOs_6glossa7codegen15write_rust_type
FNDA:0,_RNvNtCs14PW5HJOtOs_6glossa7codegen16generate_closure
FNDA:0,_RNvNtCs14PW5HJOtOs_6glossa7codegen16generate_expr_ok
FNDA:0,_RNvNtCs14PW5HJOtOs_6glossa7codegen17generate_expr_err
FNDA:0,_RNvNtCs14PW5HJOtOs_6glossa7codegen17generate_expr_try
FNDA:1,_RNvNtCs14PW5HJOtOs_6glossa7codegen17generate_unary_op
FNDA:4,_RNvNtCs14PW5HJOtOs_6glossa7codegen17generate_variable
FNDA:2,_RNvNtCs14PW5HJOtOs_6glossa7codegen17is_self_parameter
FNDA:0,_RNvNtCs14PW5HJOtOs_6glossa7codegen18generate_expr_some
FNDA:6,_RNvNtCs14PW5HJOtOs_6glossa7codegen18generate_rust_file
FNDA:115,_RNvNtCs14PW5HJOtOs_6glossa7codegen18generate_statement
FNDA:20,_RNvNtCs14PW5HJOtOs_6glossa7codegen18generate_trait_def
FNDA:2,_RNvNtCs14PW5HJOtOs_6glossa7codegen19generate_checked_op
FNDA:11,_RNvNtCs14PW5HJOtOs_6glossa7codegen19generate_panic_hook
FNDA:40,_RNvNtCs14PW5HJOtOs_6glossa7codegen19generate_statements
FNDA:20,_RNvNtCs14PW5HJOtOs_6glossa7codegen19generate_struct_def
FNDA:0,_RNvNtCs14PW5HJOtOs_6glossa7codegen19generate_struct_lit
FNDA:0,_RNvNtCs14PW5HJOtOs_6glossa7codegen19generate_trait_impl
FNDA:1,_RNvNtCs14PW5HJOtOs_6glossa7codegen20generate_expr_unwrap
FNDA:0,_RNvNtCs14PW5HJOtOs_6glossa7codegen20generate_method_call
FNDA:2,_RNvNtCs14PW5HJOtOs_6glossa7codegen20generate_type_tokens
FNDA:0,_RNvNtCs14PW5HJOtOs_6glossa7codegen22generate_function_call
FNDA:0,_RNvNtCs14PW5HJOtOs_6glossa7codegen23generate_collection_new
FNDA:0,_RNvNtCs14PW5HJOtOs_6glossa7codegen23generate_control_assert
FNDA:34,_RNvNtCs14PW5HJOtOs_6glossa7codegen23generate_literal_number
FNDA:7,_RNvNtCs14PW5HJOtOs_6glossa7codegen23generate_literal_string
FNDA:3,_RNvNtCs14PW5HJOtOs_6glossa7codegen23generate_statement_code
FNDA:0,_RNvNtCs14PW5HJOtOs_6glossa7codegen24generate_literal_boolean
FNDA:0,_RNvNtCs14PW5HJOtOs_6glossa7codegen24generate_property_access
FNDA:0,_RNvNtCs14PW5HJOtOs_6glossa7codegen25generate_collection_array
FNDA:1,_RNvNtCs14PW5HJOtOs_6glossa7codegen25generate_collection_index
FNDA:20,_RNvNtCs14PW5HJOtOs_6glossa7codegen25generate_statement_return
FNDA:0,_RNvNtCs14PW5HJOtOs_6glossa7codegen26generate_control_assert_eq
FNDA:4,_RNvNtCs14PW5HJOtOs_6glossa7codegen26generate_statement_binding
FNDA:1,_RNvNtCs14PW5HJOtOs_6glossa7codegen27generate_trait_method_parts
FNDA:0,_RNvNtCs14PW5HJOtOs_6glossa7codegen29generate_statement_assignment
FNDA:0,_RNvNtCs14PW5HJOtOs_6glossa7codegen29generate_statement_expression
FNDA:80,_RNvXNtCs14PW5HJOtOs_6glossa7codegenNtB2_9SanitizerNtNtCs4kUJL3MZFFz_4core3fmt7Display3fmt
FNDA:1,_RNvNtNtNtCs14PW5HJOtOs_6glossa7codegen5tests14refactor_testss_32test_generate_checked_arithmetic
FNDA:1,_RNvNtNtNtCs14PW5HJOtOs_6glossa7codegen5tests14refactor_testss_32test_generate_rust_large_program
FNDA:1,_RNvNtNtNtCs14PW5HJOtOs_6glossa7codegen5tests14refactor_testss_32test_generate_trait_parts_manual
FNDA:2,_RNCNvNtNtNtCs14PW5HJOtOs_6glossa7codegen5tests14refactor_testss_32test_generate_trait_parts_manual0B9_
FNDA:80,_RINvNtCs14PW5HJOtOs_6glossa7codegen17transliterate_fmtNtNtCs4kUJL3MZFFz_4core3fmt9FormatterEB4_
FNDA:8,_RINvNtCs14PW5HJOtOs_6glossa7codegen17transliterate_fmtNtNtCsauO83Ko6oyK_5alloc6string6StringEB4_
FNDA:8,_RNCNvNtCs14PW5HJOtOs_6glossa7codegen13transliterate0B5_
FNDA:0,_RNCNvNtCs14PW5HJOtOs_6glossa7codegen14generate_match0B5_
FNDA:0,_RNCNvNtCs14PW5HJOtOs_6glossa7codegen15generate_fn_def0B5_
FNDA:0,_RNCNvNtCs14PW5HJOtOs_6glossa7codegen16generate_closure0B5_
FNDA:0,_RNCNvNtCs14PW5HJOtOs_6glossa7codegen18generate_trait_def0B5_
FNDA:0,_RNCNvNtCs14PW5HJOtOs_6glossa7codegen19generate_struct_def0B5_
FNDA:0,_RNCNvNtCs14PW5HJOtOs_6glossa7codegen19generate_struct_lit0B5_
FNDA:0,_RNCNvNtCs14PW5HJOtOs_6glossa7codegen19generate_trait_impl0B5_
FNDA:2,_RNCNvNtCs14PW5HJOtOs_6glossa7codegen27generate_trait_method_parts0B5_
FNDA:0,_RNCNvNtCs14PW5HJOtOs_6glossa7codegen29generate_statement_expression0B5_
FNDA:4,_RNvNtNtCs14PW5HJOtOs_6glossa7codegen5tests7compile
FNDA:1,_RNvNtNtCs14PW5HJOtOs_6glossa7codegen5testss_16test_basic_types
FNDA:1,_RNvNtNtCs14PW5HJOtOs_6glossa7codegen5testss_16test_struct_type
FNDA:1,_RNvNtNtCs14PW5HJOtOs_6glossa7codegen5testss_18test_transliterate
FNDA:1,_RNvNtNtCs14PW5HJOtOs_6glossa7codegen5testss_19test_generate_hello
FNDA:1,_RNvNtNtCs14PW5HJOtOs_6glossa7codegen5testss_20test_container_types
FNDA:1,_RNvNtNtCs14PW5HJOtOs_6glossa7codegen5testss_20test_generate_number
FNDA:1,_RNvNtNtCs14PW5HJOtOs_6glossa7codegen5testss_21test_generate_binding
FNDA:1,_RNvNtNtCs14PW5HJOtOs_6glossa7codegen5testss_24test_generate_checked_op
FNDA:1,_RNvNtNtCs14PW5HJOtOs_6glossa7codegen5testss_24test_sanitize_edge_cases
FNDA:1,_RNvNtNtCs14PW5HJOtOs_6glossa7codegen5testss_25test_transliterate_unique
FNDA:1,_RNvNtNtCs14PW5HJOtOs_6glossa7codegen5testss_26test_generate_full_program
FNDA:1,_RNvNtNtCs14PW5HJOtOs_6glossa7codegen5testss_26test_sanitize_greek_letter
FNDA:1,_RNvNtNtCs14PW5HJOtOs_6glossa7codegen5testss_28test_generate_control_unwrap
FNDA:1,_RNvNtNtCs14PW5HJOtOs_6glossa7codegen5testss_28test_generate_statement_code
FNDA:1,_RNvNtNtCs14PW5HJOtOs_6glossa7codegen5testss_33test_sanitize_keywords_and_prefix
FNDA:1,_RNvNtNtCs14PW5HJOtOs_6glossa7codegen5testss_34test_generate_unary_op_neg_checked
FNDA:1,_RNvNtNtCs14PW5HJOtOs_6glossa7codegen5testss_35test_generate_unreachable_operators
FNDA:1,_RNvNtNtCs14PW5HJOtOs_6glossa7codegen5testss_38test_transliterate_mixed_valid_invalid
FNDA:1,_RNvNtNtCs14PW5HJOtOs_6glossa7codegen5testss_43test_generate_collection_index_bounds_check
FNF:91
FNH:91
DA:110,539
DA:111,539
DA:113,539
DA:114,539
DA:115,539
DA:116,539
DA:117,539
DA:119,539
DA:128,668
DA:129,668
DA:130,118
DA:132,550
DA:135,668
DA:137,668
DA:138,3
DA:139,665
DA:141,668
DA:142,668
DA:174,11
DA:176,11
DA:177,11
DA:178,11
DA:179,11
DA:180,11
DA:181,11
DA:207,265
DA:208,265
DA:209,12
DA:210,253
DA:215,253
DA:217,253
DA:219,253
DA:220,8
DA:221,245
DA:224,253
DA:226,253
DA:227,265
DA:231,921
DA:232,6234
DA:236,6234
DA:237,1844
DA:240,4390
DA:243,921
DA:244,921
DA:278,15
DA:279,15
DA:280,15
DA:281,15
DA:282,15
DA:284,27
DA:285,27
DA:286,8
DA:287,5
DA:288,1
DA:289,1
DA:290,1
DA:291,1
DA:292,1
DA:294,1
DA:295,1
DA:296,1
DA:297,1
DA:299,1
DA:300,1
DA:301,1
DA:302,1
DA:303,1
DA:304,1
DA:306,4
DA:307,4
DA:308,4
DA:309,4
DA:311,2
DA:312,2
DA:313,2
DA:314,2
DA:315,2
DA:316,2
DA:318,1
DA:319,2
DA:320,2
DA:321,2
DA:322,2
DA:323,2
DA:324,2
DA:325,2
DA:328,0
DA:329,1
DA:331,27
DA:342,77
DA:343,77
DA:344,55
DA:345,7
DA:346,2
DA:347,2
DA:348,2
DA:349,2
DA:351,1
DA:352,1
DA:353,1
DA:355,2
DA:356,2
DA:357,2
DA:358,2
DA:360,2
DA:361,2
DA:362,2
DA:364,2
DA:365,2
DA:366,2
DA:367,2
DA:369,1
DA:370,1
DA:372,1
DA:374,1
DA:375,1
DA:376,1
DA:377,1
DA:378,1
DA:380,1
DA:383,1
DA:384,1
DA:386,77
DA:405,227
DA:409,227
DA:410,227
DA:411,227
DA:412,227
DA:413,227
DA:414,227
DA:415,227
DA:417,519
DA:418,519
DA:419,34
DA:420,45
DA:422,12
DA:424,37
DA:425,28
DA:426,363
DA:434,227
DA:436,227
DA:438,227
DA:458,227
DA:459,227
DA:461,227
DA:462,227
DA:491,227
DA:506,22
DA:507,22
DA:510,22
DA:514,22
DA:545,11
DA:546,11
DA:547,11
DA:549,104
DA:550,104
DA:551,104
DA:553,604
DA:554,604
DA:556,190
DA:557,190
DA:558,190
DA:559,190
DA:560,4
DA:561,144
DA:562,52
DA:564,7
DA:565,7
DA:566,7
DA:567,7
DA:568,2
DA:570,7
DA:571,7
DA:572,7
DA:573,7
DA:574,2
DA:575,1
DA:576,1
DA:577,38
DA:579,37
DA:580,37
DA:581,37
DA:582,37
DA:583,37
DA:584,45
DA:585,34
DA:587,12
DA:588,12
DA:589,12
DA:590,12
DA:591,28
DA:593,604
DA:595,190
DA:597,190
DA:598,190
DA:599,190
DA:601,4
DA:602,4
DA:603,4
DA:604,4
DA:605,4
DA:607,52
DA:609,52
DA:610,48
DA:611,48
DA:612,48
DA:613,52
DA:614,52
DA:616,38
DA:617,38
DA:618,38
DA:619,38
DA:620,38
DA:622,0
DA:624,38
DA:626,190
DA:627,190
DA:628,190
DA:630,190
DA:631,47
DA:633,143
DA:635,190
DA:637,144
DA:638,144
DA:639,17
DA:643,127
DA:644,129
DA:645,129
DA:646,2
DA:647,127
DA:648,129
DA:652,127
DA:653,127
DA:655,144
DA:657,7
DA:658,7
DA:659,7
DA:660,7
DA:661,7
DA:662,7
DA:663,7
DA:665,7
DA:666,3
DA:667,3
DA:668,3
DA:677,4
DA:684,7
DA:686,2
DA:687,2
DA:688,2
DA:689,2
DA:694,2
DA:696,7
DA:697,7
DA:698,7
DA:699,7
DA:700,7
DA:701,7
DA:702,7
DA:703,7
DA:704,7
DA:709,7
DA:711,2
DA:712,2
DA:713,2
DA:714,2
DA:715,2
DA:716,5
DA:718,5
DA:720,2
DA:722,3
DA:724,5
DA:725,5
DA:726,5
DA:728,2
DA:733,2
DA:735,37
DA:736,37
DA:737,37
DA:738,37
DA:739,37
DA:740,37
DA:741,37
DA:742,37
DA:745,37
DA:746,12
DA:747,12
DA:748,4
DA:749,4
DA:751,8
DA:753,12
DA:756,37
DA:757,16
DA:758,16
DA:764,21
DA:770,37
DA:772,45
DA:774,45
DA:776,45
DA:777,45
DA:778,45
DA:779,45
DA:780,45
DA:784,45
DA:785,27
DA:786,27
DA:787,27
DA:788,27
DA:790,45
DA:796,45
DA:804,28
DA:805,28
DA:807,28
DA:808,28
DA:809,28
DA:810,28
DA:811,29
DA:812,29
DA:813,28
DA:815,1
DA:816,1
DA:817,1
DA:819,29
DA:821,28
DA:823,28
DA:824,28
DA:825,28
DA:826,28
DA:827,28
DA:828,28
DA:830,34
DA:832,34
DA:834,34
DA:835,34
DA:836,34
DA:837,34
DA:838,34
DA:842,34
DA:843,15
DA:844,15
DA:845,15
DA:847,15
DA:848,2
DA:849,2
DA:850,2
DA:856,0
DA:860,13
DA:861,1
DA:862,1
DA:868,12
DA:872,15
DA:874,34
DA:879,34
DA:881,12
DA:882,12
DA:883,12
DA:884,12
DA:885,12
DA:887,12
DA:889,12
DA:890,12
DA:891,12
DA:892,12
DA:893,12
DA:895,12
DA:897,12
DA:898,12
DA:899,12
DA:900,12
DA:901,12
DA:905,12
DA:906,12
DA:907,12
DA:908,12
DA:911,12
DA:912,12
DA:914,0
DA:917,12
DA:918,1
DA:924,11
DA:930,12
DA:932,12
DA:937,12
DA:939,28
DA:942,28
DA:943,259
DA:944,259
DA:945,228
DA:946,228
DA:947,228
DA:948,31
DA:949,31
DA:950,31
DA:953,28
DA:956,28
DA:958,28
DA:964,28
DA:966,24
DA:967,24
DA:968,24
DA:969,24
DA:971,13
DA:972,13
DA:973,13
DA:974,13
DA:976,11
DA:977,11
DA:978,11
DA:979,11
DA:981,11
DA:982,11
DA:983,11
DA:984,11
DA:986,9
DA:987,9
DA:988,9
DA:989,9
DA:991,1024
DA:992,1024
DA:993,60
DA:995,415
DA:997,10
DA:999,52
DA:1001,24
DA:1003,4
DA:1005,13
DA:1007,11
DA:1009,11
DA:1011,9
DA:1013,10
DA:1015,170
DA:1017,3
DA:1018,3
DA:1022,99
DA:1023,99
DA:1024,99
DA:1025,99
DA:1027,0
DA:1028,3
DA:1030,59
DA:1032,7
DA:1035,4
DA:1036,4
DA:1037,4
DA:1038,4
DA:1041,12
DA:1042,12
DA:1043,12
DA:1044,12
DA:1047,32
DA:1048,32
DA:1049,32
DA:1050,32
DA:1052,9
DA:1053,9
DA:1056,2
DA:1058,5
DA:1060,1024
DA:1062,62
DA:1063,62
DA:1064,62
DA:1067,62
DA:1069,62
DA:1070,53
DA:1072,8
DA:1073,8
DA:1074,8
DA:1075,8
DA:1076,8
DA:1080,1
DA:1081,1
DA:1082,1
DA:1083,1
DA:1084,1
DA:1088,6
DA:1089,6
DA:1090,6
DA:1091,6
DA:1092,6
DA:1096,3
DA:1097,3
DA:1098,3
DA:1099,3
DA:1100,3
DA:1104,1
DA:1105,1
DA:1106,1
DA:1107,1
DA:1108,1
DA:1111,34
DA:1113,9
DA:1115,43
DA:1116,0
DA:1117,0
DA:1118,0
DA:1119,0
DA:1120,0
DA:1121,4
DA:1122,0
DA:1123,3
DA:1124,1
DA:1125,32
DA:1126,1
DA:1127,1
DA:1128,1
DA:1130,62
DA:1132,20
DA:1133,20
DA:1134,20
DA:1135,20
DA:1136,20
DA:1137,20
DA:1138,20
DA:1139,20
DA:1140,20
DA:1142,12
DA:1143,12
DA:1144,12
DA:1145,12
DA:1146,12
DA:1148,12
DA:1150,12
DA:1151,12
DA:1152,12
DA:1153,12
DA:1154,12
DA:1158,16
DA:1159,16
DA:1160,16
DA:1161,16
DA:1162,16
DA:1164,12
DA:1165,12
DA:1167,32
DA:1168,32
DA:1169,32
DA:1170,32
DA:1171,32
DA:1172,32
DA:1173,36
DA:1175,32
DA:1177,0
DA:1180,32
DA:1183,32
DA:1186,29
DA:1187,29
DA:1188,1
DA:1189,28
DA:1190,28
DA:1192,28
DA:1193,0
DA:1194,0
DA:1195,0
DA:1196,29
DA:1199,99
DA:1200,94
DA:1201,99
DA:1202,99
DA:1203,96
DA:1204,93
DA:1205,90
DA:1206,90
DA:1207,89
DA:1208,89
DA:1209,89
DA:1210,89
DA:1211,89
DA:1212,89
DA:1213,81
DA:1214,78
DA:1215,76
DA:1216,76
DA:1217,76
DA:1218,47
DA:1219,42
DA:1220,34
DA:1221,23
DA:1222,16
DA:1223,15
DA:1224,11
DA:1225,5
DA:1226,5
DA:1227,5
DA:1228,5
DA:1230,99
DA:1233,94
DA:1234,0
DA:1235,94
DA:1247,94
DA:1253,60
DA:1254,60
DA:1255,60
DA:1257,415
DA:1258,415
DA:1259,415
DA:1261,10
DA:1262,10
DA:1263,10
DA:1265,170
DA:1266,170
DA:1267,170
DA:1268,170
DA:1270,3
DA:1271,3
DA:1272,3
DA:1273,3
DA:1274,3
DA:1276,8
DA:1277,8
DA:1279,0
DA:1280,0
DA:1283,5
DA:1284,5
DA:1285,4
DA:1287,1
DA:1291,3
DA:1292,3
DA:1295,8
DA:1297,4
DA:1298,4
DA:1299,4
DA:1300,4
DA:1301,1
DA:1303,3
DA:1305,4
DA:1311,52
DA:1313,52
DA:1314,52
DA:1315,52
DA:1317,9
DA:1319,9
DA:1320,9
DA:1321,9
DA:1323,11
DA:1324,11
DA:1325,11
DA:1327,11
DA:1337,11
DA:1339,99
DA:1340,99
DA:1341,99
DA:1342,99
DA:1343,99
DA:1344,99
DA:1347,99
DA:1349,94
DA:1352,5
DA:1356,99
DA:1357,99
DA:1358,99
DA:1360,3
DA:1361,3
DA:1363,3
DA:1364,3
DA:1365,3
DA:1371,2
DA:1372,2
DA:1373,2
DA:1374,2
DA:1376,5
DA:1377,5
DA:1378,5
DA:1379,5
DA:1380,5
DA:1392,1
DA:1393,1
DA:1394,1
DA:1395,1
DA:1396,1
DA:1399,1
DA:1405,1
DA:1406,1
DA:1409,1
DA:1410,1
DA:1411,1
DA:1414,1
DA:1417,1
DA:1419,1
DA:1420,1
DA:1422,1
DA:1423,1
DA:1425,1
DA:1429,1
DA:1430,1
DA:1431,1
DA:1434,1
DA:1439,1
DA:1440,1
DA:1441,1
DA:1442,1
DA:1445,1
DA:1448,1
DA:1449,1
DA:1453,1
DA:1454,1
DA:1455,1
DA:1458,1
DA:1460,1
DA:1461,1
DA:1465,1
DA:1468,1
DA:1471,1
DA:1472,1
DA:1477,1
DA:1478,1
DA:1479,1
DA:1480,1
DA:1481,1
DA:1482,1
DA:1483,1
DA:1486,1
DA:1487,1
DA:1488,1
DA:1491,1
DA:1492,1
DA:1495,1
DA:1496,1
DA:1497,1
DA:1498,1
DA:1499,1
DA:1502,1
DA:1503,1
DA:1506,1
DA:1507,1
DA:1508,1
DA:1509,1
DA:1510,1
DA:1513,1
DA:1516,1
DA:1518,1
DA:1519,1
DA:1520,1
DA:1521,1
DA:1522,1
DA:1525,1
DA:1526,1
DA:1529,1
DA:1533,4
DA:1534,4
DA:1535,4
DA:1536,4
DA:1537,4
DA:1540,1
DA:1541,1
DA:1543,1
DA:1544,1
DA:1545,1
DA:1548,1
DA:1549,1
DA:1551,1
DA:1552,1
DA:1553,1
DA:1556,1
DA:1557,1
DA:1558,1
DA:1559,1
DA:1560,1
DA:1563,1
DA:1564,1
DA:1566,1
DA:1567,1
DA:1571,1
DA:1572,1
DA:1575,1
DA:1576,1
DA:1577,1
DA:1578,1
DA:1579,1
DA:1580,1
DA:1581,1
DA:1582,1
DA:1585,1
DA:1586,1
DA:1587,1
DA:1588,1
DA:1589,1
DA:1590,1
DA:1591,1
DA:1592,1
DA:1593,1
DA:1596,1
DA:1597,1
DA:1598,1
DA:1599,1
DA:1600,1
DA:1601,1
DA:1602,1
DA:1603,1
DA:1604,1
DA:1605,1
DA:1608,1
DA:1609,1
DA:1610,1
DA:1611,1
DA:1612,1
DA:1613,1
DA:1614,1
DA:1615,1
DA:1616,1
DA:1617,1
DA:1618,1
DA:1619,1
DA:1620,1
DA:1621,1
DA:1622,1
DA:1625,1
DA:1626,1
DA:1627,1
DA:1628,1
DA:1629,1
DA:1630,1
DA:1631,1
DA:1632,1
DA:1634,1
DA:1635,1
DA:1636,1
DA:1637,1
DA:1638,1
DA:1641,1
DA:1643,1
DA:1644,1
DA:1645,1
DA:1646,1
DA:1647,1
DA:1648,1
DA:1649,1
DA:1650,1
DA:1653,1
DA:1654,1
DA:1655,1
DA:1656,1
DA:1659,1
DA:1660,1
DA:1661,1
DA:1662,1
DA:1663,1
DA:1670,1
DA:1672,1
DA:1673,1
DA:1674,1
DA:1675,1
DA:1676,1
DA:1677,1
DA:1678,1
DA:1679,1
DA:1680,1
DA:1682,1
DA:1684,1
DA:1687,2
DA:1688,1
DA:1689,1
DA:1690,1
DA:1691,1
DA:1694,1
DA:1695,1
DA:1696,1
DA:1699,1
DA:1700,1
DA:1701,1
DA:1702,1
DA:1703,1
DA:1704,1
DA:1705,1
DA:1706,1
DA:1707,1
DA:1709,1
DA:1710,1
DA:1711,1
DA:1713,1
DA:1714,1
DA:1715,1
DA:1718,1
DA:1721,1
DA:1723,20
DA:1724,20
DA:1725,20
DA:1726,20
DA:1727,20
DA:1728,20
DA:1729,20
DA:1730,20
DA:1731,20
DA:1732,20
DA:1733,20
DA:1734,20
DA:1735,20
DA:1736,20
DA:1737,20
DA:1738,20
DA:1739,20
DA:1740,20
DA:1741,20
DA:1742,20
DA:1743,20
DA:1744,20
DA:1745,20
DA:1746,20
DA:1747,20
DA:1748,20
DA:1750,1
DA:1751,1
DA:1752,1
DA:1753,1
DA:1754,1
DA:1757,1
DA:1758,1
DA:1759,1
DA:1760,1
DA:1761,1
BRF:0
BRH:0
LF:920
LH:900
end_of_record
SF:/app/src/errors/mod.rs
FN:297,_RNvMNtCs4a0SCptkpqe_6glossa6errorsNtB2_11GlossaError14category_greek
FN:178,_RINvMNtCs4a0SCptkpqe_6glossa6errorsNtB3_11GlossaError5parseNtNtCsauO83Ko6oyK_5alloc6string6StringEB5_
FN:230,_RINvMNtCs4a0SCptkpqe_6glossa6errorsNtB3_11GlossaError8semanticNtNtCsauO83Ko6oyK_5alloc6string6StringEB5_
FN:230,_RINvMNtCs4a0SCptkpqe_6glossa6errorsNtB3_11GlossaError8semanticReEB5_
FN:251,_RINvMNtCs4a0SCptkpqe_6glossa6errorsNtB3_11GlossaError9undefinedNtCs36B3dAHZGhW_8smol_str7SmolStrEB5_
FN:251,_RINvMNtCs4a0SCptkpqe_6glossa6errorsNtB3_11GlossaError9undefinedNtNtCsauO83Ko6oyK_5alloc6string6StringEB5_
FN:251,_RINvMNtCs4a0SCptkpqe_6glossa6errorsNtB3_11GlossaError9undefinedReEB5_
FN:205,_RINvMNtCs4a0SCptkpqe_6glossa6errorsNtB3_11GlossaError17parse_with_sourceppEB5_
FN:290,_RINvMNtCs4a0SCptkpqe_6glossa6errorsNtB3_11GlossaError7codegenpEB5_
FN:269,_RINvMNtCs4a0SCptkpqe_6glossa6errorsNtB3_11GlossaError9agreementpEB5_
FN:290,_RINvMNtCs14PW5HJOtOs_6glossa6errorsNtB3_11GlossaError7codegenpEB5_
FN:269,_RINvMNtCs14PW5HJOtOs_6glossa6errorsNtB3_11GlossaError9agreementpEB5_
FN:297,_RNvMNtCs14PW5HJOtOs_6glossa6errorsNtB2_11GlossaError14category_greek
FN:321,_RNvNtNtCs14PW5HJOtOs_6glossa6errors5testss_16test_parse_error
FN:334,_RNvNtNtCs14PW5HJOtOs_6glossa6errors5testss_19test_category_greek
FN:327,_RNvNtNtCs14PW5HJOtOs_6glossa6errors5testss_20test_undefined_error
FN:340,_RNvNtNtCs14PW5HJOtOs_6glossa6errors5testss_22test_parse_with_source
FN:205,_RINvMNtCs14PW5HJOtOs_6glossa6errorsNtB3_11GlossaError17parse_with_sourceReB18_EB5_
FN:178,_RINvMNtCs14PW5HJOtOs_6glossa6errorsNtB3_11GlossaError5parseNtNtCsauO83Ko6oyK_5alloc6string6StringEB5_
FN:178,_RINvMNtCs14PW5HJOtOs_6glossa6errorsNtB3_11GlossaError5parseReEB5_
FN:230,_RINvMNtCs14PW5HJOtOs_6glossa6errorsNtB3_11GlossaError8semanticNtNtCsauO83Ko6oyK_5alloc6string6StringEB5_
FN:230,_RINvMNtCs14PW5HJOtOs_6glossa6errorsNtB3_11GlossaError8semanticReEB5_
FN:251,_RINvMNtCs14PW5HJOtOs_6glossa6errorsNtB3_11GlossaError9undefinedNtCs36B3dAHZGhW_8smol_str7SmolStrEB5_
FN:251,_RINvMNtCs14PW5HJOtOs_6glossa6errorsNtB3_11GlossaError9undefinedNtNtCsauO83Ko6oyK_5alloc6string6StringEB5_
FN:251,_RINvMNtCs14PW5HJOtOs_6glossa6errorsNtB3_11GlossaError9undefinedReEB5_
FN:178,_RINvMNtCs4a0SCptkpqe_6glossa6errorsNtB3_11GlossaError5parseReECs1YHKByXDsUn_14razor_coverage
FN:290,_RINvMNtCs4a0SCptkpqe_6glossa6errorsNtB3_11GlossaError7codegenReECs1YHKByXDsUn_14razor_coverage
FN:269,_RINvMNtCs4a0SCptkpqe_6glossa6errorsNtB3_11GlossaError9agreementReECs1YHKByXDsUn_14razor_coverage
FNDA:7,_RNvMNtCs4a0SCptkpqe_6glossa6errorsNtB2_11GlossaError14category_greek
FNDA:2782,_RINvMNtCs4a0SCptkpqe_6glossa6errorsNtB3_11GlossaError5parseNtNtCsauO83Ko6oyK_5alloc6string6StringEB5_
FNDA:13,_RINvMNtCs4a0SCptkpqe_6glossa6errorsNtB3_11GlossaError8semanticNtNtCsauO83Ko6oyK_5alloc6string6StringEB5_
FNDA:943,_RINvMNtCs4a0SCptkpqe_6glossa6errorsNtB3_11GlossaError8semanticReEB5_
FNDA:0,_RINvMNtCs4a0SCptkpqe_6glossa6errorsNtB3_11GlossaError9undefinedNtCs36B3dAHZGhW_8smol_str7SmolStrEB5_
FNDA:1,_RINvMNtCs4a0SCptkpqe_6glossa6errorsNtB3_11GlossaError9undefinedNtNtCsauO83Ko6oyK_5alloc6string6StringEB5_
FNDA:1,_RINvMNtCs4a0SCptkpqe_6glossa6errorsNtB3_11GlossaError9undefinedReEB5_
FNDA:0,_RINvMNtCs4a0SCptkpqe_6glossa6errorsNtB3_11GlossaError17parse_with_sourceppEB5_
FNDA:0,_RINvMNtCs4a0SCptkpqe_6glossa6errorsNtB3_11GlossaError7codegenpEB5_
FNDA:0,_RINvMNtCs4a0SCptkpqe_6glossa6errorsNtB3_11GlossaError9agreementpEB5_
FNDA:0,_RINvMNtCs14PW5HJOtOs_6glossa6errorsNtB3_11GlossaError7codegenpEB5_
FNDA:0,_RINvMNtCs14PW5HJOtOs_6glossa6errorsNtB3_11GlossaError9agreementpEB5_
FNDA:1,_RNvMNtCs14PW5HJOtOs_6glossa6errorsNtB2_11GlossaError14category_greek
FNDA:1,_RNvNtNtCs14PW5HJOtOs_6glossa6errors5testss_16test_parse_error
FNDA:1,_RNvNtNtCs14PW5HJOtOs_6glossa6errors5testss_19test_category_greek
FNDA:1,_RNvNtNtCs14PW5HJOtOs_6glossa6errors5testss_20test_undefined_error
FNDA:1,_RNvNtNtCs14PW5HJOtOs_6glossa6errors5testss_22test_parse_with_source
FNDA:1,_RINvMNtCs14PW5HJOtOs_6glossa6errorsNtB3_11GlossaError17parse_with_sourceReB18_EB5_
FNDA:11,_RINvMNtCs14PW5HJOtOs_6glossa6errorsNtB3_11GlossaError5parseNtNtCsauO83Ko6oyK_5alloc6string6StringEB5_
FNDA:1,_RINvMNtCs14PW5HJOtOs_6glossa6errorsNtB3_11GlossaError5parseReEB5_
FNDA:9,_RINvMNtCs14PW5HJOtOs_6glossa6errorsNtB3_11GlossaError8semanticNtNtCsauO83Ko6oyK_5alloc6string6StringEB5_
FNDA:74,_RINvMNtCs14PW5HJOtOs_6glossa6errorsNtB3_11GlossaError8semanticReEB5_
FNDA:2,_RINvMNtCs14PW5HJOtOs_6glossa6errorsNtB3_11GlossaError9undefinedNtCs36B3dAHZGhW_8smol_str7SmolStrEB5_
FNDA:3,_RINvMNtCs14PW5HJOtOs_6glossa6errorsNtB3_11GlossaError9undefinedNtNtCsauO83Ko6oyK_5alloc6string6StringEB5_
FNDA:1,_RINvMNtCs14PW5HJOtOs_6glossa6errorsNtB3_11GlossaError9undefinedReEB5_
FNDA:1,_RINvMNtCs4a0SCptkpqe_6glossa6errorsNtB3_11GlossaError5parseReECs1YHKByXDsUn_14razor_coverage
FNDA:1,_RINvMNtCs4a0SCptkpqe_6glossa6errorsNtB3_11GlossaError7codegenReECs1YHKByXDsUn_14razor_coverage
FNDA:1,_RINvMNtCs4a0SCptkpqe_6glossa6errorsNtB3_11GlossaError9agreementReECs1YHKByXDsUn_14razor_coverage
FNF:11
FNH:11
DA:178,2795
DA:179,2795
DA:180,2795
DA:181,2795
DA:182,2795
DA:183,2795
DA:184,2795
DA:205,1
DA:206,1
DA:207,1
DA:208,1
DA:209,1
DA:210,1
DA:211,1
DA:212,1
DA:213,1
DA:214,1
DA:215,1
DA:230,1039
DA:231,1039
DA:232,1039
DA:233,1039
DA:234,1039
DA:251,8
DA:252,8
DA:253,8
DA:269,1
DA:270,1
DA:271,1
DA:272,1
DA:273,1
DA:290,1
DA:291,1
DA:292,1
DA:293,1
DA:294,1
DA:297,8
DA:298,8
DA:299,1
DA:300,2
DA:301,1
DA:302,1
DA:303,1
DA:304,1
DA:305,1
DA:307,8
DA:321,1
DA:322,1
DA:323,1
DA:324,1
DA:327,1
DA:328,1
DA:329,1
DA:330,1
DA:331,1
DA:334,1
DA:335,1
DA:336,1
DA:337,1
DA:340,1
DA:342,1
DA:343,1
DA:345,1
DA:346,1
DA:347,1
DA:348,1
DA:350,1
DA:351,1
DA:352,1
DA:354,0
DA:356,1
BRF:0
BRH:0
LF:71
LH:70
end_of_record
SF:/app/src/main.rs
FN:16,_RNvCs105BQx7q4Nu_6glossa4main
FN:16,_RNvCsfRf1y5FmmIS_6glossa4main
FNDA:2,_RNvCs105BQx7q4Nu_6glossa4main
FNDA:0,_RNvCsfRf1y5FmmIS_6glossa4main
FNF:1
FNH:1
DA:16,2
DA:17,2
DA:20,2
DA:21,0
DA:22,2
DA:24,2
DA:25,1
DA:26,1
DA:34,0
DA:39,0
DA:40,0
DA:43,0
DA:44,0
DA:47,0
DA:48,0
DA:51,0
DA:52,0
DA:55,0
DA:56,0
DA:59,0
DA:60,0
DA:63,1
DA:64,1
DA:67,0
DA:73,0
DA:74,0
DA:80,0
DA:86,0
DA:87,0
DA:93,0
DA:99,0
DA:100,0
DA:106,0
DA:112,0
DA:113,0
DA:119,0
DA:125,0
DA:126,0
DA:132,0
DA:138,0
DA:139,0
DA:145,0
DA:151,0
DA:152,0
DA:158,0
DA:164,0
DA:165,0
DA:176,0
DA:181,0
DA:186,0
DA:191,0
DA:197,0
DA:198,0
DA:205,0
DA:209,0
DA:210,2
BRF:0
BRH:0
LF:56
LH:10
end_of_record
SF:/app/src/morphology/conjugation.rs
FN:699,_RNvNtNtCs4a0SCptkpqe_6glossa10morphology11conjugation10infinitive
FN:332,_RNvNtNtCs4a0SCptkpqe_6glossa10morphology11conjugation12analyze_verb
FN:152,_RNvNtNtCs4a0SCptkpqe_6glossa10morphology11conjugation13strip_augment
FN:528,_RNvNtNtCs4a0SCptkpqe_6glossa10morphology11conjugation16analyze_verb_all
FN:485,_RNvNtNtCs4a0SCptkpqe_6glossa10morphology11conjugation18match_verb_endings
FN:575,_RNvNtNtCs4a0SCptkpqe_6glossa10morphology11conjugation21analyze_verb_all_into
FN:537,_RNvNtNtCs4a0SCptkpqe_6glossa10morphology11conjugation22try_analyze_infinitive
FN:444,_RNvNtNtCs4a0SCptkpqe_6glossa10morphology11conjugation23try_conjugation_pattern
FN:401,_RNvNtNtCs4a0SCptkpqe_6glossa10morphology11conjugation27try_conjugation_pattern_all
FN:656,_RNvNtNtCs4a0SCptkpqe_6glossa10morphology11conjugation9conjugate
FN:507,_RINvNtNtCs4a0SCptkpqe_6glossa10morphology11conjugation22match_verb_endings_allNCNvB2_27try_conjugation_pattern_all0EB6_
FN:515,_RNCINvNtNtCs4a0SCptkpqe_6glossa10morphology11conjugation22match_verb_endings_allNCNvB4_27try_conjugation_pattern_all0Es_0B8_
FN:494,_RNCNvNtNtCs4a0SCptkpqe_6glossa10morphology11conjugation18match_verb_endingss_0B7_
FN:605,_RNCNvNtNtCs4a0SCptkpqe_6glossa10morphology11conjugation21analyze_verb_all_into0B7_
FN:406,_RNCNvNtNtCs4a0SCptkpqe_6glossa10morphology11conjugation27try_conjugation_pattern_all0B7_
FN:795,_RNvNtNtNtCs14PW5HJOtOs_6glossa10morphology11conjugation5testss_14test_conjugate
FN:778,_RNvNtNtNtCs14PW5HJOtOs_6glossa10morphology11conjugation5testss_15test_infinitive
FN:734,_RNvNtNtNtCs14PW5HJOtOs_6glossa10morphology11conjugation5testss_18test_aorist_active
FN:821,_RNvNtNtNtCs14PW5HJOtOs_6glossa10morphology11conjugation5testss_20test_infinitive_form
FN:852,_RNvNtNtNtCs14PW5HJOtOs_6glossa10morphology11conjugation5testss_21test_constants_sorted
FN:785,_RNvNtNtNtCs14PW5HJOtOs_6glossa10morphology11conjugation5testss_21test_eimi_subjunctive
FN:744,_RNvNtNtNtCs14PW5HJOtOs_6glossa10morphology11conjugation5testss_22test_augment_stripping
FN:757,_RNvNtNtNtCs14PW5HJOtOs_6glossa10morphology11conjugation5testss_27test_strip_augment_function
FN:725,_RNvNtNtNtCs14PW5HJOtOs_6glossa10morphology11conjugation5testss_30test_present_active_imperative
FN:712,_RNvNtNtNtCs14PW5HJOtOs_6glossa10morphology11conjugation5testss_30test_present_active_indicative
FN:827,_RNvNtNtNtCs14PW5HJOtOs_6glossa10morphology11conjugation5testss_32test_analyze_verb_coverage_forms
FN:888,_RNvNtNtNtCs14PW5HJOtOs_6glossa10morphology11conjugation5testss_35test_analyze_verb_all_discrepancies
FN:894,_RNCNvNtNtNtCs14PW5HJOtOs_6glossa10morphology11conjugation5testss_35test_analyze_verb_all_discrepancies0B9_
FN:919,_RNCNvNtNtNtCs14PW5HJOtOs_6glossa10morphology11conjugation5testss_35test_analyze_verb_all_discrepanciess0_0B9_
FN:913,_RNCNvNtNtNtCs14PW5HJOtOs_6glossa10morphology11conjugation5testss_35test_analyze_verb_all_discrepanciess_0B9_
FN:507,_RINvNtNtCs14PW5HJOtOs_6glossa10morphology11conjugation22match_verb_endings_allNCNvB2_27try_conjugation_pattern_all0EB6_
FN:515,_RNCINvNtNtCs14PW5HJOtOs_6glossa10morphology11conjugation22match_verb_endings_allNCNvB4_27try_conjugation_pattern_all0Es_0B8_
FN:494,_RNCNvNtNtCs14PW5HJOtOs_6glossa10morphology11conjugation18match_verb_endingss_0B7_
FN:605,_RNCNvNtNtCs14PW5HJOtOs_6glossa10morphology11conjugation21analyze_verb_all_into0B7_
FN:406,_RNCNvNtNtCs14PW5HJOtOs_6glossa10morphology11conjugation27try_conjugation_pattern_all0B7_
FN:699,_RNvNtNtCs14PW5HJOtOs_6glossa10morphology11conjugation10infinitive
FN:332,_RNvNtNtCs14PW5HJOtOs_6glossa10morphology11conjugation12analyze_verb
FN:152,_RNvNtNtCs14PW5HJOtOs_6glossa10morphology11conjugation13strip_augment
FN:528,_RNvNtNtCs14PW5HJOtOs_6glossa10morphology11conjugation16analyze_verb_all
FN:485,_RNvNtNtCs14PW5HJOtOs_6glossa10morphology11conjugation18match_verb_endings
FN:575,_RNvNtNtCs14PW5HJOtOs_6glossa10morphology11conjugation21analyze_verb_all_into
FN:537,_RNvNtNtCs14PW5HJOtOs_6glossa10morphology11conjugation22try_analyze_infinitive
FN:444,_RNvNtNtCs14PW5HJOtOs_6glossa10morphology11conjugation23try_conjugation_pattern
FN:401,_RNvNtNtCs14PW5HJOtOs_6glossa10morphology11conjugation27try_conjugation_pattern_all
FN:656,_RNvNtNtCs14PW5HJOtOs_6glossa10morphology11conjugation9conjugate
FNDA:0,_RNvNtNtCs4a0SCptkpqe_6glossa10morphology11conjugation10infinitive
FNDA:259,_RNvNtNtCs4a0SCptkpqe_6glossa10morphology11conjugation12analyze_verb
FNDA:0,_RNvNtNtCs4a0SCptkpqe_6glossa10morphology11conjugation13strip_augment
FNDA:0,_RNvNtNtCs4a0SCptkpqe_6glossa10morphology11conjugation16analyze_verb_all
FNDA:2069,_RNvNtNtCs4a0SCptkpqe_6glossa10morphology11conjugation18match_verb_endings
FNDA:4759,_RNvNtNtCs4a0SCptkpqe_6glossa10morphology11conjugation21analyze_verb_all_into
FNDA:9518,_RNvNtNtCs4a0SCptkpqe_6glossa10morphology11conjugation22try_analyze_infinitive
FNDA:2069,_RNvNtNtCs4a0SCptkpqe_6glossa10morphology11conjugation23try_conjugation_pattern
FNDA:38072,_RNvNtNtCs4a0SCptkpqe_6glossa10morphology11conjugation27try_conjugation_pattern_all
FNDA:0,_RNvNtNtCs4a0SCptkpqe_6glossa10morphology11conjugation9conjugate
FNDA:38072,_RINvNtNtCs4a0SCptkpqe_6glossa10morphology11conjugation22match_verb_endings_allNCNvB2_27try_conjugation_pattern_all0EB6_
FNDA:835,_RNCINvNtNtCs4a0SCptkpqe_6glossa10morphology11conjugation22match_verb_endings_allNCNvB4_27try_conjugation_pattern_all0Es_0B8_
FNDA:1,_RNCNvNtNtCs4a0SCptkpqe_6glossa10morphology11conjugation18match_verb_endingss_0B7_
FNDA:191,_RNCNvNtNtCs4a0SCptkpqe_6glossa10morphology11conjugation21analyze_verb_all_into0B7_
FNDA:835,_RNCNvNtNtCs4a0SCptkpqe_6glossa10morphology11conjugation27try_conjugation_pattern_all0B7_
FNDA:1,_RNvNtNtNtCs14PW5HJOtOs_6glossa10morphology11conjugation5testss_14test_conjugate
FNDA:1,_RNvNtNtNtCs14PW5HJOtOs_6glossa10morphology11conjugation5testss_15test_infinitive
FNDA:1,_RNvNtNtNtCs14PW5HJOtOs_6glossa10morphology11conjugation5testss_18test_aorist_active
FNDA:1,_RNvNtNtNtCs14PW5HJOtOs_6glossa10morphology11conjugation5testss_20test_infinitive_form
FNDA:1,_RNvNtNtNtCs14PW5HJOtOs_6glossa10morphology11conjugation5testss_21test_constants_sorted
FNDA:1,_RNvNtNtNtCs14PW5HJOtOs_6glossa10morphology11conjugation5testss_21test_eimi_subjunctive
FNDA:1,_RNvNtNtNtCs14PW5HJOtOs_6glossa10morphology11conjugation5testss_22test_augment_stripping
FNDA:1,_RNvNtNtNtCs14PW5HJOtOs_6glossa10morphology11conjugation5testss_27test_strip_augment_function
FNDA:1,_RNvNtNtNtCs14PW5HJOtOs_6glossa10morphology11conjugation5testss_30test_present_active_imperative
FNDA:1,_RNvNtNtNtCs14PW5HJOtOs_6glossa10morphology11conjugation5testss_30test_present_active_indicative
FNDA:1,_RNvNtNtNtCs14PW5HJOtOs_6glossa10morphology11conjugation5testss_32test_analyze_verb_coverage_forms
FNDA:1,_RNvNtNtNtCs14PW5HJOtOs_6glossa10morphology11conjugation5testss_35test_analyze_verb_all_discrepancies
FNDA:2,_RNCNvNtNtNtCs14PW5HJOtOs_6glossa10morphology11conjugation5testss_35test_analyze_verb_all_discrepancies0B9_
FNDA:1,_RNCNvNtNtNtCs14PW5HJOtOs_6glossa10morphology11conjugation5testss_35test_analyze_verb_all_discrepanciess0_0B9_
FNDA:1,_RNCNvNtNtNtCs14PW5HJOtOs_6glossa10morphology11conjugation5testss_35test_analyze_verb_all_discrepanciess_0B9_
FNDA:33464,_RINvNtNtCs14PW5HJOtOs_6glossa10morphology11conjugation22match_verb_endings_allNCNvB2_27try_conjugation_pattern_all0EB6_
FNDA:4116,_RNCINvNtNtCs14PW5HJOtOs_6glossa10morphology11conjugation22match_verb_endings_allNCNvB4_27try_conjugation_pattern_all0Es_0B8_
FNDA:9,_RNCNvNtNtCs14PW5HJOtOs_6glossa10morphology11conjugation18match_verb_endingss_0B7_
FNDA:1354,_RNCNvNtNtCs14PW5HJOtOs_6glossa10morphology11conjugation21analyze_verb_all_into0B7_
FNDA:4116,_RNCNvNtNtCs14PW5HJOtOs_6glossa10morphology11conjugation27try_conjugation_pattern_all0B7_
FNDA:2,_RNvNtNtCs14PW5HJOtOs_6glossa10morphology11conjugation10infinitive
FNDA:12,_RNvNtNtCs14PW5HJOtOs_6glossa10morphology11conjugation12analyze_verb
FNDA:14,_RNvNtNtCs14PW5HJOtOs_6glossa10morphology11conjugation13strip_augment
FNDA:2,_RNvNtNtCs14PW5HJOtOs_6glossa10morphology11conjugation16analyze_verb_all
FNDA:48,_RNvNtNtCs14PW5HJOtOs_6glossa10morphology11conjugation18match_verb_endings
FNDA:4183,_RNvNtNtCs14PW5HJOtOs_6glossa10morphology11conjugation21analyze_verb_all_into
FNDA:8366,_RNvNtNtCs14PW5HJOtOs_6glossa10morphology11conjugation22try_analyze_infinitive
FNDA:48,_RNvNtNtCs14PW5HJOtOs_6glossa10morphology11conjugation23try_conjugation_pattern
FNDA:33464,_RNvNtNtCs14PW5HJOtOs_6glossa10morphology11conjugation27try_conjugation_pattern_all
FNDA:2,_RNvNtNtCs14PW5HJOtOs_6glossa10morphology11conjugation9conjugate
FNF:30
FNH:30
DA:152,14
DA:154,53
DA:155,53
DA:156,2
DA:157,2
DA:158,51
DA:162,43
DA:163,43
DA:164,2
DA:165,41
DA:170,10
DA:173,6
DA:174,6
DA:175,0
DA:176,4
DA:180,4
DA:183,1
DA:184,1
DA:185,0
DA:186,3
DA:189,3
DA:190,1
DA:192,1
DA:193,2
DA:200,2
DA:201,14
DA:332,271
DA:333,271
DA:334,271
DA:338,1893
DA:339,1893
DA:340,1
DA:341,1
DA:342,1
DA:343,1
DA:344,1
DA:345,1
DA:346,1
DA:347,1
DA:348,1
DA:349,1
DA:350,1
DA:351,1
DA:352,1892
DA:356,2117
DA:357,2117
DA:358,10
DA:359,2107
DA:363,260
DA:364,1
DA:366,1
DA:367,1
DA:368,1
DA:369,1
DA:370,1
DA:371,1
DA:372,1
DA:373,1
DA:374,1
DA:375,1
DA:376,1
DA:377,1
DA:378,259
DA:381,259
DA:382,1
DA:384,1
DA:385,1
DA:386,1
DA:387,1
DA:388,1
DA:389,1
DA:390,1
DA:391,1
DA:392,1
DA:393,1
DA:394,1
DA:395,1
DA:396,258
DA:398,258
DA:399,271
DA:401,71536
DA:402,71536
DA:403,71536
DA:404,71536
DA:405,71536
DA:406,71536
DA:408,4951
DA:409,4946
DA:410,2
DA:411,3
DA:415,4951
DA:416,4951
DA:417,4951
DA:420,4951
DA:421,4946
DA:422,3084
DA:424,3084
DA:426,1867
DA:429,4951
DA:430,4951
DA:431,4951
DA:432,4951
DA:433,4951
DA:434,4951
DA:435,4951
DA:436,4951
DA:437,4951
DA:438,4951
DA:439,4951
DA:440,4951
DA:441,4951
DA:442,71536
DA:444,2117
DA:445,2117
DA:447,10
DA:450,5
DA:451,1
DA:453,4
DA:457,3
DA:458,3
DA:463,2
DA:464,2
DA:468,10
DA:469,10
DA:470,10
DA:471,10
DA:472,10
DA:473,10
DA:474,10
DA:475,10
DA:476,10
DA:477,10
DA:478,10
DA:479,10
DA:480,2117
DA:485,2117
DA:486,2117
DA:487,2117
DA:488,2117
DA:489,2117
DA:490,2117
DA:491,2117
DA:492,2117
DA:494,10
DA:495,10
DA:496,10
DA:497,10
DA:499,0
DA:501,10
DA:503,2117
DA:504,2117
DA:507,71536
DA:508,71536
DA:509,71536
DA:511,71536
DA:512,71536
DA:513,71536
DA:515,4951
DA:516,4951
DA:517,4951
DA:518,4951
DA:520,71536
DA:528,2
DA:529,2
DA:530,2
DA:531,2
DA:532,2
DA:537,17884
DA:538,17884
DA:539,17884
DA:540,17884
DA:541,17884
DA:542,17884
DA:543,17884
DA:544,3
DA:545,3
DA:546,3
DA:547,3
DA:548,3
DA:549,3
DA:550,3
DA:551,3
DA:552,3
DA:553,3
DA:554,3
DA:555,3
DA:556,3
DA:557,3
DA:558,17881
DA:559,17884
DA:575,8942
DA:576,8942
DA:580,62594
DA:581,62594
DA:582,14
DA:583,14
DA:584,14
DA:585,14
DA:586,14
DA:587,14
DA:588,14
DA:589,14
DA:590,14
DA:591,14
DA:592,14
DA:593,14
DA:594,62580
DA:597,71536
DA:598,71536
DA:599,71536
DA:601,8942
DA:602,8942
DA:605,8942
DA:606,1545
DA:607,1545
DA:608,1545
DA:609,1545
DA:612,8942
DA:613,8942
DA:614,1545
DA:615,1545
DA:616,1545
DA:617,1545
DA:618,1545
DA:619,1545
DA:620,1542
DA:621,0
DA:622,0
DA:623,0
DA:626,1545
DA:627,1545
DA:628,0
DA:629,1545
DA:630,1545
DA:631,0
DA:633,1545
DA:634,7397
DA:635,8942
DA:656,2
DA:657,2
DA:658,2
DA:659,2
DA:660,2
DA:661,2
DA:662,2
DA:663,2
DA:664,2
DA:665,1
DA:666,1
DA:667,0
DA:668,0
DA:669,0
DA:672,11
DA:673,11
DA:674,2
DA:675,9
DA:678,0
DA:679,2
DA:699,2
DA:700,2
DA:701,1
DA:702,1
DA:703,0
DA:705,2
DA:712,1
DA:713,1
DA:714,1
DA:715,1
DA:716,1
DA:717,1
DA:719,1
DA:720,1
DA:721,1
DA:722,1
DA:725,1
DA:726,1
DA:727,1
DA:728,1
DA:729,1
DA:730,1
DA:731,1
DA:734,1
DA:735,1
DA:736,1
DA:737,1
DA:738,1
DA:740,1
DA:741,1
DA:744,1
DA:747,1
DA:748,1
DA:749,1
DA:752,1
DA:753,1
DA:754,1
DA:757,1
DA:758,1
DA:759,1
DA:760,1
DA:761,1
DA:764,1
DA:765,1
DA:768,1
DA:769,1
DA:774,1
DA:775,1
DA:778,1
DA:779,1
DA:780,1
DA:781,1
DA:782,1
DA:785,1
DA:787,1
DA:788,1
DA:789,1
DA:790,1
DA:791,1
DA:792,1
DA:795,1
DA:796,1
DA:797,1
DA:798,1
DA:799,1
DA:800,1
DA:801,1
DA:802,1
DA:803,1
DA:807,1
DA:808,1
DA:809,1
DA:810,1
DA:811,1
DA:812,1
DA:813,1
DA:814,1
DA:818,1
DA:821,1
DA:822,1
DA:823,1
DA:824,1
DA:827,1
DA:829,1
DA:830,1
DA:831,1
DA:832,1
DA:835,1
DA:836,1
DA:837,1
DA:840,1
DA:841,1
DA:842,1
DA:845,1
DA:846,1
DA:847,1
DA:848,1
DA:849,1
DA:852,1
DA:855,1
DA:856,1
DA:857,1
DA:858,1
DA:859,1
DA:860,1
DA:861,1
DA:862,1
DA:863,1
DA:866,8
DA:867,40
DA:868,40
DA:869,40
DA:870,40
DA:871,40
DA:872,40
DA:873,40
DA:879,0
DA:885,1
DA:888,1
DA:890,1
DA:891,1
DA:892,1
DA:893,1
DA:894,2
DA:895,1
DA:896,1
DA:899,1
DA:900,1
DA:904,0
DA:908,1
DA:909,1
DA:910,1
DA:913,1
DA:914,0
DA:915,0
DA:916,0
DA:917,1
DA:919,1
DA:920,1
DA:921,1
BRF:0
BRH:0
LF:403
LH:383
end_of_record
SF:/app/src/morphology/declension.rs
FN:171,_RNvNtNtCs4a0SCptkpqe_6glossa10morphology10declension12analyze_noun
FN:206,_RNvNtNtCs4a0SCptkpqe_6glossa10morphology10declension16analyze_noun_all
FN:215,_RNvNtNtCs4a0SCptkpqe_6glossa10morphology10declension21analyze_noun_all_into
FN:348,_RNvNtNtCs4a0SCptkpqe_6glossa10morphology10declension7decline
FN:300,_RNvNtNtCs4a0SCptkpqe_6glossa10morphology10declension8get_stem
FN:184,_RINvNtNtCs4a0SCptkpqe_6glossa10morphology10declension17match_endings_allNCNvB2_21analyze_noun_all_into0EB6_
FN:192,_RNCINvNtNtCs4a0SCptkpqe_6glossa10morphology10declension17match_endings_allNCNvB4_21analyze_noun_all_into0Es_0B8_
FN:178,_RNCNvNtNtCs4a0SCptkpqe_6glossa10morphology10declension12analyze_noun0B7_
FN:219,_RNCNvNtNtCs4a0SCptkpqe_6glossa10morphology10declension21analyze_noun_all_into0B7_
FN:256,_RNCNvNtNtCs4a0SCptkpqe_6glossa10morphology10declension21analyze_noun_all_intos_0B7_
FN:171,_RNvNtNtCs14PW5HJOtOs_6glossa10morphology10declension12analyze_noun
FN:206,_RNvNtNtCs14PW5HJOtOs_6glossa10morphology10declension16analyze_noun_all
FN:215,_RNvNtNtCs14PW5HJOtOs_6glossa10morphology10declension21analyze_noun_all_into
FN:348,_RNvNtNtCs14PW5HJOtOs_6glossa10morphology10declension7decline
FN:300,_RNvNtNtCs14PW5HJOtOs_6glossa10morphology10declension8get_stem
FN:607,_RNCNvNtNtNtCs14PW5HJOtOs_6glossa10morphology10declension5testss_27test_first_declension_alpha0B9_
FN:581,_RNCNvNtNtNtCs14PW5HJOtOs_6glossa10morphology10declension5testss_31test_analyze_noun_all_ambiguity0B9_
FN:589,_RNCNvNtNtNtCs14PW5HJOtOs_6glossa10morphology10declension5testss_31test_analyze_noun_all_ambiguitys_0B9_
FN:475,_RNCNvNtNtNtCs14PW5HJOtOs_6glossa10morphology10declension5testss_36test_second_declension_neuter_plural0B9_
FN:559,_RNvNtNtNtCs14PW5HJOtOs_6glossa10morphology10declension5testss_13test_get_stem
FN:641,_RNvNtNtNtCs14PW5HJOtOs_6glossa10morphology10declension5testss_18test_decline_table
FN:387,_RNvNtNtNtCs14PW5HJOtOs_6glossa10morphology10declension5testss_21test_constants_sorted
FN:762,_RNvNtNtNtCs14PW5HJOtOs_6glossa10morphology10declension5testss_24test_decline_fallthrough
FN:513,_RNvNtNtNtCs14PW5HJOtOs_6glossa10morphology10declension5testss_24test_third_declension_ma
FN:503,_RNvNtNtNtCs14PW5HJOtOs_6glossa10morphology10declension5testss_25test_first_declension_eta
FN:621,_RNvNtNtNtCs14PW5HJOtOs_6glossa10morphology10declension5testss_27test_decline_alpha_mismatch
FN:601,_RNvNtNtNtCs14PW5HJOtOs_6glossa10morphology10declension5testss_27test_first_declension_alpha
FN:525,_RNvNtNtNtCs14PW5HJOtOs_6glossa10morphology10declension5testss_29test_decline_second_masculine
FN:435,_RNvNtNtNtCs14PW5HJOtOs_6glossa10morphology10declension5testss_29test_second_declension_dative
FN:456,_RNvNtNtNtCs14PW5HJOtOs_6glossa10morphology10declension5testss_29test_second_declension_plural
FN:566,_RNvNtNtNtCs14PW5HJOtOs_6glossa10morphology10declension5testss_31test_analyze_noun_all_ambiguity
FN:427,_RNvNtNtNtCs14PW5HJOtOs_6glossa10morphology10declension5testss_31test_second_declension_genitive
FN:449,_RNvNtNtNtCs14PW5HJOtOs_6glossa10morphology10declension5testss_31test_second_declension_vocative
FN:442,_RNvNtNtNtCs14PW5HJOtOs_6glossa10morphology10declension5testss_33test_second_declension_accusative
FN:419,_RNvNtNtNtCs14PW5HJOtOs_6glossa10morphology10declension5testss_33test_second_declension_nominative
FN:467,_RNvNtNtNtCs14PW5HJOtOs_6glossa10morphology10declension5testss_36test_second_declension_neuter_plural
FN:490,_RNvNtNtNtCs14PW5HJOtOs_6glossa10morphology10declension5testss_38test_analyze_noun_disambiguation_alpha
FN:184,_RINvNtNtCs14PW5HJOtOs_6glossa10morphology10declension17match_endings_allNCNvB2_21analyze_noun_all_into0EB6_
FN:192,_RNCINvNtNtCs14PW5HJOtOs_6glossa10morphology10declension17match_endings_allNCNvB4_21analyze_noun_all_into0Es_0B8_
FN:178,_RNCNvNtNtCs14PW5HJOtOs_6glossa10morphology10declension12analyze_noun0B7_
FN:219,_RNCNvNtNtCs14PW5HJOtOs_6glossa10morphology10declension21analyze_noun_all_into0B7_
FN:256,_RNCNvNtNtCs14PW5HJOtOs_6glossa10morphology10declension21analyze_noun_all_intos_0B7_
FNDA:258,_RNvNtNtCs4a0SCptkpqe_6glossa10morphology10declension12analyze_noun
FNDA:258,_RNvNtNtCs4a0SCptkpqe_6glossa10morphology10declension16analyze_noun_all
FNDA:5017,_RNvNtNtCs4a0SCptkpqe_6glossa10morphology10declension21analyze_noun_all_into
FNDA:0,_RNvNtNtCs4a0SCptkpqe_6glossa10morphology10declension7decline
FNDA:256,_RNvNtNtCs4a0SCptkpqe_6glossa10morphology10declension8get_stem
FNDA:25085,_RINvNtNtCs4a0SCptkpqe_6glossa10morphology10declension17match_endings_allNCNvB2_21analyze_noun_all_into0EB6_
FNDA:11210,_RNCINvNtNtCs4a0SCptkpqe_6glossa10morphology10declension17match_endings_allNCNvB4_21analyze_noun_all_into0Es_0B8_
FNDA:0,_RNCNvNtNtCs4a0SCptkpqe_6glossa10morphology10declension12analyze_noun0B7_
FNDA:11210,_RNCNvNtNtCs4a0SCptkpqe_6glossa10morphology10declension21analyze_noun_all_into0B7_
FNDA:16524,_RNCNvNtNtCs4a0SCptkpqe_6glossa10morphology10declension21analyze_noun_all_intos_0B7_
FNDA:12,_RNvNtNtCs14PW5HJOtOs_6glossa10morphology10declension12analyze_noun
FNDA:15,_RNvNtNtCs14PW5HJOtOs_6glossa10morphology10declension16analyze_noun_all
FNDA:4196,_RNvNtNtCs14PW5HJOtOs_6glossa10morphology10declension21analyze_noun_all_into
FNDA:14,_RNvNtNtCs14PW5HJOtOs_6glossa10morphology10declension7decline
FNDA:3,_RNvNtNtCs14PW5HJOtOs_6glossa10morphology10declension8get_stem
FNDA:1,_RNCNvNtNtNtCs14PW5HJOtOs_6glossa10morphology10declension5testss_27test_first_declension_alpha0B9_
FNDA:2,_RNCNvNtNtNtCs14PW5HJOtOs_6glossa10morphology10declension5testss_31test_analyze_noun_all_ambiguity0B9_
FNDA:1,_RNCNvNtNtNtCs14PW5HJOtOs_6glossa10morphology10declension5testss_31test_analyze_noun_all_ambiguitys_0B9_
FNDA:2,_RNCNvNtNtNtCs14PW5HJOtOs_6glossa10morphology10declension5testss_36test_second_declension_neuter_plural0B9_
FNDA:1,_RNvNtNtNtCs14PW5HJOtOs_6glossa10morphology10declension5testss_13test_get_stem
FNDA:1,_RNvNtNtNtCs14PW5HJOtOs_6glossa10morphology10declension5testss_18test_decline_table
FNDA:1,_RNvNtNtNtCs14PW5HJOtOs_6glossa10morphology10declension5testss_21test_constants_sorted
FNDA:1,_RNvNtNtNtCs14PW5HJOtOs_6glossa10morphology10declension5testss_24test_decline_fallthrough
FNDA:1,_RNvNtNtNtCs14PW5HJOtOs_6glossa10morphology10declension5testss_24test_third_declension_ma
FNDA:1,_RNvNtNtNtCs14PW5HJOtOs_6glossa10morphology10declension5testss_25test_first_declension_eta
FNDA:1,_RNvNtNtNtCs14PW5HJOtOs_6glossa10morphology10declension5testss_27test_decline_alpha_mismatch
FNDA:1,_RNvNtNtNtCs14PW5HJOtOs_6glossa10morphology10declension5testss_27test_first_declension_alpha
FNDA:1,_RNvNtNtNtCs14PW5HJOtOs_6glossa10morphology10declension5testss_29test_decline_second_masculine
FNDA:1,_RNvNtNtNtCs14PW5HJOtOs_6glossa10morphology10declension5testss_29test_second_declension_dative
FNDA:1,_RNvNtNtNtCs14PW5HJOtOs_6glossa10morphology10declension5testss_29test_second_declension_plural
FNDA:1,_RNvNtNtNtCs14PW5HJOtOs_6glossa10morphology10declension5testss_31test_analyze_noun_all_ambiguity
FNDA:1,_RNvNtNtNtCs14PW5HJOtOs_6glossa10morphology10declension5testss_31test_second_declension_genitive
FNDA:1,_RNvNtNtNtCs14PW5HJOtOs_6glossa10morphology10declension5testss_31test_second_declension_vocative
FNDA:1,_RNvNtNtNtCs14PW5HJOtOs_6glossa10morphology10declension5testss_33test_second_declension_accusative
FNDA:1,_RNvNtNtNtCs14PW5HJOtOs_6glossa10morphology10declension5testss_33test_second_declension_nominative
FNDA:1,_RNvNtNtNtCs14PW5HJOtOs_6glossa10morphology10declension5testss_36test_second_declension_neuter_plural
FNDA:1,_RNvNtNtNtCs14PW5HJOtOs_6glossa10morphology10declension5testss_38test_analyze_noun_disambiguation_alpha
FNDA:20980,_RINvNtNtCs14PW5HJOtOs_6glossa10morphology10declension17match_endings_allNCNvB2_21analyze_noun_all_into0EB6_
FNDA:4321,_RNCINvNtNtCs14PW5HJOtOs_6glossa10morphology10declension17match_endings_allNCNvB4_21analyze_noun_all_into0Es_0B8_
FNDA:31,_RNCNvNtNtCs14PW5HJOtOs_6glossa10morphology10declension12analyze_noun0B7_
FNDA:4321,_RNCNvNtNtCs14PW5HJOtOs_6glossa10morphology10declension21analyze_noun_all_into0B7_
FNDA:1616,_RNCNvNtNtCs14PW5HJOtOs_6glossa10morphology10declension21analyze_noun_all_intos_0B7_
FNF:32
FNH:32
DA:171,270
DA:172,270
DA:178,270
DA:180,270
DA:181,270
DA:184,46065
DA:185,46065
DA:186,46065
DA:188,46065
DA:189,46065
DA:190,46065
DA:192,15531
DA:193,15531
DA:194,15531
DA:195,15531
DA:197,46065
DA:206,273
DA:207,273
DA:208,273
DA:209,273
DA:210,273
DA:215,9213
DA:216,9213
DA:218,46065
DA:219,46065
DA:221,15531
DA:222,15531
DA:229,15531
DA:232,15531
DA:233,8414
DA:235,7525
DA:237,8006
DA:240,15531
DA:241,15531
DA:242,15531
DA:243,15531
DA:244,15531
DA:245,15531
DA:246,15531
DA:247,15531
DA:248,15531
DA:249,15531
DA:250,15531
DA:251,15531
DA:252,15531
DA:256,18140
DA:257,18140
DA:258,18140
DA:259,18140
DA:260,18140
DA:263,9213
DA:264,9213
DA:265,3333
DA:266,9076
DA:267,9076
DA:268,9076
DA:269,9076
DA:270,9076
DA:271,5748
DA:272,4054
DA:273,289
DA:276,9076
DA:277,9076
DA:278,0
DA:279,9076
DA:280,9076
DA:281,0
DA:283,3333
DA:284,5880
DA:285,9213
DA:300,259
DA:301,259
DA:303,257
DA:304,1
DA:305,256
DA:306,0
DA:308,256
DA:312,1
DA:313,1
DA:314,0
DA:315,0
DA:317,0
DA:321,1
DA:322,1
DA:324,0
DA:328,259
DA:348,14
DA:349,14
DA:350,14
DA:351,14
DA:352,14
DA:353,14
DA:354,14
DA:355,14
DA:356,4
DA:357,1
DA:362,7
DA:363,5
DA:366,2
DA:369,1
DA:370,1
DA:373,50
DA:374,50
DA:375,13
DA:376,37
DA:379,0
DA:380,14
DA:387,1
DA:389,1
DA:390,1
DA:391,1
DA:392,1
DA:393,1
DA:394,1
DA:397,5
DA:398,40
DA:399,40
DA:400,40
DA:401,40
DA:402,40
DA:403,40
DA:404,40
DA:410,0
DA:416,1
DA:419,1
DA:420,1
DA:421,1
DA:422,1
DA:423,1
DA:424,1
DA:427,1
DA:428,1
DA:429,1
DA:430,1
DA:431,1
DA:432,1
DA:435,1
DA:436,1
DA:437,1
DA:438,1
DA:439,1
DA:442,1
DA:443,1
DA:444,1
DA:445,1
DA:446,1
DA:449,1
DA:450,1
DA:451,1
DA:452,1
DA:453,1
DA:456,1
DA:457,1
DA:458,1
DA:459,1
DA:461,1
DA:462,1
DA:463,1
DA:464,1
DA:467,1
DA:473,1
DA:475,2
DA:476,2
DA:477,2
DA:478,1
DA:479,1
DA:480,1
DA:481,2
DA:483,1
DA:484,1
DA:487,1
DA:490,1
DA:495,1
DA:497,1
DA:498,1
DA:499,1
DA:500,1
DA:503,1
DA:504,1
DA:505,1
DA:506,1
DA:508,1
DA:509,1
DA:510,1
DA:513,1
DA:514,1
DA:515,1
DA:516,1
DA:518,1
DA:519,1
DA:521,1
DA:522,1
DA:525,1
DA:526,1
DA:527,1
DA:528,1
DA:529,1
DA:530,1
DA:531,1
DA:532,1
DA:536,1
DA:537,1
DA:538,1
DA:539,1
DA:540,1
DA:541,1
DA:542,1
DA:546,1
DA:547,1
DA:548,1
DA:549,1
DA:550,1
DA:551,1
DA:552,1
DA:556,1
DA:559,1
DA:560,1
DA:561,1
DA:562,1
DA:563,1
DA:566,1
DA:570,1
DA:573,1
DA:574,1
DA:576,0
DA:581,2
DA:582,2
DA:583,1
DA:584,1
DA:585,2
DA:586,1
DA:589,1
DA:590,1
DA:591,1
DA:592,1
DA:593,1
DA:594,1
DA:595,1
DA:598,1
DA:601,1
DA:605,1
DA:607,1
DA:608,1
DA:609,1
DA:610,1
DA:611,1
DA:612,1
DA:614,1
DA:615,1
DA:618,1
DA:621,1
DA:626,1
DA:627,1
DA:628,1
DA:629,1
DA:630,1
DA:631,1
DA:634,1
DA:638,1
DA:641,1
DA:653,1
DA:655,1
DA:656,1
DA:657,1
DA:658,1
DA:659,1
DA:660,1
DA:661,1
DA:662,1
DA:663,1
DA:664,1
DA:665,1
DA:666,1
DA:667,1
DA:668,1
DA:669,1
DA:670,1
DA:671,1
DA:672,1
DA:674,1
DA:675,1
DA:676,1
DA:677,1
DA:678,1
DA:679,1
DA:680,1
DA:681,1
DA:682,1
DA:683,1
DA:684,1
DA:685,1
DA:686,1
DA:687,1
DA:688,1
DA:689,1
DA:690,1
DA:691,1
DA:693,1
DA:694,1
DA:695,1
DA:696,1
DA:697,1
DA:698,1
DA:699,1
DA:700,1
DA:701,1
DA:704,1
DA:705,1
DA:706,1
DA:707,1
DA:708,1
DA:709,1
DA:710,1
DA:711,1
DA:712,1
DA:714,1
DA:715,1
DA:716,1
DA:717,1
DA:718,1
DA:719,1
DA:720,1
DA:721,1
DA:722,1
DA:724,1
DA:725,1
DA:726,1
DA:727,1
DA:728,1
DA:729,1
DA:730,1
DA:731,1
DA:732,1
DA:734,1
DA:735,1
DA:736,1
DA:737,1
DA:738,1
DA:739,1
DA:740,1
DA:741,1
DA:742,1
DA:745,9
DA:746,9
DA:747,9
DA:748,9
DA:749,9
DA:750,9
DA:751,9
DA:753,9
DA:759,1
DA:762,1
DA:768,1
DA:769,1
DA:770,1
DA:771,1
DA:772,1
DA:773,1
DA:774,1
DA:777,1
DA:778,1
BRF:0
BRH:0
LF:368
LH:356
end_of_record
SF:/app/src/morphology/disambiguation.rs
FN:57,_RNvMNtNtCs4a0SCptkpqe_6glossa10morphology14disambiguationNtB2_21DisambiguationContext12from_article
FN:95,_RNvMNtNtCs4a0SCptkpqe_6glossa10morphology14disambiguationNtB2_21DisambiguationContext14expecting_case
FN:41,_RNvMNtNtCs4a0SCptkpqe_6glossa10morphology14disambiguationNtB2_21DisambiguationContext3new
FN:78,_RNvMNtNtCs4a0SCptkpqe_6glossa10morphology14disambiguationNtB2_21DisambiguationContext9from_verb
FN:121,_RNvNtNtCs4a0SCptkpqe_6glossa10morphology14disambiguation12disambiguate
FN:223,_RNvNtNtCs4a0SCptkpqe_6glossa10morphology14disambiguation12resolve_best
FN:164,_RNvNtNtCs4a0SCptkpqe_6glossa10morphology14disambiguation14score_analysis
FN:248,_RNvNtNtCs4a0SCptkpqe_6glossa10morphology14disambiguation15analyze_article
FN:141,_RNCNvNtNtCs4a0SCptkpqe_6glossa10morphology14disambiguation12disambiguate0B7_
FN:57,_RNvMNtNtCs14PW5HJOtOs_6glossa10morphology14disambiguationNtB2_21DisambiguationContext12from_article
FN:95,_RNvMNtNtCs14PW5HJOtOs_6glossa10morphology14disambiguationNtB2_21DisambiguationContext14expecting_case
FN:402,_RNvNtNtNtCs14PW5HJOtOs_6glossa10morphology14disambiguation5testss_17test_verb_context
FN:391,_RNvNtNtNtCs14PW5HJOtOs_6glossa10morphology14disambiguation5testss_20test_article_context
FN:424,_RNvNtNtNtCs14PW5HJOtOs_6glossa10morphology14disambiguation5testss_29test_neuter_article_ambiguity
FN:439,_RNvNtNtNtCs14PW5HJOtOs_6glossa10morphology14disambiguation5testss_30test_analyze_article_all_forms
FN:372,_RNvNtNtNtCs14PW5HJOtOs_6glossa10morphology14disambiguation5testss_30test_disambiguate_with_article
FN:414,_RNvNtNtNtCs14PW5HJOtOs_6glossa10morphology14disambiguation5testss_31test_no_context_preserves_order
FN:141,_RNCNvNtNtCs14PW5HJOtOs_6glossa10morphology14disambiguation12disambiguate0B7_
FN:41,_RNvMNtNtCs14PW5HJOtOs_6glossa10morphology14disambiguationNtB2_21DisambiguationContext3new
FN:78,_RNvMNtNtCs14PW5HJOtOs_6glossa10morphology14disambiguationNtB2_21DisambiguationContext9from_verb
FN:121,_RNvNtNtCs14PW5HJOtOs_6glossa10morphology14disambiguation12disambiguate
FN:223,_RNvNtNtCs14PW5HJOtOs_6glossa10morphology14disambiguation12resolve_best
FN:164,_RNvNtNtCs14PW5HJOtOs_6glossa10morphology14disambiguation14score_analysis
FN:248,_RNvNtNtCs14PW5HJOtOs_6glossa10morphology14disambiguation15analyze_article
FN:654,_RNCNvNtNtNtCs14PW5HJOtOs_6glossa10morphology14disambiguation5testss_30test_analyze_article_all_forms0B9_
FNDA:0,_RNvMNtNtCs4a0SCptkpqe_6glossa10morphology14disambiguationNtB2_21DisambiguationContext12from_article
FNDA:0,_RNvMNtNtCs4a0SCptkpqe_6glossa10morphology14disambiguationNtB2_21DisambiguationContext14expecting_case
FNDA:5047,_RNvMNtNtCs4a0SCptkpqe_6glossa10morphology14disambiguationNtB2_21DisambiguationContext3new
FNDA:1,_RNvMNtNtCs4a0SCptkpqe_6glossa10morphology14disambiguationNtB2_21DisambiguationContext9from_verb
FNDA:4220,_RNvNtNtCs4a0SCptkpqe_6glossa10morphology14disambiguation12disambiguate
FNDA:3,_RNvNtNtCs4a0SCptkpqe_6glossa10morphology14disambiguation12resolve_best
FNDA:9,_RNvNtNtCs4a0SCptkpqe_6glossa10morphology14disambiguation14score_analysis
FNDA:4803,_RNvNtNtCs4a0SCptkpqe_6glossa10morphology14disambiguation15analyze_article
FNDA:1,_RNCNvNtNtCs4a0SCptkpqe_6glossa10morphology14disambiguation12disambiguate0B7_
FNDA:0,_RNvMNtNtCs14PW5HJOtOs_6glossa10morphology14disambiguationNtB2_21DisambiguationContext12from_article
FNDA:0,_RNvMNtNtCs14PW5HJOtOs_6glossa10morphology14disambiguationNtB2_21DisambiguationContext14expecting_case
FNDA:1,_RNvNtNtNtCs14PW5HJOtOs_6glossa10morphology14disambiguation5testss_17test_verb_context
FNDA:1,_RNvNtNtNtCs14PW5HJOtOs_6glossa10morphology14disambiguation5testss_20test_article_context
FNDA:1,_RNvNtNtNtCs14PW5HJOtOs_6glossa10morphology14disambiguation5testss_29test_neuter_article_ambiguity
FNDA:1,_RNvNtNtNtCs14PW5HJOtOs_6glossa10morphology14disambiguation5testss_30test_analyze_article_all_forms
FNDA:1,_RNvNtNtNtCs14PW5HJOtOs_6glossa10morphology14disambiguation5testss_30test_disambiguate_with_article
FNDA:1,_RNvNtNtNtCs14PW5HJOtOs_6glossa10morphology14disambiguation5testss_31test_no_context_preserves_order
FNDA:24,_RNCNvNtNtCs14PW5HJOtOs_6glossa10morphology14disambiguation12disambiguate0B7_
FNDA:5530,_RNvMNtNtCs14PW5HJOtOs_6glossa10morphology14disambiguationNtB2_21DisambiguationContext3new
FNDA:29,_RNvMNtNtCs14PW5HJOtOs_6glossa10morphology14disambiguationNtB2_21DisambiguationContext9from_verb
FNDA:4135,_RNvNtNtCs14PW5HJOtOs_6glossa10morphology14disambiguation12disambiguate
FNDA:62,_RNvNtNtCs14PW5HJOtOs_6glossa10morphology14disambiguation12resolve_best
FNDA:79,_RNvNtNtCs14PW5HJOtOs_6glossa10morphology14disambiguation14score_analysis
FNDA:4189,_RNvNtNtCs14PW5HJOtOs_6glossa10morphology14disambiguation15analyze_article
FNDA:0,_RNCNvNtNtNtCs14PW5HJOtOs_6glossa10morphology14disambiguation5testss_30test_analyze_article_all_forms0B9_
FNF:16
FNH:13
DA:41,10577
DA:42,10577
DA:43,10577
DA:57,0
DA:58,0
DA:59,0
DA:60,0
DA:61,0
DA:62,0
DA:63,0
DA:64,0
DA:78,30
DA:79,30
DA:80,30
DA:81,30
DA:82,30
DA:83,30
DA:84,30
DA:85,30
DA:95,0
DA:96,0
DA:97,0
DA:98,0
DA:99,0
DA:100,0
DA:101,0
DA:102,0
DA:121,8355
DA:122,8355
DA:123,8355
DA:124,8355
DA:125,8355
DA:126,0
DA:127,8355
DA:130,8355
DA:131,8338
DA:132,8337
DA:133,8337
DA:135,8337
DA:136,18
DA:141,25
DA:142,25
DA:143,25
DA:145,25
DA:147,25
DA:148,12
DA:150,13
DA:152,25
DA:155,38
DA:156,38
DA:157,38
DA:158,38
DA:160,18
DA:161,8355
DA:164,88
DA:165,88
DA:168,88
DA:169,63
DA:170,25
DA:171,38
DA:172,16
DA:173,22
DA:174,25
DA:177,88
DA:178,79
DA:179,65
DA:180,65
DA:181,14
DA:182,14
DA:183,9
DA:186,88
DA:187,77
DA:188,39
DA:189,39
DA:190,19
DA:191,19
DA:192,11
DA:195,88
DA:196,2
DA:197,0
DA:198,2
DA:199,0
DA:200,2
DA:201,86
DA:204,88
DA:205,88
DA:223,65
DA:224,65
DA:225,65
DA:226,65
DA:227,65
DA:228,65
DA:229,0
DA:232,65
DA:234,65
DA:248,8992
DA:250,8992
DA:252,8992
DA:253,9
DA:254,9
DA:255,9
DA:256,9
DA:257,9
DA:258,8983
DA:259,2
DA:260,2
DA:261,2
DA:262,2
DA:263,2
DA:264,8981
DA:265,5
DA:266,5
DA:267,5
DA:268,5
DA:269,5
DA:270,8976
DA:271,5
DA:272,5
DA:273,5
DA:274,5
DA:275,5
DA:276,8971
DA:277,2
DA:278,2
DA:279,2
DA:280,2
DA:281,2
DA:282,8969
DA:283,2
DA:284,2
DA:285,2
DA:286,2
DA:287,2
DA:288,8967
DA:289,2
DA:290,2
DA:291,2
DA:292,2
DA:293,2
DA:294,8965
DA:295,3
DA:296,3
DA:297,3
DA:298,3
DA:299,3
DA:302,8962
DA:303,1
DA:304,1
DA:305,1
DA:306,1
DA:307,1
DA:308,8961
DA:309,2
DA:310,2
DA:311,2
DA:312,2
DA:313,2
DA:314,8959
DA:315,2
DA:316,2
DA:317,2
DA:318,2
DA:319,2
DA:320,8957
DA:321,4
DA:322,4
DA:323,4
DA:324,4
DA:325,4
DA:326,8953
DA:327,2
DA:328,2
DA:329,2
DA:330,2
DA:331,2
DA:332,8951
DA:333,2
DA:334,2
DA:335,2
DA:336,2
DA:337,2
DA:338,8949
DA:339,3
DA:340,3
DA:341,3
DA:342,3
DA:343,3
DA:349,8946
DA:350,5
DA:351,5
DA:352,5
DA:353,5
DA:354,5
DA:355,8941
DA:356,5
DA:357,5
DA:358,5
DA:359,5
DA:360,5
DA:362,8936
DA:364,8992
DA:372,1
DA:374,1
DA:377,1
DA:378,1
DA:379,1
DA:380,1
DA:381,1
DA:382,1
DA:384,1
DA:385,1
DA:387,1
DA:388,1
DA:391,1
DA:392,1
DA:393,1
DA:394,1
DA:396,1
DA:397,1
DA:398,1
DA:399,1
DA:402,1
DA:405,1
DA:406,1
DA:408,1
DA:409,1
DA:410,1
DA:411,1
DA:414,1
DA:415,1
DA:416,1
DA:417,1
DA:420,1
DA:421,1
DA:424,1
DA:426,1
DA:427,1
DA:428,1
DA:429,1
DA:432,1
DA:433,1
DA:434,1
DA:435,1
DA:436,1
DA:439,1
DA:440,1
DA:442,1
DA:443,1
DA:444,1
DA:445,1
DA:446,1
DA:447,1
DA:448,1
DA:449,1
DA:450,1
DA:451,1
DA:452,1
DA:453,1
DA:454,1
DA:455,1
DA:456,1
DA:457,1
DA:458,1
DA:459,1
DA:460,1
DA:461,1
DA:462,1
DA:463,1
DA:464,1
DA:465,1
DA:466,1
DA:467,1
DA:468,1
DA:469,1
DA:470,1
DA:471,1
DA:472,1
DA:473,1
DA:474,1
DA:475,1
DA:476,1
DA:477,1
DA:478,1
DA:479,1
DA:480,1
DA:481,1
DA:482,1
DA:483,1
DA:484,1
DA:485,1
DA:486,1
DA:487,1
DA:488,1
DA:489,1
DA:490,1
DA:491,1
DA:492,1
DA:493,1
DA:494,1
DA:495,1
DA:496,1
DA:497,1
DA:498,1
DA:499,1
DA:500,1
DA:501,1
DA:502,1
DA:503,1
DA:504,1
DA:505,1
DA:506,1
DA:507,1
DA:508,1
DA:509,1
DA:510,1
DA:511,1
DA:512,1
DA:513,1
DA:514,1
DA:515,1
DA:516,1
DA:517,1
DA:518,1
DA:519,1
DA:520,1
DA:521,1
DA:522,1
DA:523,1
DA:524,1
DA:525,1
DA:526,1
DA:527,1
DA:528,1
DA:529,1
DA:530,1
DA:531,1
DA:532,1
DA:533,1
DA:534,1
DA:535,1
DA:536,1
DA:537,1
DA:538,1
DA:539,1
DA:541,1
DA:542,1
DA:543,1
DA:544,1
DA:545,1
DA:546,1
DA:547,1
DA:548,1
DA:549,1
DA:550,1
DA:551,1
DA:552,1
DA:553,1
DA:554,1
DA:555,1
DA:556,1
DA:557,1
DA:558,1
DA:559,1
DA:560,1
DA:561,1
DA:562,1
DA:563,1
DA:564,1
DA:565,1
DA:566,1
DA:567,1
DA:568,1
DA:569,1
DA:570,1
DA:571,1
DA:572,1
DA:573,1
DA:574,1
DA:575,1
DA:576,1
DA:577,1
DA:578,1
DA:579,1
DA:580,1
DA:581,1
DA:582,1
DA:583,1
DA:584,1
DA:585,1
DA:586,1
DA:587,1
DA:588,1
DA:589,1
DA:590,1
DA:591,1
DA:592,1
DA:593,1
DA:594,1
DA:595,1
DA:596,1
DA:597,1
DA:598,1
DA:599,1
DA:600,1
DA:601,1
DA:602,1
DA:603,1
DA:604,1
DA:605,1
DA:606,1
DA:607,1
DA:608,1
DA:609,1
DA:610,1
DA:611,1
DA:612,1
DA:613,1
DA:614,1
DA:615,1
DA:616,1
DA:617,1
DA:618,1
DA:619,1
DA:620,1
DA:621,1
DA:622,1
DA:623,1
DA:624,1
DA:625,1
DA:626,1
DA:627,1
DA:628,1
DA:629,1
DA:630,1
DA:632,1
DA:633,1
DA:634,1
DA:635,1
DA:636,1
DA:637,1
DA:639,1
DA:642,40
DA:643,40
DA:645,40
DA:646,1
DA:647,1
DA:653,39
DA:654,39
DA:655,39
DA:660,39
DA:665,39
DA:670,39
DA:677,1
BRF:0
BRH:0
LF:455
LH:434
end_of_record
SF:/app/src/morphology/lexicon.rs
FN:2430,_RNCNvNtNtCs4a0SCptkpqe_6glossa10morphology7lexicon19get_binary_operator0B7_
FN:2431,_RNCNvNtNtCs4a0SCptkpqe_6glossa10morphology7lexicon19get_binary_operators_0B7_
FN:136,_RNCNvNtNtCs4a0SCptkpqe_6glossa10morphology7lexicon7LEXICON0B7_
FN:2218,_RNCNvNtNtCs4a0SCptkpqe_6glossa10morphology7lexicon7is_verb0B7_
FN:2212,_RNCNvNtNtCs4a0SCptkpqe_6glossa10morphology7lexicon7entries0B7_
FN:119,_RNvMNtNtCs4a0SCptkpqe_6glossa10morphology7lexiconNtB2_12LexiconEntry11to_analysis
FN:2568,_RNvNtNtCs4a0SCptkpqe_6glossa10morphology7lexicon10is_ok_word
FN:2511,_RNvNtNtCs4a0SCptkpqe_6glossa10morphology7lexicon10is_ordinal
FN:2573,_RNvNtNtCs4a0SCptkpqe_6glossa10morphology7lexicon11is_err_word
FN:2404,_RNvNtNtCs4a0SCptkpqe_6glossa10morphology7lexicon11is_negation
FN:2501,_RNvNtNtCs4a0SCptkpqe_6glossa10morphology7lexicon11is_pop_verb
FN:2237,_RNvNtNtCs4a0SCptkpqe_6glossa10morphology7lexicon12is_find_verb
FN:2595,_RNvNtNtCs4a0SCptkpqe_6glossa10morphology7lexicon12is_join_verb
FN:2558,_RNvNtNtCs4a0SCptkpqe_6glossa10morphology7lexicon12is_none_word
FN:2496,_RNvNtNtCs4a0SCptkpqe_6glossa10morphology7lexicon12is_push_verb
FN:2563,_RNvNtNtCs4a0SCptkpqe_6glossa10morphology7lexicon12is_some_word
FN:2477,_RNvNtNtCs4a0SCptkpqe_6glossa10morphology7lexicon13is_break_verb
FN:2232,_RNvNtNtCs4a0SCptkpqe_6glossa10morphology7lexicon13is_print_verb
FN:2589,_RNvNtNtCs4a0SCptkpqe_6glossa10morphology7lexicon13is_split_verb
FN:2273,_RNvNtNtCs4a0SCptkpqe_6glossa10morphology7lexicon13numeral_value
FN:2242,_RNvNtNtCs4a0SCptkpqe_6glossa10morphology7lexicon14is_assert_verb
FN:2247,_RNvNtNtCs4a0SCptkpqe_6glossa10morphology7lexicon14is_equals_verb
FN:2583,_RNvNtNtCs4a0SCptkpqe_6glossa10morphology7lexicon14is_insert_verb
FN:2224,_RNvNtNtCs4a0SCptkpqe_6glossa10morphology7lexicon15is_binding_verb
FN:2462,_RNvNtNtCs4a0SCptkpqe_6glossa10morphology7lexicon15is_else_pattern
FN:2395,_RNvNtNtCs4a0SCptkpqe_6glossa10morphology7lexicon16boolean_operator
FN:2482,_RNvNtNtCs4a0SCptkpqe_6glossa10morphology7lexicon16is_continue_verb
FN:2467,_RNvNtNtCs4a0SCptkpqe_6glossa10morphology7lexicon16is_loop_particle
FN:2421,_RNvNtNtCs4a0SCptkpqe_6glossa10morphology7lexicon16is_operator_word
FN:2529,_RNvNtNtCs4a0SCptkpqe_6glossa10morphology7lexicon16ordinal_to_index
FN:2257,_RNvNtNtCs4a0SCptkpqe_6glossa10morphology7lexicon17is_all_quantifier
FN:2252,_RNvNtNtCs4a0SCptkpqe_6glossa10morphology7lexicon17is_any_quantifier
FN:2487,_RNvNtNtCs4a0SCptkpqe_6glossa10morphology7lexicon17is_match_particle
FN:2262,_RNvNtNtCs4a0SCptkpqe_6glossa10morphology7lexicon17is_mutable_marker
FN:2472,_RNvNtNtCs4a0SCptkpqe_6glossa10morphology7lexicon17is_range_particle
FN:2267,_RNvNtNtCs4a0SCptkpqe_6glossa10morphology7lexicon18is_assignment_verb
FN:2506,_RNvNtNtCs4a0SCptkpqe_6glossa10morphology7lexicon18is_length_property
FN:2409,_RNvNtNtCs4a0SCptkpqe_6glossa10morphology7lexicon19arithmetic_operator
FN:2384,_RNvNtNtCs4a0SCptkpqe_6glossa10morphology7lexicon19comparison_operator
FN:2428,_RNvNtNtCs4a0SCptkpqe_6glossa10morphology7lexicon19get_binary_operator
FN:2553,_RNvNtNtCs4a0SCptkpqe_6glossa10morphology7lexicon21is_consequence_marker
FN:2542,_RNvNtNtCs4a0SCptkpqe_6glossa10morphology7lexicon21is_necessity_particle
FN:2548,_RNvNtNtCs4a0SCptkpqe_6glossa10morphology7lexicon22is_obligation_particle
FN:2439,_RNvNtNtCs4a0SCptkpqe_6glossa10morphology7lexicon23is_conditional_particle
FN:2607,_RNvNtNtCs4a0SCptkpqe_6glossa10morphology7lexicon24is_delimiter_preposition
FN:2601,_RNvNtNtCs4a0SCptkpqe_6glossa10morphology7lexicon26is_containment_preposition
FN:2206,_RNvNtNtCs4a0SCptkpqe_6glossa10morphology7lexicon6lookup
FN:2211,_RNvNtNtCs4a0SCptkpqe_6glossa10morphology7lexicon7entries
FN:2216,_RNvNtNtCs4a0SCptkpqe_6glossa10morphology7lexicon7is_verb
FN:2430,_RNCNvNtNtCs14PW5HJOtOs_6glossa10morphology7lexicon19get_binary_operator0B7_
FN:2431,_RNCNvNtNtCs14PW5HJOtOs_6glossa10morphology7lexicon19get_binary_operators_0B7_
FN:2212,_RNCNvNtNtCs14PW5HJOtOs_6glossa10morphology7lexicon7entries0B7_
FN:2218,_RNCNvNtNtCs14PW5HJOtOs_6glossa10morphology7lexicon7is_verb0B7_
FN:2462,_RNvNtNtCs14PW5HJOtOs_6glossa10morphology7lexicon15is_else_pattern
FN:2421,_RNvNtNtCs14PW5HJOtOs_6glossa10morphology7lexicon16is_operator_word
FN:2472,_RNvNtNtCs14PW5HJOtOs_6glossa10morphology7lexicon17is_range_particle
FN:2428,_RNvNtNtCs14PW5HJOtOs_6glossa10morphology7lexicon19get_binary_operator
FN:2553,_RNvNtNtCs14PW5HJOtOs_6glossa10morphology7lexicon21is_consequence_marker
FN:2542,_RNvNtNtCs14PW5HJOtOs_6glossa10morphology7lexicon21is_necessity_particle
FN:2548,_RNvNtNtCs14PW5HJOtOs_6glossa10morphology7lexicon22is_obligation_particle
FN:2211,_RNvNtNtCs14PW5HJOtOs_6glossa10morphology7lexicon7entries
FN:2216,_RNvNtNtCs14PW5HJOtOs_6glossa10morphology7lexicon7is_verb
FN:136,_RNCNvNtNtCs14PW5HJOtOs_6glossa10morphology7lexicon7LEXICON0B7_
FN:2630,_RNvNtNtNtCs14PW5HJOtOs_6glossa10morphology7lexicon5testss_16test_lookup_type
FN:2616,_RNvNtNtNtCs14PW5HJOtOs_6glossa10morphology7lexicon5testss_16test_lookup_verb
FN:2764,_RNvNtNtNtCs14PW5HJOtOs_6glossa10morphology7lexicon5testss_17test_is_join_verb
FN:2637,_RNvNtNtNtCs14PW5HJOtOs_6glossa10morphology7lexicon5testss_18test_is_print_verb
FN:2756,_RNvNtNtNtCs14PW5HJOtOs_6glossa10morphology7lexicon5testss_18test_is_split_verb
FN:2644,_RNvNtNtNtCs14PW5HJOtOs_6glossa10morphology7lexicon5testss_18test_numeral_value
FN:2651,_RNvNtNtNtCs14PW5HJOtOs_6glossa10morphology7lexicon5testss_19test_boolean_lookup
FN:2835,_RNvNtNtNtCs14PW5HJOtOs_6glossa10morphology7lexicon5testss_19test_is_assert_verb
FN:2843,_RNvNtNtNtCs14PW5HJOtOs_6glossa10morphology7lexicon5testss_19test_is_equals_verb
FN:2747,_RNvNtNtNtCs14PW5HJOtOs_6glossa10morphology7lexicon5testss_19test_is_insert_verb
FN:2623,_RNvNtNtNtCs14PW5HJOtOs_6glossa10morphology7lexicon5testss_19test_lookup_binding
FN:2669,_RNvNtNtNtCs14PW5HJOtOs_6glossa10morphology7lexicon5testss_22test_boolean_operators
FN:2710,_RNvNtNtNtCs14PW5HJOtOs_6glossa10morphology7lexicon5testss_23test_meta_lexicon_entry
FN:2717,_RNvNtNtNtCs14PW5HJOtOs_6glossa10morphology7lexicon5testss_23test_non_mutable_marker
FN:2737,_RNvNtNtNtCs14PW5HJOtOs_6glossa10morphology7lexicon5testss_24test_non_assignment_verb
FN:2678,_RNvNtNtNtCs14PW5HJOtOs_6glossa10morphology7lexicon5testss_25test_arithmetic_operators
FN:2660,_RNvNtNtNtCs14PW5HJOtOs_6glossa10morphology7lexicon5testss_25test_comparison_operators
FN:2729,_RNvNtNtNtCs14PW5HJOtOs_6glossa10morphology7lexicon5testss_27test_gignetai_lexicon_entry
FN:2705,_RNvNtNtNtCs14PW5HJOtOs_6glossa10morphology7lexicon5testss_27test_meta_is_mutable_marker
FN:2779,_RNvNtNtNtCs14PW5HJOtOs_6glossa10morphology7lexicon5testss_29test_is_delimiter_preposition
FN:2687,_RNvNtNtNtCs14PW5HJOtOs_6glossa10morphology7lexicon5testss_29test_operator_lexicon_entries
FN:2853,_RNvNtNtNtCs14PW5HJOtOs_6glossa10morphology7lexicon5testss_30test_assert_verb_lexicon_entry
FN:2814,_RNvNtNtNtCs14PW5HJOtOs_6glossa10morphology7lexicon5testss_30test_declined_collection_nouns
FN:2863,_RNvNtNtNtCs14PW5HJOtOs_6glossa10morphology7lexicon5testss_30test_equals_verb_lexicon_entry
FN:2806,_RNvNtNtNtCs14PW5HJOtOs_6glossa10morphology7lexicon5testss_30test_join_verb_lexicon_entries
FN:2772,_RNvNtNtNtCs14PW5HJOtOs_6glossa10morphology7lexicon5testss_31test_is_containment_preposition
FN:2798,_RNvNtNtNtCs14PW5HJOtOs_6glossa10morphology7lexicon5testss_31test_split_verb_lexicon_entries
FN:2723,_RNvNtNtNtCs14PW5HJOtOs_6glossa10morphology7lexicon5testss_32test_gignetai_is_assignment_verb
FN:2787,_RNvNtNtNtCs14PW5HJOtOs_6glossa10morphology7lexicon5testss_32test_insert_verb_lexicon_entries
FN:119,_RNvMNtNtCs14PW5HJOtOs_6glossa10morphology7lexiconNtB2_12LexiconEntry11to_analysis
FN:2568,_RNvNtNtCs14PW5HJOtOs_6glossa10morphology7lexicon10is_ok_word
FN:2511,_RNvNtNtCs14PW5HJOtOs_6glossa10morphology7lexicon10is_ordinal
FN:2573,_RNvNtNtCs14PW5HJOtOs_6glossa10morphology7lexicon11is_err_word
FN:2404,_RNvNtNtCs14PW5HJOtOs_6glossa10morphology7lexicon11is_negation
FN:2501,_RNvNtNtCs14PW5HJOtOs_6glossa10morphology7lexicon11is_pop_verb
FN:2237,_RNvNtNtCs14PW5HJOtOs_6glossa10morphology7lexicon12is_find_verb
FN:2595,_RNvNtNtCs14PW5HJOtOs_6glossa10morphology7lexicon12is_join_verb
FN:2558,_RNvNtNtCs14PW5HJOtOs_6glossa10morphology7lexicon12is_none_word
FN:2496,_RNvNtNtCs14PW5HJOtOs_6glossa10morphology7lexicon12is_push_verb
FN:2563,_RNvNtNtCs14PW5HJOtOs_6glossa10morphology7lexicon12is_some_word
FN:2477,_RNvNtNtCs14PW5HJOtOs_6glossa10morphology7lexicon13is_break_verb
FN:2232,_RNvNtNtCs14PW5HJOtOs_6glossa10morphology7lexicon13is_print_verb
FN:2589,_RNvNtNtCs14PW5HJOtOs_6glossa10morphology7lexicon13is_split_verb
FN:2273,_RNvNtNtCs14PW5HJOtOs_6glossa10morphology7lexicon13numeral_value
FN:2242,_RNvNtNtCs14PW5HJOtOs_6glossa10morphology7lexicon14is_assert_verb
FN:2247,_RNvNtNtCs14PW5HJOtOs_6glossa10morphology7lexicon14is_equals_verb
FN:2583,_RNvNtNtCs14PW5HJOtOs_6glossa10morphology7lexicon14is_insert_verb
FN:2224,_RNvNtNtCs14PW5HJOtOs_6glossa10morphology7lexicon15is_binding_verb
FN:2395,_RNvNtNtCs14PW5HJOtOs_6glossa10morphology7lexicon16boolean_operator
FN:2482,_RNvNtNtCs14PW5HJOtOs_6glossa10morphology7lexicon16is_continue_verb
FN:2467,_RNvNtNtCs14PW5HJOtOs_6glossa10morphology7lexicon16is_loop_particle
FN:2529,_RNvNtNtCs14PW5HJOtOs_6glossa10morphology7lexicon16ordinal_to_index
FN:2257,_RNvNtNtCs14PW5HJOtOs_6glossa10morphology7lexicon17is_all_quantifier
FN:2252,_RNvNtNtCs14PW5HJOtOs_6glossa10morphology7lexicon17is_any_quantifier
FN:2487,_RNvNtNtCs14PW5HJOtOs_6glossa10morphology7lexicon17is_match_particle
FN:2262,_RNvNtNtCs14PW5HJOtOs_6glossa10morphology7lexicon17is_mutable_marker
FN:2267,_RNvNtNtCs14PW5HJOtOs_6glossa10morphology7lexicon18is_assignment_verb
FN:2506,_RNvNtNtCs14PW5HJOtOs_6glossa10morphology7lexicon18is_length_property
FN:2409,_RNvNtNtCs14PW5HJOtOs_6glossa10morphology7lexicon19arithmetic_operator
FN:2384,_RNvNtNtCs14PW5HJOtOs_6glossa10morphology7lexicon19comparison_operator
FN:2439,_RNvNtNtCs14PW5HJOtOs_6glossa10morphology7lexicon23is_conditional_particle
FN:2607,_RNvNtNtCs14PW5HJOtOs_6glossa10morphology7lexicon24is_delimiter_preposition
FN:2601,_RNvNtNtCs14PW5HJOtOs_6glossa10morphology7lexicon26is_containment_preposition
FN:2206,_RNvNtNtCs14PW5HJOtOs_6glossa10morphology7lexicon6lookup
FNDA:0,_RNCNvNtNtCs4a0SCptkpqe_6glossa10morphology7lexicon19get_binary_operator0B7_
FNDA:0,_RNCNvNtNtCs4a0SCptkpqe_6glossa10morphology7lexicon19get_binary_operators_0B7_
FNDA:39,_RNCNvNtNtCs4a0SCptkpqe_6glossa10morphology7lexicon7LEXICON0B7_
FNDA:0,_RNCNvNtNtCs4a0SCptkpqe_6glossa10morphology7lexicon7is_verb0B7_
FNDA:0,_RNCNvNtNtCs4a0SCptkpqe_6glossa10morphology7lexicon7entries0B7_
FNDA:2562,_RNvMNtNtCs4a0SCptkpqe_6glossa10morphology7lexiconNtB2_12LexiconEntry11to_analysis
FNDA:302,_RNvNtNtCs4a0SCptkpqe_6glossa10morphology7lexicon10is_ok_word
FNDA:6247,_RNvNtNtCs4a0SCptkpqe_6glossa10morphology7lexicon10is_ordinal
FNDA:276,_RNvNtNtCs4a0SCptkpqe_6glossa10morphology7lexicon11is_err_word
FNDA:0,_RNvNtNtCs4a0SCptkpqe_6glossa10morphology7lexicon11is_negation
FNDA:324,_RNvNtNtCs4a0SCptkpqe_6glossa10morphology7lexicon11is_pop_verb
FNDA:609,_RNvNtNtCs4a0SCptkpqe_6glossa10morphology7lexicon12is_find_verb
FNDA:7733,_RNvNtNtCs4a0SCptkpqe_6glossa10morphology7lexicon12is_join_verb
FNDA:480,_RNvNtNtCs4a0SCptkpqe_6glossa10morphology7lexicon12is_none_word
FNDA:321,_RNvNtNtCs4a0SCptkpqe_6glossa10morphology7lexicon12is_push_verb
FNDA:368,_RNvNtNtCs4a0SCptkpqe_6glossa10morphology7lexicon12is_some_word
FNDA:564,_RNvNtNtCs4a0SCptkpqe_6glossa10morphology7lexicon13is_break_verb
FNDA:2270,_RNvNtNtCs4a0SCptkpqe_6glossa10morphology7lexicon13is_print_verb
FNDA:7734,_RNvNtNtCs4a0SCptkpqe_6glossa10morphology7lexicon13is_split_verb
FNDA:11223,_RNvNtNtCs4a0SCptkpqe_6glossa10morphology7lexicon13numeral_value
FNDA:534,_RNvNtNtCs4a0SCptkpqe_6glossa10morphology7lexicon14is_assert_verb
FNDA:532,_RNvNtNtCs4a0SCptkpqe_6glossa10morphology7lexicon14is_equals_verb
FNDA:318,_RNvNtNtCs4a0SCptkpqe_6glossa10morphology7lexicon14is_insert_verb
FNDA:1774,_RNvNtNtCs4a0SCptkpqe_6glossa10morphology7lexicon15is_binding_verb
FNDA:1,_RNvNtNtCs4a0SCptkpqe_6glossa10morphology7lexicon15is_else_pattern
FNDA:0,_RNvNtNtCs4a0SCptkpqe_6glossa10morphology7lexicon16boolean_operator
FNDA:563,_RNvNtNtCs4a0SCptkpqe_6glossa10morphology7lexicon16is_continue_verb
FNDA:593,_RNvNtNtCs4a0SCptkpqe_6glossa10morphology7lexicon16is_loop_particle
FNDA:0,_RNvNtNtCs4a0SCptkpqe_6glossa10morphology7lexicon16is_operator_word
FNDA:264,_RNvNtNtCs4a0SCptkpqe_6glossa10morphology7lexicon16ordinal_to_index
FNDA:314,_RNvNtNtCs4a0SCptkpqe_6glossa10morphology7lexicon17is_all_quantifier
FNDA:314,_RNvNtNtCs4a0SCptkpqe_6glossa10morphology7lexicon17is_any_quantifier
FNDA:592,_RNvNtNtCs4a0SCptkpqe_6glossa10morphology7lexicon17is_match_particle
FNDA:7747,_RNvNtNtCs4a0SCptkpqe_6glossa10morphology7lexicon17is_mutable_marker
FNDA:2,_RNvNtNtCs4a0SCptkpqe_6glossa10morphology7lexicon17is_range_particle
FNDA:331,_RNvNtNtCs4a0SCptkpqe_6glossa10morphology7lexicon18is_assignment_verb
FNDA:6508,_RNvNtNtCs4a0SCptkpqe_6glossa10morphology7lexicon18is_length_property
FNDA:7437,_RNvNtNtCs4a0SCptkpqe_6glossa10morphology7lexicon19arithmetic_operator
FNDA:7471,_RNvNtNtCs4a0SCptkpqe_6glossa10morphology7lexicon19comparison_operator
FNDA:0,_RNvNtNtCs4a0SCptkpqe_6glossa10morphology7lexicon19get_binary_operator
FNDA:0,_RNvNtNtCs4a0SCptkpqe_6glossa10morphology7lexicon21is_consequence_marker
FNDA:0,_RNvNtNtCs4a0SCptkpqe_6glossa10morphology7lexicon21is_necessity_particle
FNDA:0,_RNvNtNtCs4a0SCptkpqe_6glossa10morphology7lexicon22is_obligation_particle
FNDA:718,_RNvNtNtCs4a0SCptkpqe_6glossa10morphology7lexicon23is_conditional_particle
FNDA:7734,_RNvNtNtCs4a0SCptkpqe_6glossa10morphology7lexicon24is_delimiter_preposition
FNDA:7741,_RNvNtNtCs4a0SCptkpqe_6glossa10morphology7lexicon26is_containment_preposition
FNDA:9877,_RNvNtNtCs4a0SCptkpqe_6glossa10morphology7lexicon6lookup
FNDA:0,_RNvNtNtCs4a0SCptkpqe_6glossa10morphology7lexicon7entries
FNDA:0,_RNvNtNtCs4a0SCptkpqe_6glossa10morphology7lexicon7is_verb
FNDA:0,_RNCNvNtNtCs14PW5HJOtOs_6glossa10morphology7lexicon19get_binary_operator0B7_
FNDA:0,_RNCNvNtNtCs14PW5HJOtOs_6glossa10morphology7lexicon19get_binary_operators_0B7_
FNDA:0,_RNCNvNtNtCs14PW5HJOtOs_6glossa10morphology7lexicon7entries0B7_
FNDA:0,_RNCNvNtNtCs14PW5HJOtOs_6glossa10morphology7lexicon7is_verb0B7_
FNDA:0,_RNvNtNtCs14PW5HJOtOs_6glossa10morphology7lexicon15is_else_pattern
FNDA:0,_RNvNtNtCs14PW5HJOtOs_6glossa10morphology7lexicon16is_operator_word
FNDA:0,_RNvNtNtCs14PW5HJOtOs_6glossa10morphology7lexicon17is_range_particle
FNDA:0,_RNvNtNtCs14PW5HJOtOs_6glossa10morphology7lexicon19get_binary_operator
FNDA:0,_RNvNtNtCs14PW5HJOtOs_6glossa10morphology7lexicon21is_consequence_marker
FNDA:0,_RNvNtNtCs14PW5HJOtOs_6glossa10morphology7lexicon21is_necessity_particle
FNDA:0,_RNvNtNtCs14PW5HJOtOs_6glossa10morphology7lexicon22is_obligation_particle
FNDA:0,_RNvNtNtCs14PW5HJOtOs_6glossa10morphology7lexicon7entries
FNDA:0,_RNvNtNtCs14PW5HJOtOs_6glossa10morphology7lexicon7is_verb
FNDA:1,_RNCNvNtNtCs14PW5HJOtOs_6glossa10morphology7lexicon7LEXICON0B7_
FNDA:1,_RNvNtNtNtCs14PW5HJOtOs_6glossa10morphology7lexicon5testss_16test_lookup_type
FNDA:1,_RNvNtNtNtCs14PW5HJOtOs_6glossa10morphology7lexicon5testss_16test_lookup_verb
FNDA:1,_RNvNtNtNtCs14PW5HJOtOs_6glossa10morphology7lexicon5testss_17test_is_join_verb
FNDA:1,_RNvNtNtNtCs14PW5HJOtOs_6glossa10morphology7lexicon5testss_18test_is_print_verb
FNDA:1,_RNvNtNtNtCs14PW5HJOtOs_6glossa10morphology7lexicon5testss_18test_is_split_verb
FNDA:1,_RNvNtNtNtCs14PW5HJOtOs_6glossa10morphology7lexicon5testss_18test_numeral_value
FNDA:1,_RNvNtNtNtCs14PW5HJOtOs_6glossa10morphology7lexicon5testss_19test_boolean_lookup
FNDA:1,_RNvNtNtNtCs14PW5HJOtOs_6glossa10morphology7lexicon5testss_19test_is_assert_verb
FNDA:1,_RNvNtNtNtCs14PW5HJOtOs_6glossa10morphology7lexicon5testss_19test_is_equals_verb
FNDA:1,_RNvNtNtNtCs14PW5HJOtOs_6glossa10morphology7lexicon5testss_19test_is_insert_verb
FNDA:1,_RNvNtNtNtCs14PW5HJOtOs_6glossa10morphology7lexicon5testss_19test_lookup_binding
FNDA:1,_RNvNtNtNtCs14PW5HJOtOs_6glossa10morphology7lexicon5testss_22test_boolean_operators
FNDA:1,_RNvNtNtNtCs14PW5HJOtOs_6glossa10morphology7lexicon5testss_23test_meta_lexicon_entry
FNDA:1,_RNvNtNtNtCs14PW5HJOtOs_6glossa10morphology7lexicon5testss_23test_non_mutable_marker
FNDA:1,_RNvNtNtNtCs14PW5HJOtOs_6glossa10morphology7lexicon5testss_24test_non_assignment_verb
FNDA:1,_RNvNtNtNtCs14PW5HJOtOs_6glossa10morphology7lexicon5testss_25test_arithmetic_operators
FNDA:1,_RNvNtNtNtCs14PW5HJOtOs_6glossa10morphology7lexicon5testss_25test_comparison_operators
FNDA:1,_RNvNtNtNtCs14PW5HJOtOs_6glossa10morphology7lexicon5testss_27test_gignetai_lexicon_entry
FNDA:1,_RNvNtNtNtCs14PW5HJOtOs_6glossa10morphology7lexicon5testss_27test_meta_is_mutable_marker
FNDA:1,_RNvNtNtNtCs14PW5HJOtOs_6glossa10morphology7lexicon5testss_29test_is_delimiter_preposition
FNDA:1,_RNvNtNtNtCs14PW5HJOtOs_6glossa10morphology7lexicon5testss_29test_operator_lexicon_entries
FNDA:1,_RNvNtNtNtCs14PW5HJOtOs_6glossa10morphology7lexicon5testss_30test_assert_verb_lexicon_entry
FNDA:1,_RNvNtNtNtCs14PW5HJOtOs_6glossa10morphology7lexicon5testss_30test_declined_collection_nouns
FNDA:1,_RNvNtNtNtCs14PW5HJOtOs_6glossa10morphology7lexicon5testss_30test_equals_verb_lexicon_entry
FNDA:1,_RNvNtNtNtCs14PW5HJOtOs_6glossa10morphology7lexicon5testss_30test_join_verb_lexicon_entries
FNDA:1,_RNvNtNtNtCs14PW5HJOtOs_6glossa10morphology7lexicon5testss_31test_is_containment_preposition
FNDA:1,_RNvNtNtNtCs14PW5HJOtOs_6glossa10morphology7lexicon5testss_31test_split_verb_lexicon_entries
FNDA:1,_RNvNtNtNtCs14PW5HJOtOs_6glossa10morphology7lexicon5testss_32test_gignetai_is_assignment_verb
FNDA:1,_RNvNtNtNtCs14PW5HJOtOs_6glossa10morphology7lexicon5testss_32test_insert_verb_lexicon_entries
FNDA:2788,_RNvMNtNtCs14PW5HJOtOs_6glossa10morphology7lexiconNtB2_12LexiconEntry11to_analysis
FNDA:2691,_RNvNtNtCs14PW5HJOtOs_6glossa10morphology7lexicon10is_ok_word
FNDA:7156,_RNvNtNtCs14PW5HJOtOs_6glossa10morphology7lexicon10is_ordinal
FNDA:2689,_RNvNtNtCs14PW5HJOtOs_6glossa10morphology7lexicon11is_err_word
FNDA:3,_RNvNtNtCs14PW5HJOtOs_6glossa10morphology7lexicon11is_negation
FNDA:35,_RNvNtNtCs14PW5HJOtOs_6glossa10morphology7lexicon11is_pop_verb
FNDA:1390,_RNvNtNtCs14PW5HJOtOs_6glossa10morphology7lexicon12is_find_verb
FNDA:10567,_RNvNtNtCs14PW5HJOtOs_6glossa10morphology7lexicon12is_join_verb
FNDA:2724,_RNvNtNtCs14PW5HJOtOs_6glossa10morphology7lexicon12is_none_word
FNDA:35,_RNvNtNtCs14PW5HJOtOs_6glossa10morphology7lexicon12is_push_verb
FNDA:2694,_RNvNtNtCs14PW5HJOtOs_6glossa10morphology7lexicon12is_some_word
FNDA:1347,_RNvNtNtCs14PW5HJOtOs_6glossa10morphology7lexicon13is_break_verb
FNDA:4220,_RNvNtNtCs14PW5HJOtOs_6glossa10morphology7lexicon13is_print_verb
FNDA:10570,_RNvNtNtCs14PW5HJOtOs_6glossa10morphology7lexicon13is_split_verb
FNDA:13423,_RNvNtNtCs14PW5HJOtOs_6glossa10morphology7lexicon13numeral_value
FNDA:1392,_RNvNtNtCs14PW5HJOtOs_6glossa10morphology7lexicon14is_assert_verb
FNDA:1395,_RNvNtNtCs14PW5HJOtOs_6glossa10morphology7lexicon14is_equals_verb
FNDA:38,_RNvNtNtCs14PW5HJOtOs_6glossa10morphology7lexicon14is_insert_verb
FNDA:4160,_RNvNtNtCs14PW5HJOtOs_6glossa10morphology7lexicon15is_binding_verb
FNDA:2,_RNvNtNtCs14PW5HJOtOs_6glossa10morphology7lexicon16boolean_operator
FNDA:1347,_RNvNtNtCs14PW5HJOtOs_6glossa10morphology7lexicon16is_continue_verb
FNDA:1350,_RNvNtNtCs14PW5HJOtOs_6glossa10morphology7lexicon16is_loop_particle
FNDA:258,_RNvNtNtCs14PW5HJOtOs_6glossa10morphology7lexicon16ordinal_to_index
FNDA:17,_RNvNtNtCs14PW5HJOtOs_6glossa10morphology7lexicon17is_all_quantifier
FNDA:17,_RNvNtNtCs14PW5HJOtOs_6glossa10morphology7lexicon17is_any_quantifier
FNDA:1350,_RNvNtNtCs14PW5HJOtOs_6glossa10morphology7lexicon17is_match_particle
FNDA:10582,_RNvNtNtCs14PW5HJOtOs_6glossa10morphology7lexicon17is_mutable_marker
FNDA:40,_RNvNtNtCs14PW5HJOtOs_6glossa10morphology7lexicon18is_assignment_verb
FNDA:7926,_RNvNtNtCs14PW5HJOtOs_6glossa10morphology7lexicon18is_length_property
FNDA:9533,_RNvNtNtCs14PW5HJOtOs_6glossa10morphology7lexicon19arithmetic_operator
FNDA:9793,_RNvNtNtCs14PW5HJOtOs_6glossa10morphology7lexicon19comparison_operator
FNDA:1363,_RNvNtNtCs14PW5HJOtOs_6glossa10morphology7lexicon23is_conditional_particle
FNDA:10578,_RNvNtNtCs14PW5HJOtOs_6glossa10morphology7lexicon24is_delimiter_preposition
FNDA:10580,_RNvNtNtCs14PW5HJOtOs_6glossa10morphology7lexicon26is_containment_preposition
FNDA:8414,_RNvNtNtCs14PW5HJOtOs_6glossa10morphology7lexicon6lookup
FNF:78
FNH:67
DA:119,5350
DA:120,5350
DA:121,5350
DA:122,5350
DA:123,5350
DA:124,5350
DA:125,5350
DA:126,5350
DA:127,5350
DA:128,5350
DA:129,5350
DA:130,5350
DA:131,5350
DA:132,5350
DA:136,40
DA:137,40
DA:144,40
DA:146,40
DA:147,40
DA:148,40
DA:149,40
DA:150,40
DA:151,40
DA:152,40
DA:153,40
DA:154,40
DA:155,40
DA:156,40
DA:157,40
DA:158,40
DA:161,40
DA:162,40
DA:163,40
DA:164,40
DA:165,40
DA:166,40
DA:167,40
DA:168,40
DA:169,40
DA:170,40
DA:171,40
DA:172,40
DA:173,40
DA:174,40
DA:175,40
DA:179,40
DA:180,40
DA:181,40
DA:182,40
DA:183,40
DA:184,40
DA:185,40
DA:186,40
DA:187,40
DA:188,40
DA:189,40
DA:190,40
DA:191,40
DA:192,40
DA:193,40
DA:197,40
DA:198,40
DA:199,40
DA:200,40
DA:201,40
DA:202,40
DA:203,40
DA:204,40
DA:205,40
DA:206,40
DA:207,40
DA:208,40
DA:209,40
DA:210,40
DA:211,40
DA:215,40
DA:216,40
DA:217,40
DA:218,40
DA:219,40
DA:220,40
DA:221,40
DA:222,40
DA:223,40
DA:224,40
DA:225,40
DA:226,40
DA:227,40
DA:228,40
DA:229,40
DA:233,40
DA:234,40
DA:235,40
DA:236,40
DA:237,40
DA:238,40
DA:239,40
DA:240,40
DA:241,40
DA:242,40
DA:243,40
DA:244,40
DA:245,40
DA:246,40
DA:247,40
DA:251,40
DA:252,40
DA:253,40
DA:254,40
DA:255,40
DA:256,40
DA:257,40
DA:258,40
DA:259,40
DA:260,40
DA:261,40
DA:262,40
DA:263,40
DA:264,40
DA:265,40
DA:269,40
DA:270,40
DA:271,40
DA:272,40
DA:273,40
DA:274,40
DA:275,40
DA:276,40
DA:277,40
DA:278,40
DA:279,40
DA:280,40
DA:281,40
DA:282,40
DA:283,40
DA:286,40
DA:287,40
DA:288,40
DA:289,40
DA:290,40
DA:291,40
DA:292,40
DA:293,40
DA:294,40
DA:295,40
DA:296,40
DA:297,40
DA:298,40
DA:299,40
DA:300,40
DA:304,40
DA:305,40
DA:306,40
DA:307,40
DA:308,40
DA:309,40
DA:310,40
DA:311,40
DA:312,40
DA:313,40
DA:314,40
DA:315,40
DA:316,40
DA:317,40
DA:318,40
DA:322,40
DA:323,40
DA:324,40
DA:325,40
DA:326,40
DA:327,40
DA:328,40
DA:329,40
DA:330,40
DA:331,40
DA:332,40
DA:333,40
DA:334,40
DA:335,40
DA:336,40
DA:340,40
DA:341,40
DA:342,40
DA:343,40
DA:344,40
DA:345,40
DA:346,40
DA:347,40
DA:348,40
DA:349,40
DA:350,40
DA:351,40
DA:352,40
DA:353,40
DA:354,40
DA:362,40
DA:363,40
DA:364,40
DA:365,40
DA:366,40
DA:367,40
DA:368,40
DA:369,40
DA:370,40
DA:371,40
DA:372,40
DA:373,40
DA:374,40
DA:375,40
DA:376,40
DA:380,40
DA:381,40
DA:382,40
DA:383,40
DA:384,40
DA:385,40
DA:386,40
DA:387,40
DA:388,40
DA:389,40
DA:390,40
DA:391,40
DA:392,40
DA:393,40
DA:394,40
DA:398,40
DA:399,40
DA:400,40
DA:401,40
DA:402,40
DA:403,40
DA:404,40
DA:405,40
DA:406,40
DA:407,40
DA:408,40
DA:409,40
DA:410,40
DA:411,40
DA:412,40
DA:416,40
DA:417,40
DA:418,40
DA:419,40
DA:420,40
DA:421,40
DA:422,40
DA:423,40
DA:424,40
DA:425,40
DA:426,40
DA:427,40
DA:428,40
DA:429,40
DA:430,40
DA:433,40
DA:434,40
DA:435,40
DA:436,40
DA:437,40
DA:438,40
DA:439,40
DA:440,40
DA:441,40
DA:442,40
DA:443,40
DA:444,40
DA:445,40
DA:446,40
DA:447,40
DA:451,40
DA:452,40
DA:453,40
DA:454,40
DA:455,40
DA:456,40
DA:457,40
DA:458,40
DA:459,40
DA:460,40
DA:461,40
DA:462,40
DA:463,40
DA:464,40
DA:465,40
DA:469,40
DA:470,40
DA:471,40
DA:472,40
DA:473,40
DA:474,40
DA:475,40
DA:476,40
DA:477,40
DA:478,40
DA:479,40
DA:480,40
DA:481,40
DA:482,40
DA:483,40
DA:487,40
DA:488,40
DA:489,40
DA:490,40
DA:491,40
DA:492,40
DA:493,40
DA:494,40
DA:495,40
DA:496,40
DA:497,40
DA:498,40
DA:499,40
DA:500,40
DA:501,40
DA:505,40
DA:506,40
DA:507,40
DA:508,40
DA:509,40
DA:510,40
DA:511,40
DA:512,40
DA:513,40
DA:514,40
DA:515,40
DA:516,40
DA:517,40
DA:518,40
DA:519,40
DA:523,40
DA:524,40
DA:525,40
DA:526,40
DA:527,40
DA:528,40
DA:529,40
DA:530,40
DA:531,40
DA:532,40
DA:533,40
DA:534,40
DA:535,40
DA:536,40
DA:537,40
DA:541,40
DA:542,40
DA:543,40
DA:544,40
DA:545,40
DA:546,40
DA:547,40
DA:548,40
DA:549,40
DA:550,40
DA:551,40
DA:552,40
DA:553,40
DA:554,40
DA:555,40
DA:559,40
DA:560,40
DA:561,40
DA:562,40
DA:563,40
DA:564,40
DA:565,40
DA:566,40
DA:567,40
DA:568,40
DA:569,40
DA:570,40
DA:571,40
DA:572,40
DA:573,40
DA:577,40
DA:578,40
DA:579,40
DA:580,40
DA:581,40
DA:582,40
DA:583,40
DA:584,40
DA:585,40
DA:586,40
DA:587,40
DA:588,40
DA:589,40
DA:590,40
DA:591,40
DA:595,40
DA:596,40
DA:597,40
DA:598,40
DA:599,40
DA:600,40
DA:601,40
DA:602,40
DA:603,40
DA:604,40
DA:605,40
DA:606,40
DA:607,40
DA:608,40
DA:609,40
DA:617,40
DA:618,40
DA:619,40
DA:620,40
DA:621,40
DA:622,40
DA:623,40
DA:624,40
DA:625,40
DA:626,40
DA:627,40
DA:628,40
DA:629,40
DA:630,40
DA:631,40
DA:635,40
DA:636,40
DA:637,40
DA:638,40
DA:639,40
DA:640,40
DA:641,40
DA:642,40
DA:643,40
DA:644,40
DA:645,40
DA:646,40
DA:647,40
DA:648,40
DA:649,40
DA:653,40
DA:654,40
DA:655,40
DA:656,40
DA:657,40
DA:658,40
DA:659,40
DA:660,40
DA:661,40
DA:662,40
DA:663,40
DA:664,40
DA:665,40
DA:666,40
DA:667,40
DA:671,40
DA:672,40
DA:673,40
DA:674,40
DA:675,40
DA:676,40
DA:677,40
DA:678,40
DA:679,40
DA:680,40
DA:681,40
DA:682,40
DA:683,40
DA:684,40
DA:685,40
DA:693,40
DA:694,40
DA:695,40
DA:696,40
DA:697,40
DA:698,40
DA:699,40
DA:700,40
DA:701,40
DA:702,40
DA:703,40
DA:704,40
DA:705,40
DA:706,40
DA:707,40
DA:710,40
DA:711,40
DA:712,40
DA:713,40
DA:714,40
DA:715,40
DA:716,40
DA:717,40
DA:718,40
DA:719,40
DA:720,40
DA:721,40
DA:722,40
DA:723,40
DA:724,40
DA:728,40
DA:729,40
DA:730,40
DA:731,40
DA:732,40
DA:733,40
DA:734,40
DA:735,40
DA:736,40
DA:737,40
DA:738,40
DA:739,40
DA:740,40
DA:741,40
DA:742,40
DA:745,40
DA:746,40
DA:747,40
DA:748,40
DA:749,40
DA:750,40
DA:751,40
DA:752,40
DA:753,40
DA:754,40
DA:755,40
DA:756,40
DA:757,40
DA:758,40
DA:759,40
DA:763,40
DA:764,40
DA:765,40
DA:766,40
DA:767,40
DA:768,40
DA:769,40
DA:770,40
DA:771,40
DA:772,40
DA:773,40
DA:774,40
DA:775,40
DA:776,40
DA:777,40
DA:781,40
DA:782,40
DA:783,40
DA:784,40
DA:785,40
DA:786,40
DA:787,40
DA:788,40
DA:789,40
DA:790,40
DA:791,40
DA:792,40
DA:793,40
DA:794,40
DA:795,40
DA:799,40
DA:800,40
DA:801,40
DA:802,40
DA:803,40
DA:804,40
DA:805,40
DA:806,40
DA:807,40
DA:808,40
DA:809,40
DA:810,40
DA:811,40
DA:812,40
DA:813,40
DA:821,40
DA:822,40
DA:823,40
DA:824,40
DA:825,40
DA:826,40
DA:827,40
DA:828,40
DA:829,40
DA:830,40
DA:831,40
DA:832,40
DA:833,40
DA:834,40
DA:835,40
DA:838,40
DA:839,40
DA:840,40
DA:841,40
DA:842,40
DA:843,40
DA:844,40
DA:845,40
DA:846,40
DA:847,40
DA:848,40
DA:849,40
DA:850,40
DA:851,40
DA:852,40
DA:855,40
DA:856,40
DA:857,40
DA:858,40
DA:859,40
DA:860,40
DA:861,40
DA:862,40
DA:863,40
DA:864,40
DA:865,40
DA:866,40
DA:867,40
DA:868,40
DA:869,40
DA:873,40
DA:874,40
DA:875,40
DA:876,40
DA:877,40
DA:878,40
DA:879,40
DA:880,40
DA:881,40
DA:882,40
DA:883,40
DA:884,40
DA:885,40
DA:886,40
DA:887,40
DA:890,40
DA:891,40
DA:892,40
DA:893,40
DA:894,40
DA:895,40
DA:896,40
DA:897,40
DA:898,40
DA:899,40
DA:900,40
DA:901,40
DA:902,40
DA:903,40
DA:904,40
DA:907,40
DA:908,40
DA:909,40
DA:910,40
DA:911,40
DA:912,40
DA:913,40
DA:914,40
DA:915,40
DA:916,40
DA:917,40
DA:918,40
DA:919,40
DA:920,40
DA:921,40
DA:925,40
DA:926,40
DA:927,40
DA:928,40
DA:929,40
DA:930,40
DA:931,40
DA:932,40
DA:933,40
DA:934,40
DA:935,40
DA:936,40
DA:937,40
DA:938,40
DA:939,40
DA:942,40
DA:943,40
DA:944,40
DA:945,40
DA:946,40
DA:947,40
DA:948,40
DA:949,40
DA:950,40
DA:951,40
DA:952,40
DA:953,40
DA:954,40
DA:955,40
DA:956,40
DA:959,40
DA:960,40
DA:961,40
DA:962,40
DA:963,40
DA:964,40
DA:965,40
DA:966,40
DA:967,40
DA:968,40
DA:969,40
DA:970,40
DA:971,40
DA:972,40
DA:973,40
DA:981,40
DA:982,40
DA:983,40
DA:984,40
DA:985,40
DA:986,40
DA:987,40
DA:988,40
DA:989,40
DA:990,40
DA:991,40
DA:992,40
DA:993,40
DA:994,40
DA:995,40
DA:998,40
DA:999,40
DA:1000,40
DA:1001,40
DA:1002,40
DA:1003,40
DA:1004,40
DA:1005,40
DA:1006,40
DA:1007,40
DA:1008,40
DA:1009,40
DA:1010,40
DA:1011,40
DA:1012,40
DA:1016,40
DA:1017,40
DA:1018,40
DA:1019,40
DA:1020,40
DA:1021,40
DA:1022,40
DA:1023,40
DA:1024,40
DA:1025,40
DA:1026,40
DA:1027,40
DA:1028,40
DA:1029,40
DA:1030,40
DA:1033,40
DA:1034,40
DA:1035,40
DA:1036,40
DA:1037,40
DA:1038,40
DA:1039,40
DA:1040,40
DA:1041,40
DA:1042,40
DA:1043,40
DA:1044,40
DA:1045,40
DA:1046,40
DA:1047,40
DA:1051,40
DA:1052,40
DA:1053,40
DA:1054,40
DA:1055,40
DA:1056,40
DA:1057,40
DA:1058,40
DA:1059,40
DA:1060,40
DA:1061,40
DA:1062,40
DA:1063,40
DA:1064,40
DA:1065,40
DA:1068,40
DA:1069,40
DA:1070,40
DA:1071,40
DA:1072,40
DA:1073,40
DA:1074,40
DA:1075,40
DA:1076,40
DA:1077,40
DA:1078,40
DA:1079,40
DA:1080,40
DA:1081,40
DA:1082,40
DA:1085,40
DA:1086,40
DA:1087,40
DA:1088,40
DA:1089,40
DA:1090,40
DA:1091,40
DA:1092,40
DA:1093,40
DA:1094,40
DA:1095,40
DA:1096,40
DA:1097,40
DA:1098,40
DA:1099,40
DA:1107,40
DA:1108,40
DA:1109,40
DA:1110,40
DA:1111,40
DA:1112,40
DA:1113,40
DA:1114,40
DA:1115,40
DA:1116,40
DA:1117,40
DA:1118,40
DA:1119,40
DA:1120,40
DA:1121,40
DA:1124,40
DA:1125,40
DA:1126,40
DA:1127,40
DA:1128,40
DA:1129,40
DA:1130,40
DA:1131,40
DA:1132,40
DA:1133,40
DA:1134,40
DA:1135,40
DA:1136,40
DA:1137,40
DA:1138,40
DA:1142,40
DA:1143,40
DA:1144,40
DA:1145,40
DA:1146,40
DA:1147,40
DA:1148,40
DA:1149,40
DA:1150,40
DA:1151,40
DA:1152,40
DA:1153,40
DA:1154,40
DA:1155,40
DA:1156,40
DA:1159,40
DA:1160,40
DA:1161,40
DA:1162,40
DA:1163,40
DA:1164,40
DA:1165,40
DA:1166,40
DA:1167,40
DA:1168,40
DA:1169,40
DA:1170,40
DA:1171,40
DA:1172,40
DA:1173,40
DA:1177,40
DA:1178,40
DA:1179,40
DA:1180,40
DA:1181,40
DA:1182,40
DA:1183,40
DA:1184,40
DA:1185,40
DA:1186,40
DA:1187,40
DA:1188,40
DA:1189,40
DA:1190,40
DA:1191,40
DA:1194,40
DA:1195,40
DA:1196,40
DA:1197,40
DA:1198,40
DA:1199,40
DA:1200,40
DA:1201,40
DA:1202,40
DA:1203,40
DA:1204,40
DA:1205,40
DA:1206,40
DA:1207,40
DA:1208,40
DA:1212,40
DA:1213,40
DA:1214,40
DA:1215,40
DA:1216,40
DA:1217,40
DA:1218,40
DA:1219,40
DA:1220,40
DA:1221,40
DA:1222,40
DA:1223,40
DA:1224,40
DA:1225,40
DA:1226,40
DA:1230,40
DA:1231,40
DA:1232,40
DA:1233,40
DA:1234,40
DA:1235,40
DA:1236,40
DA:1237,40
DA:1238,40
DA:1239,40
DA:1240,40
DA:1241,40
DA:1242,40
DA:1243,40
DA:1244,40
DA:1248,40
DA:1249,40
DA:1250,40
DA:1251,40
DA:1252,40
DA:1253,40
DA:1254,40
DA:1255,40
DA:1256,40
DA:1257,40
DA:1258,40
DA:1259,40
DA:1260,40
DA:1261,40
DA:1262,40
DA:1265,40
DA:1266,40
DA:1267,40
DA:1268,40
DA:1269,40
DA:1270,40
DA:1271,40
DA:1272,40
DA:1273,40
DA:1274,40
DA:1275,40
DA:1276,40
DA:1277,40
DA:1278,40
DA:1279,40
DA:1283,40
DA:1284,40
DA:1285,40
DA:1286,40
DA:1287,40
DA:1288,40
DA:1289,40
DA:1290,40
DA:1291,40
DA:1292,40
DA:1293,40
DA:1294,40
DA:1295,40
DA:1296,40
DA:1297,40
DA:1301,40
DA:1302,40
DA:1303,40
DA:1304,40
DA:1305,40
DA:1306,40
DA:1307,40
DA:1308,40
DA:1309,40
DA:1310,40
DA:1311,40
DA:1312,40
DA:1313,40
DA:1314,40
DA:1315,40
DA:1319,40
DA:1320,40
DA:1321,40
DA:1322,40
DA:1323,40
DA:1324,40
DA:1325,40
DA:1326,40
DA:1327,40
DA:1328,40
DA:1329,40
DA:1330,40
DA:1331,40
DA:1332,40
DA:1333,40
DA:1337,40
DA:1338,40
DA:1339,40
DA:1340,40
DA:1341,40
DA:1342,40
DA:1343,40
DA:1344,40
DA:1345,40
DA:1346,40
DA:1347,40
DA:1348,40
DA:1349,40
DA:1350,40
DA:1351,40
DA:1355,40
DA:1356,40
DA:1357,40
DA:1358,40
DA:1359,40
DA:1360,40
DA:1361,40
DA:1362,40
DA:1363,40
DA:1364,40
DA:1365,40
DA:1366,40
DA:1367,40
DA:1368,40
DA:1369,40
DA:1373,40
DA:1374,40
DA:1375,40
DA:1376,40
DA:1377,40
DA:1378,40
DA:1379,40
DA:1380,40
DA:1381,40
DA:1382,40
DA:1383,40
DA:1384,40
DA:1385,40
DA:1386,40
DA:1387,40
DA:1390,40
DA:1391,40
DA:1392,40
DA:1393,40
DA:1394,40
DA:1395,40
DA:1396,40
DA:1397,40
DA:1398,40
DA:1399,40
DA:1400,40
DA:1401,40
DA:1402,40
DA:1403,40
DA:1404,40
DA:1408,40
DA:1409,40
DA:1410,40
DA:1411,40
DA:1412,40
DA:1413,40
DA:1414,40
DA:1415,40
DA:1416,40
DA:1417,40
DA:1418,40
DA:1419,40
DA:1420,40
DA:1421,40
DA:1422,40
DA:1426,40
DA:1427,40
DA:1428,40
DA:1429,40
DA:1430,40
DA:1431,40
DA:1432,40
DA:1433,40
DA:1434,40
DA:1435,40
DA:1436,40
DA:1437,40
DA:1438,40
DA:1439,40
DA:1440,40
DA:1444,40
DA:1445,40
DA:1446,40
DA:1447,40
DA:1448,40
DA:1449,40
DA:1450,40
DA:1451,40
DA:1452,40
DA:1453,40
DA:1454,40
DA:1455,40
DA:1456,40
DA:1457,40
DA:1458,40
DA:1462,40
DA:1463,40
DA:1464,40
DA:1465,40
DA:1466,40
DA:1467,40
DA:1468,40
DA:1469,40
DA:1470,40
DA:1471,40
DA:1472,40
DA:1473,40
DA:1474,40
DA:1475,40
DA:1476,40
DA:1480,40
DA:1481,40
DA:1482,40
DA:1483,40
DA:1484,40
DA:1485,40
DA:1486,40
DA:1487,40
DA:1488,40
DA:1489,40
DA:1490,40
DA:1491,40
DA:1492,40
DA:1493,40
DA:1494,40
DA:1498,40
DA:1499,40
DA:1500,40
DA:1501,40
DA:1502,40
DA:1503,40
DA:1504,40
DA:1505,40
DA:1506,40
DA:1507,40
DA:1508,40
DA:1509,40
DA:1510,40
DA:1511,40
DA:1512,40
DA:1516,40
DA:1517,40
DA:1518,40
DA:1519,40
DA:1520,40
DA:1521,40
DA:1522,40
DA:1523,40
DA:1524,40
DA:1525,40
DA:1526,40
DA:1527,40
DA:1528,40
DA:1529,40
DA:1530,40
DA:1541,40
DA:1542,40
DA:1543,40
DA:1544,40
DA:1545,40
DA:1546,40
DA:1547,40
DA:1548,40
DA:1549,40
DA:1550,40
DA:1551,40
DA:1552,40
DA:1553,40
DA:1554,40
DA:1555,40
DA:1559,40
DA:1560,40
DA:1561,40
DA:1562,40
DA:1563,40
DA:1564,40
DA:1565,40
DA:1566,40
DA:1567,40
DA:1568,40
DA:1569,40
DA:1570,40
DA:1571,40
DA:1572,40
DA:1573,40
DA:1581,40
DA:1582,40
DA:1583,40
DA:1584,40
DA:1585,40
DA:1586,40
DA:1587,40
DA:1588,40
DA:1589,40
DA:1590,40
DA:1591,40
DA:1592,40
DA:1593,40
DA:1594,40
DA:1595,40
DA:1598,40
DA:1599,40
DA:1600,40
DA:1601,40
DA:1602,40
DA:1603,40
DA:1604,40
DA:1605,40
DA:1606,40
DA:1607,40
DA:1608,40
DA:1609,40
DA:1610,40
DA:1611,40
DA:1612,40
DA:1620,40
DA:1621,40
DA:1622,40
DA:1623,40
DA:1624,40
DA:1625,40
DA:1626,40
DA:1627,40
DA:1628,40
DA:1629,40
DA:1630,40
DA:1631,40
DA:1632,40
DA:1633,40
DA:1634,40
DA:1638,40
DA:1639,40
DA:1640,40
DA:1641,40
DA:1642,40
DA:1643,40
DA:1644,40
DA:1645,40
DA:1646,40
DA:1647,40
DA:1648,40
DA:1649,40
DA:1650,40
DA:1651,40
DA:1652,40
DA:1656,40
DA:1657,40
DA:1658,40
DA:1659,40
DA:1660,40
DA:1661,40
DA:1662,40
DA:1663,40
DA:1664,40
DA:1665,40
DA:1666,40
DA:1667,40
DA:1668,40
DA:1669,40
DA:1670,40
DA:1674,40
DA:1675,40
DA:1676,40
DA:1677,40
DA:1678,40
DA:1679,40
DA:1680,40
DA:1681,40
DA:1682,40
DA:1683,40
DA:1684,40
DA:1685,40
DA:1686,40
DA:1687,40
DA:1688,40
DA:1692,40
DA:1693,40
DA:1694,40
DA:1695,40
DA:1696,40
DA:1697,40
DA:1698,40
DA:1699,40
DA:1700,40
DA:1701,40
DA:1702,40
DA:1703,40
DA:1704,40
DA:1705,40
DA:1706,40
DA:1713,40
DA:1714,40
DA:1715,40
DA:1716,40
DA:1717,40
DA:1718,40
DA:1719,40
DA:1720,40
DA:1721,40
DA:1722,40
DA:1723,40
DA:1724,40
DA:1725,40
DA:1726,40
DA:1727,40
DA:1730,40
DA:1731,40
DA:1732,40
DA:1733,40
DA:1734,40
DA:1735,40
DA:1736,40
DA:1737,40
DA:1738,40
DA:1739,40
DA:1740,40
DA:1741,40
DA:1742,40
DA:1743,40
DA:1744,40
DA:1753,40
DA:1754,40
DA:1755,40
DA:1756,40
DA:1757,40
DA:1758,40
DA:1759,40
DA:1760,40
DA:1761,40
DA:1762,40
DA:1763,40
DA:1764,40
DA:1765,40
DA:1766,40
DA:1767,40
DA:1772,40
DA:1773,40
DA:1774,40
DA:1775,40
DA:1776,40
DA:1777,40
DA:1778,40
DA:1779,40
DA:1780,40
DA:1781,40
DA:1782,40
DA:1783,40
DA:1784,40
DA:1785,40
DA:1786,40
DA:1791,40
DA:1792,40
DA:1793,40
DA:1794,40
DA:1795,40
DA:1796,40
DA:1797,40
DA:1798,40
DA:1799,40
DA:1800,40
DA:1801,40
DA:1802,40
DA:1803,40
DA:1804,40
DA:1805,40
DA:1810,40
DA:1811,40
DA:1812,40
DA:1813,40
DA:1814,40
DA:1815,40
DA:1816,40
DA:1817,40
DA:1818,40
DA:1819,40
DA:1820,40
DA:1821,40
DA:1822,40
DA:1823,40
DA:1824,40
DA:1832,40
DA:1833,40
DA:1834,40
DA:1835,40
DA:1836,40
DA:1837,40
DA:1838,40
DA:1839,40
DA:1840,40
DA:1841,40
DA:1842,40
DA:1843,40
DA:1844,40
DA:1845,40
DA:1846,40
DA:1850,40
DA:1851,40
DA:1852,40
DA:1853,40
DA:1854,40
DA:1855,40
DA:1856,40
DA:1857,40
DA:1858,40
DA:1859,40
DA:1860,40
DA:1861,40
DA:1862,40
DA:1863,40
DA:1864,40
DA:1868,40
DA:1869,40
DA:1870,40
DA:1871,40
DA:1872,40
DA:1873,40
DA:1874,40
DA:1875,40
DA:1876,40
DA:1877,40
DA:1878,40
DA:1879,40
DA:1880,40
DA:1881,40
DA:1882,40
DA:1890,40
DA:1891,40
DA:1892,40
DA:1893,40
DA:1894,40
DA:1895,40
DA:1896,40
DA:1897,40
DA:1898,40
DA:1899,40
DA:1900,40
DA:1901,40
DA:1902,40
DA:1903,40
DA:1904,40
DA:1912,40
DA:1913,40
DA:1914,40
DA:1915,40
DA:1916,40
DA:1917,40
DA:1918,40
DA:1919,40
DA:1920,40
DA:1921,40
DA:1922,40
DA:1923,40
DA:1924,40
DA:1925,40
DA:1926,40
DA:1930,40
DA:1931,40
DA:1932,40
DA:1933,40
DA:1934,40
DA:1935,40
DA:1936,40
DA:1937,40
DA:1938,40
DA:1939,40
DA:1940,40
DA:1941,40
DA:1942,40
DA:1943,40
DA:1944,40
DA:1948,40
DA:1949,40
DA:1950,40
DA:1951,40
DA:1952,40
DA:1953,40
DA:1954,40
DA:1955,40
DA:1956,40
DA:1957,40
DA:1958,40
DA:1959,40
DA:1960,40
DA:1961,40
DA:1962,40
DA:1966,40
DA:1967,40
DA:1968,40
DA:1969,40
DA:1970,40
DA:1971,40
DA:1972,40
DA:1973,40
DA:1974,40
DA:1975,40
DA:1976,40
DA:1977,40
DA:1978,40
DA:1979,40
DA:1980,40
DA:1988,40
DA:1989,40
DA:1990,40
DA:1991,40
DA:1992,40
DA:1993,40
DA:1994,40
DA:1995,40
DA:1996,40
DA:1997,40
DA:1998,40
DA:1999,40
DA:2000,40
DA:2001,40
DA:2002,40
DA:2010,40
DA:2011,40
DA:2012,40
DA:2013,40
DA:2014,40
DA:2015,40
DA:2016,40
DA:2017,40
DA:2018,40
DA:2019,40
DA:2020,40
DA:2021,40
DA:2022,40
DA:2023,40
DA:2024,40
DA:2031,120
DA:2032,120
DA:2033,120
DA:2034,120
DA:2035,120
DA:2036,120
DA:2037,120
DA:2038,120
DA:2039,120
DA:2040,120
DA:2041,120
DA:2042,120
DA:2043,120
DA:2044,120
DA:2045,120
DA:2046,120
DA:2047,120
DA:2048,120
DA:2055,40
DA:2056,40
DA:2057,40
DA:2058,40
DA:2059,40
DA:2060,40
DA:2061,40
DA:2062,40
DA:2063,40
DA:2064,40
DA:2065,40
DA:2066,40
DA:2067,40
DA:2068,40
DA:2069,40
DA:2073,40
DA:2074,40
DA:2075,40
DA:2076,40
DA:2077,40
DA:2078,40
DA:2079,40
DA:2080,40
DA:2081,40
DA:2082,40
DA:2083,40
DA:2084,40
DA:2085,40
DA:2086,40
DA:2087,40
DA:2091,40
DA:2092,40
DA:2093,40
DA:2094,40
DA:2095,40
DA:2096,40
DA:2097,40
DA:2098,40
DA:2099,40
DA:2100,40
DA:2101,40
DA:2102,40
DA:2103,40
DA:2104,40
DA:2105,40
DA:2109,40
DA:2110,40
DA:2111,40
DA:2112,40
DA:2113,40
DA:2114,40
DA:2115,40
DA:2116,40
DA:2117,40
DA:2118,40
DA:2119,40
DA:2120,40
DA:2121,40
DA:2122,40
DA:2123,40
DA:2127,40
DA:2128,40
DA:2129,40
DA:2130,40
DA:2131,40
DA:2132,40
DA:2133,40
DA:2134,40
DA:2135,40
DA:2136,40
DA:2137,40
DA:2138,40
DA:2139,40
DA:2140,40
DA:2141,40
DA:2148,640
DA:2149,40
DA:2150,40
DA:2151,40
DA:2152,40
DA:2153,40
DA:2154,40
DA:2155,40
DA:2156,40
DA:2157,40
DA:2158,40
DA:2159,40
DA:2160,40
DA:2161,40
DA:2162,40
DA:2163,40
DA:2164,40
DA:2165,640
DA:2166,640
DA:2167,640
DA:2168,640
DA:2169,640
DA:2170,640
DA:2171,640
DA:2172,640
DA:2173,640
DA:2174,640
DA:2175,640
DA:2176,640
DA:2177,640
DA:2178,640
DA:2179,640
DA:2180,640
DA:2181,640
DA:2182,640
DA:2185,40
DA:2186,40
DA:2187,40
DA:2188,40
DA:2189,40
DA:2190,40
DA:2191,40
DA:2192,40
DA:2193,40
DA:2194,40
DA:2195,40
DA:2196,40
DA:2197,40
DA:2198,40
DA:2199,40
DA:2202,40
DA:2203,40
DA:2206,18291
DA:2207,18291
DA:2208,18291
DA:2211,0
DA:2212,0
DA:2213,0
DA:2216,0
DA:2217,0
DA:2218,0
DA:2219,0
DA:2220,0
DA:2224,5934
DA:2225,4775
DA:2226,5934
DA:2227,5934
DA:2229,5934
DA:2232,6490
DA:2233,6490
DA:2234,6490
DA:2237,1999
DA:2238,1999
DA:2239,1999
DA:2242,1926
DA:2243,1926
DA:2244,1926
DA:2247,1927
DA:2248,1927
DA:2249,1927
DA:2252,331
DA:2253,331
DA:2254,331
DA:2257,331
DA:2258,331
DA:2259,331
DA:2262,18329
DA:2263,18329
DA:2264,18329
DA:2267,371
DA:2268,371
DA:2269,371
DA:2273,24646
DA:2274,24646
DA:2276,24646
DA:2278,24630
DA:2280,24619
DA:2282,24616
DA:2284,24589
DA:2285,0
DA:2288,24589
DA:2290,21730
DA:2292,21730
DA:2294,21730
DA:2296,21730
DA:2298,21730
DA:2300,21677
DA:2302,21677
DA:2303,21677
DA:2305,24646
DA:2384,17264
DA:2385,17264
DA:2386,17264
DA:2387,16981
DA:2388,16977
DA:2389,16967
DA:2390,16966
DA:2392,17264
DA:2395,2
DA:2396,2
DA:2397,2
DA:2398,1
DA:2399,0
DA:2401,2
DA:2404,3
DA:2405,3
DA:2406,3
DA:2409,16970
DA:2410,16970
DA:2411,16970
DA:2412,15907
DA:2413,15904
DA:2414,15901
DA:2415,15898
DA:2416,15896
DA:2418,16970
DA:2421,0
DA:2422,0
DA:2423,0
DA:2424,0
DA:2425,0
DA:2428,0
DA:2429,0
DA:2430,0
DA:2431,0
DA:2432,0
DA:2439,2081
DA:2440,2081
DA:2441,2081
DA:2462,1
DA:2463,1
DA:2464,1
DA:2467,1943
DA:2468,1943
DA:2469,1943
DA:2472,2
DA:2473,2
DA:2474,2
DA:2477,1911
DA:2478,1911
DA:2479,1911
DA:2482,1910
DA:2483,1910
DA:2484,1910
DA:2487,1942
DA:2488,1942
DA:2489,1942
DA:2496,356
DA:2497,356
DA:2498,356
DA:2501,359
DA:2502,359
DA:2503,359
DA:2506,14434
DA:2507,14434
DA:2508,14434
DA:2511,13403
DA:2512,523
DA:2513,13403
DA:2514,13403
DA:2515,12882
DA:2516,12882
DA:2517,12881
DA:2518,12881
DA:2519,12880
DA:2520,12880
DA:2521,12880
DA:2522,12880
DA:2523,12880
DA:2525,13403
DA:2529,522
DA:2530,522
DA:2531,522
DA:2532,2
DA:2533,1
DA:2534,0
DA:2535,0
DA:2536,0
DA:2538,522
DA:2542,0
DA:2543,0
DA:2544,0
DA:2548,0
DA:2549,0
DA:2550,0
DA:2553,0
DA:2554,0
DA:2555,0
DA:2558,3204
DA:2559,3204
DA:2560,3204
DA:2563,3062
DA:2564,3062
DA:2565,3062
DA:2568,2993
DA:2569,2993
DA:2570,2993
DA:2573,2965
DA:2574,2965
DA:2575,2965
DA:2583,356
DA:2584,356
DA:2585,356
DA:2589,18304
DA:2590,18304
DA:2591,18304
DA:2595,18300
DA:2596,18300
DA:2597,18300
DA:2601,18321
DA:2602,18321
DA:2603,18321
DA:2607,18312
DA:2608,18312
DA:2609,18312
DA:2616,1
DA:2617,1
DA:2618,1
DA:2619,1
DA:2620,1
DA:2623,1
DA:2624,1
DA:2625,1
DA:2626,1
DA:2627,1
DA:2630,1
DA:2631,1
DA:2632,1
DA:2633,1
DA:2634,1
DA:2637,1
DA:2638,1
DA:2639,1
DA:2640,1
DA:2641,1
DA:2644,1
DA:2645,1
DA:2646,1
DA:2647,1
DA:2648,1
DA:2651,1
DA:2652,1
DA:2653,1
DA:2655,1
DA:2656,1
DA:2657,1
DA:2660,1
DA:2661,1
DA:2662,1
DA:2663,1
DA:2664,1
DA:2665,1
DA:2666,1
DA:2669,1
DA:2670,1
DA:2671,1
DA:2672,1
DA:2673,1
DA:2674,1
DA:2675,1
DA:2678,1
DA:2679,1
DA:2680,1
DA:2681,1
DA:2682,1
DA:2683,1
DA:2684,1
DA:2687,1
DA:2689,1
DA:2690,1
DA:2691,1
DA:2694,1
DA:2695,1
DA:2696,1
DA:2699,1
DA:2700,1
DA:2701,1
DA:2702,1
DA:2705,1
DA:2706,1
DA:2707,1
DA:2710,1
DA:2711,1
DA:2712,1
DA:2713,1
DA:2714,1
DA:2717,1
DA:2718,1
DA:2719,1
DA:2720,1
DA:2723,1
DA:2724,1
DA:2725,1
DA:2726,1
DA:2729,1
DA:2730,1
DA:2731,1
DA:2732,1
DA:2733,1
DA:2734,1
DA:2737,1
DA:2738,1
DA:2739,1
DA:2740,1
DA:2747,1
DA:2748,1
DA:2749,1
DA:2750,1
DA:2751,1
DA:2752,1
DA:2753,1
DA:2756,1
DA:2757,1
DA:2758,1
DA:2759,1
DA:2760,1
DA:2761,1
DA:2764,1
DA:2765,1
DA:2766,1
DA:2767,1
DA:2768,1
DA:2769,1
DA:2772,1
DA:2773,1
DA:2774,1
DA:2775,1
DA:2776,1
DA:2779,1
DA:2780,1
DA:2781,1
DA:2782,1
DA:2783,1
DA:2784,1
DA:2787,1
DA:2788,1
DA:2789,1
DA:2790,1
DA:2791,1
DA:2793,1
DA:2794,1
DA:2795,1
DA:2798,1
DA:2799,1
DA:2800,1
DA:2801,1
DA:2802,1
DA:2803,1
DA:2806,1
DA:2807,1
DA:2808,1
DA:2809,1
DA:2810,1
DA:2811,1
DA:2814,1
DA:2816,1
DA:2817,1
DA:2818,1
DA:2820,1
DA:2821,1
DA:2824,1
DA:2825,1
DA:2826,1
DA:2829,1
DA:2830,1
DA:2831,1
DA:2832,1
DA:2835,1
DA:2836,1
DA:2837,1
DA:2838,1
DA:2839,1
DA:2840,1
DA:2843,1
DA:2844,1
DA:2845,1
DA:2846,1
DA:2847,1
DA:2848,1
DA:2849,1
DA:2850,1
DA:2853,1
DA:2854,1
DA:2855,1
DA:2856,1
DA:2857,1
DA:2858,1
DA:2859,1
DA:2860,1
DA:2863,1
DA:2864,1
DA:2865,1
DA:2866,1
DA:2867,1
DA:2868,1
DA:2869,1
DA:2870,1
DA:2871,1
BRF:0
BRH:0
LF:2060
LH:2024
end_of_record
SF:/app/src/morphology/matcher.rs
FN:20,_RINvNtNtCs4a0SCptkpqe_6glossa10morphology7matcher12match_suffixRNtNtB4_10participle17ParticiplePatternNCNvB12_18analyze_participle0NCB1E_s_0EB6_
FN:20,_RINvNtNtCs4a0SCptkpqe_6glossa10morphology7matcher12match_suffixTReNtNtB4_6models4CaseNtB14_6NumberENCINvNtB4_10declension17match_endings_allNCNvB1E_21analyze_noun_all_into0E0NCB1B_s_0EB6_
FN:20,_RINvNtNtCs4a0SCptkpqe_6glossa10morphology7matcher12match_suffixTReNtNtB4_6models6PersonNtB14_6NumberENCINvNtB4_11conjugation22match_verb_endings_allNCNvB1G_27try_conjugation_pattern_all0E0NCB1D_s_0EB6_
FN:20,_RINvNtNtCs4a0SCptkpqe_6glossa10morphology7matcher12match_suffixTReNtNtB4_6models6PersonNtB14_6NumberENCNvNtB4_11conjugation18match_verb_endings0NCB1D_s_0EB6_
FN:20,_RINvNtNtCs14PW5HJOtOs_6glossa10morphology7matcher12match_suffixRNtNtB4_10participle17ParticiplePatternNCNvB12_18analyze_participle0NCB1E_s_0EB6_
FN:20,_RINvNtNtCs14PW5HJOtOs_6glossa10morphology7matcher12match_suffixTReB10_ENCNvNtB2_5testss_19test_unicode_suffix0NCB19_s_0EB6_
FN:20,_RINvNtNtCs14PW5HJOtOs_6glossa10morphology7matcher12match_suffixTReNtNtB4_6models4CaseNtB14_6NumberENCINvNtB4_10declension17match_endings_allNCNvB1E_21analyze_noun_all_into0E0NCB1B_s_0EB6_
FN:20,_RINvNtNtCs14PW5HJOtOs_6glossa10morphology7matcher12match_suffixTReNtNtB4_6models6PersonNtB14_6NumberENCINvNtB4_11conjugation22match_verb_endings_allNCNvB1G_27try_conjugation_pattern_all0E0NCB1D_s_0EB6_
FN:20,_RINvNtNtCs14PW5HJOtOs_6glossa10morphology7matcher12match_suffixTReNtNtB4_6models6PersonNtB14_6NumberENCNvNtB4_11conjugation18match_verb_endings0NCB1D_s_0EB6_
FN:20,_RINvNtNtCs14PW5HJOtOs_6glossa10morphology7matcher12match_suffixTRelENCNvNtB2_5testss_13test_no_match0NCB16_s_0EB6_
FN:20,_RINvNtNtCs14PW5HJOtOs_6glossa10morphology7matcher12match_suffixTRelENCNvNtB2_5testss_15test_early_exit0NCB16_s_0EB6_
FN:20,_RINvNtNtCs14PW5HJOtOs_6glossa10morphology7matcher12match_suffixTRelENCNvNtB2_5testss_16test_basic_match0NCB16_s_0EB6_
FN:20,_RINvNtNtCs14PW5HJOtOs_6glossa10morphology7matcher12match_suffixTRelENCNvNtB2_5testss_21test_empty_stem_check0NCB16_s_0EB6_
FN:20,_RINvNtNtCs14PW5HJOtOs_6glossa10morphology7matcher12match_suffixTRelENCNvNtB2_5testss_21test_multiple_matches0NCB16_s_0EB6_
FN:20,_RINvNtNtCs14PW5HJOtOs_6glossa10morphology7matcher12match_suffixTRelENCNvNtB2_5testss_27test_callback_mutable_state0NCB16_s_0EB6_
FN:157,_RNCNvNtNtNtCs14PW5HJOtOs_6glossa10morphology7matcher5testss_13test_no_matchs_0B9_
FN:99,_RNCNvNtNtNtCs14PW5HJOtOs_6glossa10morphology7matcher5testss_15test_early_exits_0B9_
FN:54,_RNCNvNtNtNtCs14PW5HJOtOs_6glossa10morphology7matcher5testss_16test_basic_matchs_0B9_
FN:138,_RNCNvNtNtNtCs14PW5HJOtOs_6glossa10morphology7matcher5testss_19test_unicode_suffixs_0B9_
FN:119,_RNCNvNtNtNtCs14PW5HJOtOs_6glossa10morphology7matcher5testss_21test_empty_stem_checks_0B9_
FN:75,_RNCNvNtNtNtCs14PW5HJOtOs_6glossa10morphology7matcher5testss_21test_multiple_matchess_0B9_
FN:175,_RNCNvNtNtNtCs14PW5HJOtOs_6glossa10morphology7matcher5testss_27test_callback_mutable_states_0B9_
FN:149,_RNvNtNtNtCs14PW5HJOtOs_6glossa10morphology7matcher5testss_13test_no_match
FN:91,_RNvNtNtNtCs14PW5HJOtOs_6glossa10morphology7matcher5testss_15test_early_exit
FN:46,_RNvNtNtNtCs14PW5HJOtOs_6glossa10morphology7matcher5testss_16test_basic_match
FN:129,_RNvNtNtNtCs14PW5HJOtOs_6glossa10morphology7matcher5testss_19test_unicode_suffix
FN:110,_RNvNtNtNtCs14PW5HJOtOs_6glossa10morphology7matcher5testss_21test_empty_stem_check
FN:66,_RNvNtNtNtCs14PW5HJOtOs_6glossa10morphology7matcher5testss_21test_multiple_matches
FN:167,_RNvNtNtNtCs14PW5HJOtOs_6glossa10morphology7matcher5testss_27test_callback_mutable_state
FNDA:2279,_RINvNtNtCs4a0SCptkpqe_6glossa10morphology7matcher12match_suffixRNtNtB4_10participle17ParticiplePatternNCNvB12_18analyze_participle0NCB1E_s_0EB6_
FNDA:25085,_RINvNtNtCs4a0SCptkpqe_6glossa10morphology7matcher12match_suffixTReNtNtB4_6models4CaseNtB14_6NumberENCINvNtB4_10declension17match_endings_allNCNvB1E_21analyze_noun_all_into0E0NCB1B_s_0EB6_
FNDA:38072,_RINvNtNtCs4a0SCptkpqe_6glossa10morphology7matcher12match_suffixTReNtNtB4_6models6PersonNtB14_6NumberENCINvNtB4_11conjugation22match_verb_endings_allNCNvB1G_27try_conjugation_pattern_all0E0NCB1D_s_0EB6_
FNDA:2069,_RINvNtNtCs4a0SCptkpqe_6glossa10morphology7matcher12match_suffixTReNtNtB4_6models6PersonNtB14_6NumberENCNvNtB4_11conjugation18match_verb_endings0NCB1D_s_0EB6_
FNDA:1391,_RINvNtNtCs14PW5HJOtOs_6glossa10morphology7matcher12match_suffixRNtNtB4_10participle17ParticiplePatternNCNvB12_18analyze_participle0NCB1E_s_0EB6_
FNDA:1,_RINvNtNtCs14PW5HJOtOs_6glossa10morphology7matcher12match_suffixTReB10_ENCNvNtB2_5testss_19test_unicode_suffix0NCB19_s_0EB6_
FNDA:20980,_RINvNtNtCs14PW5HJOtOs_6glossa10morphology7matcher12match_suffixTReNtNtB4_6models4CaseNtB14_6NumberENCINvNtB4_10declension17match_endings_allNCNvB1E_21analyze_noun_all_into0E0NCB1B_s_0EB6_
FNDA:33464,_RINvNtNtCs14PW5HJOtOs_6glossa10morphology7matcher12match_suffixTReNtNtB4_6models6PersonNtB14_6NumberENCINvNtB4_11conjugation22match_verb_endings_allNCNvB1G_27try_conjugation_pattern_all0E0NCB1D_s_0EB6_
FNDA:48,_RINvNtNtCs14PW5HJOtOs_6glossa10morphology7matcher12match_suffixTReNtNtB4_6models6PersonNtB14_6NumberENCNvNtB4_11conjugation18match_verb_endings0NCB1D_s_0EB6_
FNDA:1,_RINvNtNtCs14PW5HJOtOs_6glossa10morphology7matcher12match_suffixTRelENCNvNtB2_5testss_13test_no_match0NCB16_s_0EB6_
FNDA:1,_RINvNtNtCs14PW5HJOtOs_6glossa10morphology7matcher12match_suffixTRelENCNvNtB2_5testss_15test_early_exit0NCB16_s_0EB6_
FNDA:1,_RINvNtNtCs14PW5HJOtOs_6glossa10morphology7matcher12match_suffixTRelENCNvNtB2_5testss_16test_basic_match0NCB16_s_0EB6_
FNDA:1,_RINvNtNtCs14PW5HJOtOs_6glossa10morphology7matcher12match_suffixTRelENCNvNtB2_5testss_21test_empty_stem_check0NCB16_s_0EB6_
FNDA:1,_RINvNtNtCs14PW5HJOtOs_6glossa10morphology7matcher12match_suffixTRelENCNvNtB2_5testss_21test_multiple_matches0NCB16_s_0EB6_
FNDA:1,_RINvNtNtCs14PW5HJOtOs_6glossa10morphology7matcher12match_suffixTRelENCNvNtB2_5testss_27test_callback_mutable_state0NCB16_s_0EB6_
FNDA:0,_RNCNvNtNtNtCs14PW5HJOtOs_6glossa10morphology7matcher5testss_13test_no_matchs_0B9_
FNDA:1,_RNCNvNtNtNtCs14PW5HJOtOs_6glossa10morphology7matcher5testss_15test_early_exits_0B9_
FNDA:1,_RNCNvNtNtNtCs14PW5HJOtOs_6glossa10morphology7matcher5testss_16test_basic_matchs_0B9_
FNDA:1,_RNCNvNtNtNtCs14PW5HJOtOs_6glossa10morphology7matcher5testss_19test_unicode_suffixs_0B9_
FNDA:0,_RNCNvNtNtNtCs14PW5HJOtOs_6glossa10morphology7matcher5testss_21test_empty_stem_checks_0B9_
FNDA:2,_RNCNvNtNtNtCs14PW5HJOtOs_6glossa10morphology7matcher5testss_21test_multiple_matchess_0B9_
FNDA:2,_RNCNvNtNtNtCs14PW5HJOtOs_6glossa10morphology7matcher5testss_27test_callback_mutable_states_0B9_
FNDA:1,_RNvNtNtNtCs14PW5HJOtOs_6glossa10morphology7matcher5testss_13test_no_match
FNDA:1,_RNvNtNtNtCs14PW5HJOtOs_6glossa10morphology7matcher5testss_15test_early_exit
FNDA:1,_RNvNtNtNtCs14PW5HJOtOs_6glossa10morphology7matcher5testss_16test_basic_match
FNDA:1,_RNvNtNtNtCs14PW5HJOtOs_6glossa10morphology7matcher5testss_19test_unicode_suffix
FNDA:1,_RNvNtNtNtCs14PW5HJOtOs_6glossa10morphology7matcher5testss_21test_empty_stem_check
FNDA:1,_RNvNtNtNtCs14PW5HJOtOs_6glossa10morphology7matcher5testss_21test_multiple_matches
FNDA:1,_RNvNtNtNtCs14PW5HJOtOs_6glossa10morphology7matcher5testss_27test_callback_mutable_state
FNF:15
FNH:13
DA:20,123395
DA:21,123395
DA:22,123395
DA:23,123395
DA:24,123395
DA:25,123395
DA:26,123395
DA:27,123395
DA:29,1015571
DA:30,1015571
DA:31,1015571
DA:34,21142
DA:35,378
DA:36,20764
DA:37,994429
DA:39,123395
DA:46,1
DA:47,1
DA:48,1
DA:50,1
DA:51,1
DA:52,1
DA:54,1
DA:55,1
DA:56,1
DA:57,1
DA:58,1
DA:59,1
DA:62,1
DA:63,1
DA:66,1
DA:68,1
DA:69,1
DA:71,1
DA:72,1
DA:73,1
DA:75,2
DA:76,2
DA:77,2
DA:78,2
DA:85,1
DA:86,1
DA:87,1
DA:88,1
DA:91,1
DA:92,1
DA:93,1
DA:95,1
DA:96,1
DA:97,1
DA:99,1
DA:100,1
DA:101,1
DA:102,1
DA:105,1
DA:106,1
DA:107,1
DA:110,1
DA:112,1
DA:113,1
DA:115,1
DA:116,1
DA:117,1
DA:119,0
DA:120,0
DA:121,0
DA:122,0
DA:125,1
DA:126,1
DA:129,1
DA:131,1
DA:132,1
DA:134,1
DA:135,1
DA:136,1
DA:138,1
DA:139,1
DA:140,1
DA:141,1
DA:144,1
DA:145,1
DA:146,1
DA:149,1
DA:150,1
DA:151,1
DA:153,1
DA:154,1
DA:155,1
DA:157,0
DA:158,0
DA:159,0
DA:160,0
DA:163,1
DA:164,1
DA:167,1
DA:168,1
DA:169,1
DA:171,1
DA:172,1
DA:173,1
DA:175,2
DA:176,2
DA:177,2
DA:178,2
DA:183,1
DA:184,1
BRF:0
BRH:0
LF:106
LH:98
end_of_record
SF:/app/src/morphology/mod.rs
FN:110,_RNCNvNtCs4a0SCptkpqe_6glossa10morphology27analyze_all_from_normalized0B5_
FN:113,_RNCNvNtCs4a0SCptkpqe_6glossa10morphology27analyze_all_from_normalizeds_0B5_
FN:85,_RNvNtCs4a0SCptkpqe_6glossa10morphology11analyze_all
FN:44,_RNvNtCs4a0SCptkpqe_6glossa10morphology18compare_confidenceB3_
FN:159,_RNvNtCs4a0SCptkpqe_6glossa10morphology22is_single_greek_letter
FN:91,_RNvNtCs4a0SCptkpqe_6glossa10morphology27analyze_all_from_normalized
FN:51,_RNvNtCs4a0SCptkpqe_6glossa10morphology7analyze
FN:110,_RNCNvNtCs14PW5HJOtOs_6glossa10morphology27analyze_all_from_normalized0B5_
FN:113,_RNCNvNtCs14PW5HJOtOs_6glossa10morphology27analyze_all_from_normalizeds_0B5_
FN:85,_RNvNtCs14PW5HJOtOs_6glossa10morphology11analyze_all
FN:44,_RNvNtCs14PW5HJOtOs_6glossa10morphology18compare_confidenceB3_
FN:159,_RNvNtCs14PW5HJOtOs_6glossa10morphology22is_single_greek_letter
FN:91,_RNvNtCs14PW5HJOtOs_6glossa10morphology27analyze_all_from_normalized
FN:51,_RNvNtCs14PW5HJOtOs_6glossa10morphology7analyze
FN:177,_RNvNtNtCs14PW5HJOtOs_6glossa10morphology5testss_18test_display_impls
FN:207,_RNvNtNtCs14PW5HJOtOs_6glossa10morphology5testss_19test_analyze_dative
FN:200,_RNvNtNtCs14PW5HJOtOs_6glossa10morphology5testss_21test_analyze_genitive
FN:214,_RNvNtNtCs14PW5HJOtOs_6glossa10morphology5testss_23test_analyze_accusative
FN:193,_RNvNtNtCs14PW5HJOtOs_6glossa10morphology5testss_23test_analyze_nominative
FN:228,_RNvNtNtCs14PW5HJOtOs_6glossa10morphology5testss_25test_analyze_verb_present
FN:243,_RNvNtNtCs14PW5HJOtOs_6glossa10morphology5testss_25test_sort_safety_with_nan
FN:258,_RNvNtNtCs14PW5HJOtOs_6glossa10morphology5testss_26test_unknown_word_fallback
FN:236,_RNvNtNtCs14PW5HJOtOs_6glossa10morphology5testss_27test_analyze_lexicon_lookup
FN:283,_RNvNtNtCs14PW5HJOtOs_6glossa10morphology5testss_28test_ambiguous_word_analysis
FN:221,_RNvNtNtCs14PW5HJOtOs_6glossa10morphology5testss_28test_analyze_verb_imperative
FN:299,_RNvNtNtCs14PW5HJOtOs_6glossa10morphology5testss_31test_analyze_all_coverage_forms
FN:268,_RNvNtNtCs14PW5HJOtOs_6glossa10morphology5testss_33test_single_greek_letter_fallback
FN:250,_RNCNvNtNtCs14PW5HJOtOs_6glossa10morphology5testss_25test_sort_safety_with_nan0B7_
FN:307,_RNCNvNtNtCs14PW5HJOtOs_6glossa10morphology5testss_31test_analyze_all_coverage_forms0B7_
FN:319,_RNCNvNtNtCs14PW5HJOtOs_6glossa10morphology5testss_31test_analyze_all_coverage_formss0_0B7_
FN:327,_RNCNvNtNtCs14PW5HJOtOs_6glossa10morphology5testss_31test_analyze_all_coverage_formss1_0B7_
FN:312,_RNCNvNtNtCs14PW5HJOtOs_6glossa10morphology5testss_31test_analyze_all_coverage_formss_0B7_
FNDA:18665,_RNCNvNtCs4a0SCptkpqe_6glossa10morphology27analyze_all_from_normalized0B5_
FNDA:3911,_RNCNvNtCs4a0SCptkpqe_6glossa10morphology27analyze_all_from_normalizeds_0B5_
FNDA:4475,_RNvNtCs4a0SCptkpqe_6glossa10morphology11analyze_all
FNDA:18667,_RNvNtCs4a0SCptkpqe_6glossa10morphology18compare_confidenceB3_
FNDA:848,_RNvNtCs4a0SCptkpqe_6glossa10morphology22is_single_greek_letter
FNDA:4759,_RNvNtCs4a0SCptkpqe_6glossa10morphology27analyze_all_from_normalized
FNDA:301,_RNvNtCs4a0SCptkpqe_6glossa10morphology7analyze
FNDA:9737,_RNCNvNtCs14PW5HJOtOs_6glossa10morphology27analyze_all_from_normalized0B5_
FNDA:2812,_RNCNvNtCs14PW5HJOtOs_6glossa10morphology27analyze_all_from_normalizeds_0B5_
FNDA:4144,_RNvNtCs14PW5HJOtOs_6glossa10morphology11analyze_all
FNDA:9804,_RNvNtCs14PW5HJOtOs_6glossa10morphology18compare_confidenceB3_
FNDA:1369,_RNvNtCs14PW5HJOtOs_6glossa10morphology22is_single_greek_letter
FNDA:4181,_RNvNtCs14PW5HJOtOs_6glossa10morphology27analyze_all_from_normalized
FNDA:67,_RNvNtCs14PW5HJOtOs_6glossa10morphology7analyze
FNDA:1,_RNvNtNtCs14PW5HJOtOs_6glossa10morphology5testss_18test_display_impls
FNDA:1,_RNvNtNtCs14PW5HJOtOs_6glossa10morphology5testss_19test_analyze_dative
FNDA:1,_RNvNtNtCs14PW5HJOtOs_6glossa10morphology5testss_21test_analyze_genitive
FNDA:1,_RNvNtNtCs14PW5HJOtOs_6glossa10morphology5testss_23test_analyze_accusative
FNDA:1,_RNvNtNtCs14PW5HJOtOs_6glossa10morphology5testss_23test_analyze_nominative
FNDA:1,_RNvNtNtCs14PW5HJOtOs_6glossa10morphology5testss_25test_analyze_verb_present
FNDA:1,_RNvNtNtCs14PW5HJOtOs_6glossa10morphology5testss_25test_sort_safety_with_nan
FNDA:1,_RNvNtNtCs14PW5HJOtOs_6glossa10morphology5testss_26test_unknown_word_fallback
FNDA:1,_RNvNtNtCs14PW5HJOtOs_6glossa10morphology5testss_27test_analyze_lexicon_lookup
FNDA:1,_RNvNtNtCs14PW5HJOtOs_6glossa10morphology5testss_28test_ambiguous_word_analysis
FNDA:1,_RNvNtNtCs14PW5HJOtOs_6glossa10morphology5testss_28test_analyze_verb_imperative
FNDA:1,_RNvNtNtCs14PW5HJOtOs_6glossa10morphology5testss_31test_analyze_all_coverage_forms
FNDA:1,_RNvNtNtCs14PW5HJOtOs_6glossa10morphology5testss_33test_single_greek_letter_fallback
FNDA:1,_RNCNvNtNtCs14PW5HJOtOs_6glossa10morphology5testss_25test_sort_safety_with_nan0B7_
FNDA:2,_RNCNvNtNtCs14PW5HJOtOs_6glossa10morphology5testss_31test_analyze_all_coverage_forms0B7_
FNDA:1,_RNCNvNtNtCs14PW5HJOtOs_6glossa10morphology5testss_31test_analyze_all_coverage_formss0_0B7_
FNDA:1,_RNCNvNtNtCs14PW5HJOtOs_6glossa10morphology5testss_31test_analyze_all_coverage_formss1_0B7_
FNDA:3,_RNCNvNtNtCs14PW5HJOtOs_6glossa10morphology5testss_31test_analyze_all_coverage_formss_0B7_
FNF:25
FNH:25
DA:44,28471
DA:47,28471
DA:48,28471
DA:51,368
DA:52,368
DA:57,368
DA:58,47
DA:59,47
DA:60,47
DA:61,321
DA:64,321
DA:65,321
DA:66,321
DA:67,321
DA:68,368
DA:85,8619
DA:86,8619
DA:87,8619
DA:88,8619
DA:91,8940
DA:94,8940
DA:97,8940
DA:98,5303
DA:99,5303
DA:100,5303
DA:101,5303
DA:104,8940
DA:107,8940
DA:110,28402
DA:113,8940
DA:116,2217
DA:117,1617
DA:118,1617
DA:119,1617
DA:120,1617
DA:121,1617
DA:122,1617
DA:123,1617
DA:124,1617
DA:125,1617
DA:126,1617
DA:127,1617
DA:128,1617
DA:129,1617
DA:130,1617
DA:131,1617
DA:132,1617
DA:133,6723
DA:136,8940
DA:137,600
DA:138,600
DA:139,600
DA:140,600
DA:141,600
DA:142,600
DA:143,600
DA:144,600
DA:145,600
DA:146,600
DA:147,600
DA:148,600
DA:149,8340
DA:151,8940
DA:152,8940
DA:159,2217
DA:160,2217
DA:161,2217
DA:165,1640
DA:166,1640
DA:167,23
DA:168,577
DA:169,577
DA:170,2217
DA:177,1
DA:178,1
DA:179,1
DA:180,1
DA:181,1
DA:182,1
DA:184,1
DA:185,1
DA:187,1
DA:188,1
DA:189,1
DA:190,1
DA:193,1
DA:194,1
DA:195,1
DA:196,1
DA:197,1
DA:200,1
DA:201,1
DA:202,1
DA:203,1
DA:204,1
DA:207,1
DA:208,1
DA:209,1
DA:210,1
DA:211,1
DA:214,1
DA:215,1
DA:216,1
DA:217,1
DA:218,1
DA:221,1
DA:222,1
DA:223,1
DA:224,1
DA:225,1
DA:228,1
DA:229,1
DA:230,1
DA:231,1
DA:232,1
DA:233,1
DA:236,1
DA:237,1
DA:238,1
DA:239,1
DA:240,1
DA:243,1
DA:244,1
DA:245,1
DA:246,1
DA:247,1
DA:250,1
DA:254,1
DA:255,1
DA:258,1
DA:260,1
DA:261,1
DA:262,1
DA:263,1
DA:264,1
DA:265,1
DA:268,1
DA:270,1
DA:271,1
DA:272,1
DA:273,1
DA:277,1
DA:278,1
DA:279,1
DA:280,1
DA:283,1
DA:289,1
DA:290,1
DA:293,3
DA:294,3
DA:296,1
DA:299,1
DA:303,1
DA:304,1
DA:305,1
DA:306,1
DA:307,2
DA:311,1
DA:312,3
DA:315,1
DA:316,1
DA:317,1
DA:318,1
DA:319,1
DA:323,1
DA:324,1
DA:325,1
DA:326,1
DA:327,1
DA:329,1
BRF:0
BRH:0
LF:177
LH:177
end_of_record
SF:/app/src/morphology/models.rs
FN:74,_RNvMNtNtCs4a0SCptkpqe_6glossa10morphology6modelsNtB2_13MorphAnalysis15with_confidence
FN:58,_RNvMNtNtCs4a0SCptkpqe_6glossa10morphology6modelsNtB2_13MorphAnalysis3new
FN:302,_RNvNtNtCs4a0SCptkpqe_6glossa10morphology6models19analyses_compatible
FN:265,_RNvXs0_NtNtCs4a0SCptkpqe_6glossa10morphology6modelsNtB5_6NumberNtNtCs4kUJL3MZFFz_4core3fmt7Display3fmt
FN:274,_RNvXs1_NtNtCs4a0SCptkpqe_6glossa10morphology6modelsNtB5_6GenderNtNtCs4kUJL3MZFFz_4core3fmt7Display3fmt
FN:253,_RNvXs_NtNtCs4a0SCptkpqe_6glossa10morphology6modelsNtB4_4CaseNtNtCs4kUJL3MZFFz_4core3fmt7Display3fmt
FN:302,_RNvNtNtCs14PW5HJOtOs_6glossa10morphology6models19analyses_compatible
FN:74,_RNvMNtNtCs14PW5HJOtOs_6glossa10morphology6modelsNtB2_13MorphAnalysis15with_confidence
FN:58,_RNvMNtNtCs14PW5HJOtOs_6glossa10morphology6modelsNtB2_13MorphAnalysis3new
FN:265,_RNvXs0_NtNtCs14PW5HJOtOs_6glossa10morphology6modelsNtB5_6NumberNtNtCs4kUJL3MZFFz_4core3fmt7Display3fmt
FN:274,_RNvXs1_NtNtCs14PW5HJOtOs_6glossa10morphology6modelsNtB5_6GenderNtNtCs4kUJL3MZFFz_4core3fmt7Display3fmt
FN:253,_RNvXs_NtNtCs14PW5HJOtOs_6glossa10morphology6modelsNtB4_4CaseNtNtCs4kUJL3MZFFz_4core3fmt7Display3fmt
FNDA:3,_RNvMNtNtCs4a0SCptkpqe_6glossa10morphology6modelsNtB2_13MorphAnalysis15with_confidence
FNDA:6,_RNvMNtNtCs4a0SCptkpqe_6glossa10morphology6modelsNtB2_13MorphAnalysis3new
FNDA:5,_RNvNtNtCs4a0SCptkpqe_6glossa10morphology6models19analyses_compatible
FNDA:2,_RNvXs0_NtNtCs4a0SCptkpqe_6glossa10morphology6modelsNtB5_6NumberNtNtCs4kUJL3MZFFz_4core3fmt7Display3fmt
FNDA:3,_RNvXs1_NtNtCs4a0SCptkpqe_6glossa10morphology6modelsNtB5_6GenderNtNtCs4kUJL3MZFFz_4core3fmt7Display3fmt
FNDA:5,_RNvXs_NtNtCs4a0SCptkpqe_6glossa10morphology6modelsNtB4_4CaseNtNtCs4kUJL3MZFFz_4core3fmt7Display3fmt
FNDA:0,_RNvNtNtCs14PW5HJOtOs_6glossa10morphology6models19analyses_compatible
FNDA:2,_RNvMNtNtCs14PW5HJOtOs_6glossa10morphology6modelsNtB2_13MorphAnalysis15with_confidence
FNDA:2,_RNvMNtNtCs14PW5HJOtOs_6glossa10morphology6modelsNtB2_13MorphAnalysis3new
FNDA:20,_RNvXs0_NtNtCs14PW5HJOtOs_6glossa10morphology6modelsNtB5_6NumberNtNtCs4kUJL3MZFFz_4core3fmt7Display3fmt
FNDA:14,_RNvXs1_NtNtCs14PW5HJOtOs_6glossa10morphology6modelsNtB5_6GenderNtNtCs4kUJL3MZFFz_4core3fmt7Display3fmt
FNDA:18,_RNvXs_NtNtCs14PW5HJOtOs_6glossa10morphology6modelsNtB4_4CaseNtNtCs4kUJL3MZFFz_4core3fmt7Display3fmt
FNF:6
FNH:6
DA:58,8
DA:59,8
DA:60,8
DA:61,8
DA:62,8
DA:63,8
DA:64,8
DA:65,8
DA:66,8
DA:67,8
DA:68,8
DA:69,8
DA:70,8
DA:71,8
DA:74,5
DA:75,5
DA:76,5
DA:77,5
DA:253,23
DA:254,23
DA:255,6
DA:256,2
DA:257,4
DA:258,6
DA:259,5
DA:261,23
DA:265,22
DA:266,22
DA:267,20
DA:268,2
DA:270,22
DA:274,17
DA:275,17
DA:276,6
DA:277,2
DA:278,9
DA:280,17
DA:302,5
DA:304,5
DA:305,2
DA:307,1
DA:308,4
DA:311,4
DA:312,1
DA:314,1
DA:315,3
DA:318,3
DA:319,1
DA:321,1
DA:322,2
DA:324,2
DA:325,5
BRF:0
BRH:0
LF:52
LH:52
end_of_record
SF:/app/src/morphology/participle.rs
FN:487,_RNCNCNvNtNtCs4a0SCptkpqe_6glossa10morphology10participle12ALL_PATTERNS00B9_
FN:473,_RNCNvNtNtCs4a0SCptkpqe_6glossa10morphology10participle12ALL_PATTERNS0B7_
FN:514,_RNCNvNtNtCs4a0SCptkpqe_6glossa10morphology10participle18analyze_participles_0B7_
FN:61,_RNvMNtNtCs4a0SCptkpqe_6glossa10morphology10participleNtB2_18ParticipleAnalysis10verb_lemma
FN:508,_RNvNtNtCs4a0SCptkpqe_6glossa10morphology10participle18analyze_participle
FN:487,_RNCNCNvNtNtCs14PW5HJOtOs_6glossa10morphology10participle12ALL_PATTERNS00B9_
FN:473,_RNCNvNtNtCs14PW5HJOtOs_6glossa10morphology10participle12ALL_PATTERNS0B7_
FN:514,_RNCNvNtNtCs14PW5HJOtOs_6glossa10morphology10participle18analyze_participles_0B7_
FN:61,_RNvMNtNtCs14PW5HJOtOs_6glossa10morphology10participleNtB2_18ParticipleAnalysis10verb_lemma
FN:508,_RNvNtNtCs14PW5HJOtOs_6glossa10morphology10participle18analyze_participle
FN:606,_RNvNtNtNtCs14PW5HJOtOs_6glossa10morphology10participle5testss_15test_verb_lemma
FN:591,_RNvNtNtNtCs14PW5HJOtOs_6glossa10morphology10participle5testss_18test_aorist_neuter
FN:584,_RNvNtNtNtCs14PW5HJOtOs_6glossa10morphology10participle5testss_20test_aorist_feminine
FN:575,_RNvNtNtNtCs14PW5HJOtOs_6glossa10morphology10participle5testss_29test_aorist_active_participle
FN:566,_RNvNtNtNtCs14PW5HJOtOs_6glossa10morphology10participle5testss_30test_present_middle_participle
FN:598,_RNvNtNtNtCs14PW5HJOtOs_6glossa10morphology10participle5testss_31test_perfect_passive_participle
FN:558,_RNvNtNtNtCs14PW5HJOtOs_6glossa10morphology10participle5testss_37test_present_active_participle_neuter
FN:550,_RNvNtNtNtCs14PW5HJOtOs_6glossa10morphology10participle5testss_39test_present_active_participle_feminine
FN:539,_RNvNtNtNtCs14PW5HJOtOs_6glossa10morphology10participle5testss_40test_present_active_participle_masculine
FNDA:12672,_RNCNCNvNtNtCs4a0SCptkpqe_6glossa10morphology10participle12ALL_PATTERNS00B9_
FNDA:32,_RNCNvNtNtCs4a0SCptkpqe_6glossa10morphology10participle12ALL_PATTERNS0B7_
FNDA:354,_RNCNvNtNtCs4a0SCptkpqe_6glossa10morphology10participle18analyze_participles_0B7_
FNDA:328,_RNvMNtNtCs4a0SCptkpqe_6glossa10morphology10participleNtB2_18ParticipleAnalysis10verb_lemma
FNDA:2279,_RNvNtNtCs4a0SCptkpqe_6glossa10morphology10participle18analyze_participle
FNDA:396,_RNCNCNvNtNtCs14PW5HJOtOs_6glossa10morphology10participle12ALL_PATTERNS00B9_
FNDA:1,_RNCNvNtNtCs14PW5HJOtOs_6glossa10morphology10participle12ALL_PATTERNS0B7_
FNDA:13,_RNCNvNtNtCs14PW5HJOtOs_6glossa10morphology10participle18analyze_participles_0B7_
FNDA:513,_RNvMNtNtCs14PW5HJOtOs_6glossa10morphology10participleNtB2_18ParticipleAnalysis10verb_lemma
FNDA:1391,_RNvNtNtCs14PW5HJOtOs_6glossa10morphology10participle18analyze_participle
FNDA:1,_RNvNtNtNtCs14PW5HJOtOs_6glossa10morphology10participle5testss_15test_verb_lemma
FNDA:1,_RNvNtNtNtCs14PW5HJOtOs_6glossa10morphology10participle5testss_18test_aorist_neuter
FNDA:1,_RNvNtNtNtCs14PW5HJOtOs_6glossa10morphology10participle5testss_20test_aorist_feminine
FNDA:1,_RNvNtNtNtCs14PW5HJOtOs_6glossa10morphology10participle5testss_29test_aorist_active_participle
FNDA:1,_RNvNtNtNtCs14PW5HJOtOs_6glossa10morphology10participle5testss_30test_present_middle_participle
FNDA:1,_RNvNtNtNtCs14PW5HJOtOs_6glossa10morphology10participle5testss_31test_perfect_passive_participle
FNDA:1,_RNvNtNtNtCs14PW5HJOtOs_6glossa10morphology10participle5testss_37test_present_active_participle_neuter
FNDA:1,_RNvNtNtNtCs14PW5HJOtOs_6glossa10morphology10participle5testss_39test_present_active_participle_feminine
FNDA:1,_RNvNtNtNtCs14PW5HJOtOs_6glossa10morphology10participle5testss_40test_present_active_participle_masculine
FNF:14
FNH:14
DA:61,841
DA:62,841
DA:63,841
DA:473,33
DA:474,33
DA:475,33
DA:476,33
DA:477,33
DA:478,33
DA:480,33
DA:481,33
DA:482,33
DA:483,33
DA:487,13068
DA:489,33
DA:490,33
DA:508,3670
DA:509,3670
DA:510,3670
DA:511,3670
DA:512,3670
DA:514,367
DA:515,367
DA:516,367
DA:517,367
DA:518,367
DA:519,367
DA:520,367
DA:521,367
DA:522,367
DA:523,367
DA:524,367
DA:525,367
DA:527,0
DA:529,367
DA:531,3670
DA:532,3670
DA:539,1
DA:540,1
DA:541,1
DA:542,1
DA:543,1
DA:544,1
DA:545,1
DA:546,1
DA:547,1
DA:550,1
DA:551,1
DA:552,1
DA:553,1
DA:554,1
DA:555,1
DA:558,1
DA:559,1
DA:560,1
DA:561,1
DA:562,1
DA:563,1
DA:566,1
DA:567,1
DA:568,1
DA:569,1
DA:570,1
DA:571,1
DA:572,1
DA:575,1
DA:576,1
DA:577,1
DA:578,1
DA:579,1
DA:580,1
DA:581,1
DA:584,1
DA:585,1
DA:586,1
DA:587,1
DA:588,1
DA:591,1
DA:592,1
DA:593,1
DA:594,1
DA:595,1
DA:598,1
DA:599,1
DA:600,1
DA:601,1
DA:602,1
DA:603,1
DA:606,1
DA:607,1
DA:608,1
DA:609,1
BRF:0
BRH:0
LF:93
LH:92
end_of_record
SF:/app/src/parser/common.rs
FN:22,_RNCNvNtNtCs4a0SCptkpqe_6glossa6parser6common20parse_number_literal0B7_
FN:17,_RNvNtNtCs4a0SCptkpqe_6glossa6parser6common20parse_number_literal
FN:17,_RNvNtNtCs14PW5HJOtOs_6glossa6parser6common20parse_number_literal
FN:22,_RNCNvNtNtCs14PW5HJOtOs_6glossa6parser6common20parse_number_literal0B7_
FNDA:53,_RNCNvNtNtCs4a0SCptkpqe_6glossa6parser6common20parse_number_literal0B7_
FNDA:1005661,_RNvNtNtCs4a0SCptkpqe_6glossa6parser6common20parse_number_literal
FNDA:1345,_RNvNtNtCs14PW5HJOtOs_6glossa6parser6common20parse_number_literal
FNDA:0,_RNCNvNtNtCs14PW5HJOtOs_6glossa6parser6common20parse_number_literal0B7_
FNF:2
FNH:2
DA:17,1007006
DA:18,1007006
DA:19,1006947
DA:21,59
DA:22,59
DA:24,1007006
BRF:0
BRH:0
LF:7
LH:7
end_of_record
SF:/app/src/parser/declarations.rs
FN:199,_RNvNtNtCs4a0SCptkpqe_6glossa6parser12declarations16build_trait_impl
FN:294,_RNvNtNtCs4a0SCptkpqe_6glossa6parser12declarations17build_impl_method
FN:143,_RNvNtNtCs4a0SCptkpqe_6glossa6parser12declarations18build_trait_method
FN:20,_RNvNtNtCs4a0SCptkpqe_6glossa6parser12declarations21build_type_definition
FN:247,_RNvNtNtCs4a0SCptkpqe_6glossa6parser12declarations22build_test_declaration
FN:85,_RNvNtNtCs4a0SCptkpqe_6glossa6parser12declarations22build_trait_definition
FN:56,_RNvNtNtCs4a0SCptkpqe_6glossa6parser12declarations23build_field_declaration
FN:121,_RNvNtNtCs4a0SCptkpqe_6glossa6parser12declarations23parse_method_parameters
FN:199,_RNvNtNtCs14PW5HJOtOs_6glossa6parser12declarations16build_trait_impl
FN:294,_RNvNtNtCs14PW5HJOtOs_6glossa6parser12declarations17build_impl_method
FN:143,_RNvNtNtCs14PW5HJOtOs_6glossa6parser12declarations18build_trait_method
FN:20,_RNvNtNtCs14PW5HJOtOs_6glossa6parser12declarations21build_type_definition
FN:247,_RNvNtNtCs14PW5HJOtOs_6glossa6parser12declarations22build_test_declaration
FN:85,_RNvNtNtCs14PW5HJOtOs_6glossa6parser12declarations22build_trait_definition
FN:56,_RNvNtNtCs14PW5HJOtOs_6glossa6parser12declarations23build_field_declaration
FN:121,_RNvNtNtCs14PW5HJOtOs_6glossa6parser12declarations23parse_method_parameters
FN:394,_RNvNtNtNtCs14PW5HJOtOs_6glossa6parser12declarations14tests_coverages_35test_build_impl_method_missing_name
FN:370,_RNvNtNtNtCs14PW5HJOtOs_6glossa6parser12declarations14tests_coverages_35test_build_trait_impl_missing_names
FN:386,_RNvNtNtNtCs14PW5HJOtOs_6glossa6parser12declarations14tests_coverages_36test_build_trait_method_missing_name
FN:346,_RNvNtNtNtCs14PW5HJOtOs_6glossa6parser12declarations14tests_coverages_39test_build_type_definition_missing_name
FN:378,_RNvNtNtNtCs14PW5HJOtOs_6glossa6parser12declarations14tests_coverages_40test_build_test_declaration_missing_name
FN:362,_RNvNtNtNtCs14PW5HJOtOs_6glossa6parser12declarations14tests_coverages_40test_build_trait_definition_missing_name
FN:354,_RNvNtNtNtCs14PW5HJOtOs_6glossa6parser12declarations14tests_coverages_42test_build_field_declaration_invalid_words
FNDA:23,_RNvNtNtCs4a0SCptkpqe_6glossa6parser12declarations16build_trait_impl
FNDA:23,_RNvNtNtCs4a0SCptkpqe_6glossa6parser12declarations17build_impl_method
FNDA:35,_RNvNtNtCs4a0SCptkpqe_6glossa6parser12declarations18build_trait_method
FNDA:40,_RNvNtNtCs4a0SCptkpqe_6glossa6parser12declarations21build_type_definition
FNDA:14,_RNvNtNtCs4a0SCptkpqe_6glossa6parser12declarations22build_test_declaration
FNDA:31,_RNvNtNtCs4a0SCptkpqe_6glossa6parser12declarations22build_trait_definition
FNDA:41,_RNvNtNtCs4a0SCptkpqe_6glossa6parser12declarations23build_field_declaration
FNDA:58,_RNvNtNtCs4a0SCptkpqe_6glossa6parser12declarations23parse_method_parameters
FNDA:1,_RNvNtNtCs14PW5HJOtOs_6glossa6parser12declarations16build_trait_impl
FNDA:1,_RNvNtNtCs14PW5HJOtOs_6glossa6parser12declarations17build_impl_method
FNDA:3,_RNvNtNtCs14PW5HJOtOs_6glossa6parser12declarations18build_trait_method
FNDA:3,_RNvNtNtCs14PW5HJOtOs_6glossa6parser12declarations21build_type_definition
FNDA:2,_RNvNtNtCs14PW5HJOtOs_6glossa6parser12declarations22build_test_declaration
FNDA:3,_RNvNtNtCs14PW5HJOtOs_6glossa6parser12declarations22build_trait_definition
FNDA:4,_RNvNtNtCs14PW5HJOtOs_6glossa6parser12declarations23build_field_declaration
FNDA:2,_RNvNtNtCs14PW5HJOtOs_6glossa6parser12declarations23parse_method_parameters
FNDA:1,_RNvNtNtNtCs14PW5HJOtOs_6glossa6parser12declarations14tests_coverages_35test_build_impl_method_missing_name
FNDA:1,_RNvNtNtNtCs14PW5HJOtOs_6glossa6parser12declarations14tests_coverages_35test_build_trait_impl_missing_names
FNDA:1,_RNvNtNtNtCs14PW5HJOtOs_6glossa6parser12declarations14tests_coverages_36test_build_trait_method_missing_name
FNDA:1,_RNvNtNtNtCs14PW5HJOtOs_6glossa6parser12declarations14tests_coverages_39test_build_type_definition_missing_name
FNDA:1,_RNvNtNtNtCs14PW5HJOtOs_6glossa6parser12declarations14tests_coverages_40test_build_test_declaration_missing_name
FNDA:1,_RNvNtNtNtCs14PW5HJOtOs_6glossa6parser12declarations14tests_coverages_40test_build_trait_definition_missing_name
FNDA:1,_RNvNtNtNtCs14PW5HJOtOs_6glossa6parser12declarations14tests_coverages_42test_build_field_declaration_invalid_words
FNF:15
FNH:15
DA:20,43
DA:21,43
DA:22,43
DA:23,43
DA:25,163
DA:26,163
DA:27,42
DA:28,42
DA:29,42
DA:30,42
DA:31,42
DA:32,42
DA:33,42
DA:35,86
DA:36,86
DA:37,44
DA:38,42
DA:41,84
DA:45,43
DA:46,1
DA:47,1
DA:48,1
DA:51,42
DA:52,43
DA:56,45
DA:57,45
DA:58,45
DA:60,88
DA:61,88
DA:62,88
DA:63,88
DA:64,88
DA:65,88
DA:66,88
DA:70,45
DA:71,1
DA:72,1
DA:73,1
DA:74,1
DA:75,44
DA:77,44
DA:78,44
DA:79,44
DA:80,44
DA:81,45
DA:85,34
DA:86,34
DA:87,34
DA:88,34
DA:90,131
DA:91,131
DA:92,33
DA:93,33
DA:94,33
DA:95,33
DA:96,33
DA:97,33
DA:98,33
DA:100,64
DA:101,64
DA:102,37
DA:103,27
DA:106,66
DA:110,34
DA:111,1
DA:112,1
DA:113,1
DA:116,33
DA:117,34
DA:121,60
DA:122,60
DA:123,60
DA:124,128
DA:126,68
DA:127,0
DA:128,68
DA:130,68
DA:131,68
DA:132,68
DA:133,68
DA:134,68
DA:135,68
DA:136,68
DA:138,60
DA:139,60
DA:143,38
DA:144,38
DA:145,38
DA:146,38
DA:147,38
DA:148,38
DA:150,170
DA:151,170
DA:152,29
DA:153,29
DA:154,29
DA:155,8
DA:156,8
DA:157,8
DA:158,117
DA:159,117
DA:160,117
DA:161,117
DA:162,117
DA:163,117
DA:165,8
DA:166,8
DA:168,8
DA:174,38
DA:175,1
DA:176,1
DA:177,1
DA:178,37
DA:180,37
DA:183,37
DA:186,37
DA:187,37
DA:188,37
DA:189,37
DA:190,8
DA:192,29
DA:195,38
DA:199,24
DA:200,24
DA:201,24
DA:202,24
DA:203,24
DA:205,137
DA:206,137
DA:209,46
DA:210,23
DA:211,23
DA:212,23
DA:213,23
DA:214,23
DA:215,23
DA:216,23
DA:217,23
DA:218,23
DA:219,23
DA:222,23
DA:223,23
DA:224,23
DA:225,0
DA:228,69
DA:232,24
DA:233,1
DA:234,1
DA:235,1
DA:238,23
DA:239,23
DA:240,23
DA:241,23
DA:242,23
DA:243,24
DA:247,16
DA:248,16
DA:249,16
DA:250,16
DA:252,60
DA:253,60
DA:256,15
DA:257,15
DA:258,15
DA:259,15
DA:264,24
DA:265,24
DA:266,24
DA:267,0
DA:272,0
DA:274,30
DA:275,30
DA:276,30
DA:277,0
DA:278,0
DA:279,0
DA:283,16
DA:284,1
DA:285,1
DA:286,1
DA:289,15
DA:290,16
DA:294,24
DA:295,24
DA:296,24
DA:297,24
DA:299,125
DA:300,125
DA:301,79
DA:302,79
DA:303,79
DA:304,79
DA:305,79
DA:306,79
DA:309,23
DA:311,23
DA:317,24
DA:318,1
DA:319,1
DA:320,1
DA:321,23
DA:323,23
DA:326,23
DA:329,23
DA:330,23
DA:331,23
DA:332,23
DA:334,0
DA:337,24
DA:346,1
DA:347,1
DA:348,1
DA:349,1
DA:350,1
DA:351,1
DA:354,1
DA:355,1
DA:356,1
DA:357,1
DA:358,1
DA:359,1
DA:362,1
DA:363,1
DA:364,1
DA:365,1
DA:366,1
DA:367,1
DA:370,1
DA:371,1
DA:372,1
DA:373,1
DA:374,1
DA:375,1
DA:378,1
DA:379,1
DA:380,1
DA:381,1
DA:382,1
DA:383,1
DA:386,1
DA:387,1
DA:388,1
DA:389,1
DA:390,1
DA:391,1
DA:394,1
DA:395,1
DA:396,1
DA:397,1
DA:398,1
DA:399,1
BRF:0
BRH:0
LF:251
LH:233
end_of_record
SF:/app/src/parser/expressions.rs
FN:34,_RNvNtNtCs4a0SCptkpqe_6glossa6parser11expressions10build_term
FN:144,_RNvNtNtCs4a0SCptkpqe_6glossa6parser11expressions13build_literal
FN:59,_RNvNtNtCs4a0SCptkpqe_6glossa6parser11expressions16build_block_expr
FN:15,_RNvNtNtCs4a0SCptkpqe_6glossa6parser11expressions16build_expression
FN:126,_RNvNtNtCs4a0SCptkpqe_6glossa6parser11expressions17build_unwrap_expr
FN:139,_RNvNtNtCs4a0SCptkpqe_6glossa6parser11expressions19build_array_element
FN:90,_RNvNtNtCs4a0SCptkpqe_6glossa6parser11expressions23build_indexed_word_expr
FN:74,_RNvNtNtCs4a0SCptkpqe_6glossa6parser11expressions24build_array_literal_expr
FN:149,_RNCNvNtNtCs4a0SCptkpqe_6glossa6parser11expressions13build_literal0B7_
FN:150,_RNCNvNtNtCs4a0SCptkpqe_6glossa6parser11expressions13build_literals_0B7_
FN:149,_RNCNvNtNtCs14PW5HJOtOs_6glossa6parser11expressions13build_literal0B7_
FN:150,_RNCNvNtNtCs14PW5HJOtOs_6glossa6parser11expressions13build_literals_0B7_
FN:197,_RNvNtNtNtCs14PW5HJOtOs_6glossa6parser11expressions5testss_26test_build_term_empty_term
FN:181,_RNvNtNtNtCs14PW5HJOtOs_6glossa6parser11expressions5testss_34test_build_literal_unexpected_rule
FN:207,_RNvNtNtNtCs14PW5HJOtOs_6glossa6parser11expressions5testss_37test_build_term_unexpected_inner_rule
FN:221,_RNvNtNtNtCs14PW5HJOtOs_6glossa6parser11expressions5testss_44test_build_indexed_word_expr_unexpected_rule
FN:252,_RNvNtNtNtCs14PW5HJOtOs_6glossa6parser11expressions14tests_coverages_21test_build_term_empty
FN:34,_RNvNtNtCs14PW5HJOtOs_6glossa6parser11expressions10build_term
FN:144,_RNvNtNtCs14PW5HJOtOs_6glossa6parser11expressions13build_literal
FN:59,_RNvNtNtCs14PW5HJOtOs_6glossa6parser11expressions16build_block_expr
FN:15,_RNvNtNtCs14PW5HJOtOs_6glossa6parser11expressions16build_expression
FN:126,_RNvNtNtCs14PW5HJOtOs_6glossa6parser11expressions17build_unwrap_expr
FN:139,_RNvNtNtCs14PW5HJOtOs_6glossa6parser11expressions19build_array_element
FN:90,_RNvNtNtCs14PW5HJOtOs_6glossa6parser11expressions23build_indexed_word_expr
FN:74,_RNvNtNtCs14PW5HJOtOs_6glossa6parser11expressions24build_array_literal_expr
FNDA:2010942,_RNvNtNtCs4a0SCptkpqe_6glossa6parser11expressions10build_term
FNDA:2011024,_RNvNtNtCs4a0SCptkpqe_6glossa6parser11expressions13build_literal
FNDA:6,_RNvNtNtCs4a0SCptkpqe_6glossa6parser11expressions16build_block_expr
FNDA:4789,_RNvNtNtCs4a0SCptkpqe_6glossa6parser11expressions16build_expression
FNDA:8,_RNvNtNtCs4a0SCptkpqe_6glossa6parser11expressions17build_unwrap_expr
FNDA:168,_RNvNtNtCs4a0SCptkpqe_6glossa6parser11expressions19build_array_element
FNDA:4,_RNvNtNtCs4a0SCptkpqe_6glossa6parser11expressions23build_indexed_word_expr
FNDA:59,_RNvNtNtCs4a0SCptkpqe_6glossa6parser11expressions24build_array_literal_expr
FNDA:174,_RNCNvNtNtCs4a0SCptkpqe_6glossa6parser11expressions13build_literal0B7_
FNDA:174,_RNCNvNtNtCs4a0SCptkpqe_6glossa6parser11expressions13build_literals_0B7_
FNDA:19,_RNCNvNtNtCs14PW5HJOtOs_6glossa6parser11expressions13build_literal0B7_
FNDA:19,_RNCNvNtNtCs14PW5HJOtOs_6glossa6parser11expressions13build_literals_0B7_
FNDA:1,_RNvNtNtNtCs14PW5HJOtOs_6glossa6parser11expressions5testss_26test_build_term_empty_term
FNDA:1,_RNvNtNtNtCs14PW5HJOtOs_6glossa6parser11expressions5testss_34test_build_literal_unexpected_rule
FNDA:1,_RNvNtNtNtCs14PW5HJOtOs_6glossa6parser11expressions5testss_37test_build_term_unexpected_inner_rule
FNDA:1,_RNvNtNtNtCs14PW5HJOtOs_6glossa6parser11expressions5testss_44test_build_indexed_word_expr_unexpected_rule
FNDA:1,_RNvNtNtNtCs14PW5HJOtOs_6glossa6parser11expressions14tests_coverages_21test_build_term_empty
FNDA:5506,_RNvNtNtCs14PW5HJOtOs_6glossa6parser11expressions10build_term
FNDA:5500,_RNvNtNtCs14PW5HJOtOs_6glossa6parser11expressions13build_literal
FNDA:4,_RNvNtNtCs14PW5HJOtOs_6glossa6parser11expressions16build_block_expr
FNDA:1407,_RNvNtNtCs14PW5HJOtOs_6glossa6parser11expressions16build_expression
FNDA:1,_RNvNtNtCs14PW5HJOtOs_6glossa6parser11expressions17build_unwrap_expr
FNDA:5,_RNvNtNtCs14PW5HJOtOs_6glossa6parser11expressions19build_array_element
FNDA:1,_RNvNtNtCs14PW5HJOtOs_6glossa6parser11expressions23build_indexed_word_expr
FNDA:2,_RNvNtNtCs14PW5HJOtOs_6glossa6parser11expressions24build_array_literal_expr
FNF:15
FNH:15
DA:15,6196
DA:16,6196
DA:17,6196
DA:19,2016445
DA:20,2016445
DA:21,2016445
DA:22,0
DA:26,6143
DA:27,2027
DA:30,4116
DA:32,6196
DA:34,2016448
DA:35,2016448
DA:37,2016446
DA:38,10
DA:39,61
DA:40,5
DA:43,10
DA:44,10
DA:46,9
DA:49,2016350
DA:51,1
DA:53,2016448
DA:59,10
DA:60,10
DA:61,10
DA:62,12
DA:63,12
DA:64,12
DA:65,0
DA:67,10
DA:68,10
DA:74,61
DA:75,61
DA:76,57
DA:77,57
DA:78,57
DA:79,173
DA:80,173
DA:81,173
DA:82,0
DA:84,57
DA:85,0
DA:87,4
DA:88,61
DA:90,5
DA:91,5
DA:93,5
DA:94,5
DA:95,5
DA:96,5
DA:97,5
DA:99,5
DA:100,5
DA:101,5
DA:102,5
DA:103,5
DA:104,5
DA:106,5
DA:107,5
DA:109,0
DA:110,0
DA:111,0
DA:112,0
DA:114,0
DA:115,0
DA:116,0
DA:117,0
DA:120,5
DA:121,5
DA:122,5
DA:123,5
DA:124,5
DA:126,9
DA:128,9
DA:129,9
DA:130,9
DA:131,9
DA:132,9
DA:133,9
DA:134,9
DA:135,9
DA:136,9
DA:137,9
DA:139,173
DA:140,173
DA:141,173
DA:142,173
DA:144,2016524
DA:145,2016524
DA:147,193
DA:148,193
DA:149,193
DA:150,193
DA:151,193
DA:152,193
DA:155,1007001
DA:156,1006948
DA:159,9
DA:160,9
DA:161,9
DA:163,1009320
DA:164,1009320
DA:165,1009320
DA:166,1009320
DA:167,1
DA:168,1
DA:169,1
DA:170,1
DA:172,2016524
DA:181,1
DA:184,1
DA:185,1
DA:187,1
DA:188,1
DA:189,1
DA:190,1
DA:192,0
DA:194,1
DA:197,1
DA:198,1
DA:199,1
DA:201,1
DA:202,1
DA:203,1
DA:204,1
DA:207,1
DA:208,1
DA:209,1
DA:211,1
DA:212,1
DA:213,1
DA:214,1
DA:215,1
DA:216,0
DA:218,1
DA:221,1
DA:242,1
DA:252,1
DA:253,1
DA:254,1
DA:256,1
DA:257,1
DA:258,1
BRF:0
BRH:0
LF:146
LH:132
end_of_record
SF:/app/src/parser/grammar.rs
FN:116,_RNvNtNtCs4a0SCptkpqe_6glossa6parser7grammar5parse
FN:125,_RNvNtNtNtCs14PW5HJOtOs_6glossa6parser7grammar5testss_23test_parse_hello_cosmos
FN:240,_RNvNtNtNtCs14PW5HJOtOs_6glossa6parser7grammar5testss_23test_parse_line_comment
FN:163,_RNvNtNtNtCs14PW5HJOtOs_6glossa6parser7grammar5testss_23test_parse_variable_use
FN:252,_RNvNtNtNtCs14PW5HJOtOs_6glossa6parser7grammar5testss_25test_parse_inline_comment
FN:185,_RNvNtNtNtCs14PW5HJOtOs_6glossa6parser7grammar5testss_25test_parse_number_literal
FN:152,_RNvNtNtNtCs14PW5HJOtOs_6glossa6parser7grammar5testss_27test_parse_variable_binding
FN:204,_RNvNtNtNtCs14PW5HJOtOs_6glossa6parser7grammar5testss_29test_parse_chained_statements
FN:228,_RNvNtNtNtCs14PW5HJOtOs_6glossa6parser7grammar5testss_30test_parse_ascii_question_mark
FN:216,_RNvNtNtNtCs14PW5HJOtOs_6glossa6parser7grammar5testss_30test_parse_greek_question_mark
FN:174,_RNvNtNtNtCs14PW5HJOtOs_6glossa6parser7grammar5testss_30test_parse_multiple_statements
FN:141,_RNvNtNtNtCs14PW5HJOtOs_6glossa6parser7grammar5testss_30test_parse_simple_string_print
FN:192,_RNvNtNtNtCs14PW5HJOtOs_6glossa6parser7grammar5testss_35test_parse_genitive_property_access
FN:116,_RNvNtNtCs14PW5HJOtOs_6glossa6parser7grammar5parse
FN:268,_RNvNtNtNtCs14PW5HJOtOs_6glossa6parser7grammar14tests_coverages_31test_parse_invalid_syntax_error
FNDA:3332,_RNvNtNtCs4a0SCptkpqe_6glossa6parser7grammar5parse
FNDA:1,_RNvNtNtNtCs14PW5HJOtOs_6glossa6parser7grammar5testss_23test_parse_hello_cosmos
FNDA:1,_RNvNtNtNtCs14PW5HJOtOs_6glossa6parser7grammar5testss_23test_parse_line_comment
FNDA:1,_RNvNtNtNtCs14PW5HJOtOs_6glossa6parser7grammar5testss_23test_parse_variable_use
FNDA:1,_RNvNtNtNtCs14PW5HJOtOs_6glossa6parser7grammar5testss_25test_parse_inline_comment
FNDA:1,_RNvNtNtNtCs14PW5HJOtOs_6glossa6parser7grammar5testss_25test_parse_number_literal
FNDA:1,_RNvNtNtNtCs14PW5HJOtOs_6glossa6parser7grammar5testss_27test_parse_variable_binding
FNDA:1,_RNvNtNtNtCs14PW5HJOtOs_6glossa6parser7grammar5testss_29test_parse_chained_statements
FNDA:1,_RNvNtNtNtCs14PW5HJOtOs_6glossa6parser7grammar5testss_30test_parse_ascii_question_mark
FNDA:1,_RNvNtNtNtCs14PW5HJOtOs_6glossa6parser7grammar5testss_30test_parse_greek_question_mark
FNDA:1,_RNvNtNtNtCs14PW5HJOtOs_6glossa6parser7grammar5testss_30test_parse_multiple_statements
FNDA:1,_RNvNtNtNtCs14PW5HJOtOs_6glossa6parser7grammar5testss_30test_parse_simple_string_print
FNDA:1,_RNvNtNtNtCs14PW5HJOtOs_6glossa6parser7grammar5testss_35test_parse_genitive_property_access
FNDA:145,_RNvNtNtCs14PW5HJOtOs_6glossa6parser7grammar5parse
FNDA:1,_RNvNtNtNtCs14PW5HJOtOs_6glossa6parser7grammar14tests_coverages_31test_parse_invalid_syntax_error
FNF:14
FNH:14
DA:116,3477
DA:117,3477
DA:118,3477
DA:125,1
DA:126,1
DA:127,1
DA:128,1
DA:129,1
DA:131,0
DA:134,1
DA:136,1
DA:137,1
DA:138,1
DA:141,1
DA:142,1
DA:143,1
DA:144,1
DA:145,1
DA:147,0
DA:149,1
DA:152,1
DA:153,1
DA:154,1
DA:155,1
DA:156,1
DA:158,0
DA:160,1
DA:163,1
DA:164,1
DA:165,1
DA:166,1
DA:167,1
DA:169,0
DA:171,1
DA:174,1
DA:175,1
DA:176,1
DA:177,1
DA:178,1
DA:180,0
DA:182,1
DA:185,1
DA:186,1
DA:187,1
DA:188,1
DA:189,1
DA:192,1
DA:194,1
DA:195,1
DA:196,1
DA:197,1
DA:199,0
DA:201,1
DA:204,1
DA:206,1
DA:207,1
DA:208,1
DA:209,1
DA:211,0
DA:213,1
DA:216,1
DA:218,1
DA:219,1
DA:220,1
DA:221,1
DA:223,0
DA:225,1
DA:228,1
DA:230,1
DA:231,1
DA:232,1
DA:233,1
DA:235,0
DA:237,1
DA:240,1
DA:242,1
DA:243,1
DA:244,1
DA:245,1
DA:247,0
DA:249,1
DA:252,1
DA:253,1
DA:254,1
DA:255,1
DA:256,1
DA:258,0
DA:260,1
DA:268,1
DA:269,1
DA:270,1
DA:271,1
DA:272,1
BRF:0
BRH:0
LF:93
LH:82
end_of_record
SF:/app/src/parser/mod.rs
FN:44,_RNvXNtCs4a0SCptkpqe_6glossa6parserNtNtB4_6errors11GlossaErrorINtNtCs4kUJL3MZFFz_4core7convert4FromNtNtB2_6common10ParseErrorE4from
FN:71,_RNCNvNtCs4a0SCptkpqe_6glossa6parser12parse_source0B5_
FN:67,_RNvNtCs4a0SCptkpqe_6glossa6parser12parse_source
FN:92,_RNvNtCs4a0SCptkpqe_6glossa6parser15build_statement
FN:62,_RNvNtCs4a0SCptkpqe_6glossa6parser5parse
FN:44,_RNvXNtCs14PW5HJOtOs_6glossa6parserNtNtB4_6errors11GlossaErrorINtNtCs4kUJL3MZFFz_4core7convert4FromNtNtB2_6common10ParseErrorE4from
FN:67,_RNvNtCs14PW5HJOtOs_6glossa6parser12parse_source
FN:92,_RNvNtCs14PW5HJOtOs_6glossa6parser15build_statement
FN:62,_RNvNtCs14PW5HJOtOs_6glossa6parser5parse
FN:320,_RNvNtNtCs14PW5HJOtOs_6glossa6parser14tests_coverages_35test_parse_empty_statement_handling
FN:308,_RNvNtNtCs14PW5HJOtOs_6glossa6parser14tests_coverages_36test_parse_unexpected_error_handling
FN:71,_RNCNvNtCs14PW5HJOtOs_6glossa6parser12parse_source0B5_
FN:134,_RNvNtNtCs14PW5HJOtOs_6glossa6parser5tests10first_expr
FN:145,_RNvNtNtCs14PW5HJOtOs_6glossa6parser5testss_23test_parse_source_hello
FN:197,_RNvNtNtCs14PW5HJOtOs_6glossa6parser5testss_23test_parse_source_query
FN:213,_RNvNtNtCs14PW5HJOtOs_6glossa6parser5testss_23test_word_normalization
FN:227,_RNvNtNtCs14PW5HJOtOs_6glossa6parser5testss_28test_parse_source_with_comma
FN:237,_RNvNtNtCs14PW5HJOtOs_6glossa6parser5testss_29test_recursion_limit_exceeded
FN:186,_RNvNtNtCs14PW5HJOtOs_6glossa6parser5testss_32test_parse_source_number_literal
FN:154,_RNvNtNtCs14PW5HJOtOs_6glossa6parser5testss_32test_parse_source_string_literal
FN:249,_RNvNtNtCs14PW5HJOtOs_6glossa6parser5testss_33test_recursion_limit_not_exceeded
FN:167,_RNvNtNtCs14PW5HJOtOs_6glossa6parser5testss_34test_parse_source_variable_binding
FN:275,_RNvNtNtCs14PW5HJOtOs_6glossa6parser5testss_35test_recursion_limit_mixed_brackets
FN:205,_RNvNtNtCs14PW5HJOtOs_6glossa6parser5testss_37test_parse_source_multiple_statements
FN:259,_RNvNtNtCs14PW5HJOtOs_6glossa6parser5testss_38test_recursion_limit_ignored_in_string
FN:267,_RNvNtNtCs14PW5HJOtOs_6glossa6parser5testss_39test_recursion_limit_ignored_in_comment
FN:293,_RNvNtNtCs14PW5HJOtOs_6glossa6parser5testss_40test_recursion_limit_unbalanced_but_safe
FNDA:2782,_RNvXNtCs4a0SCptkpqe_6glossa6parserNtNtB4_6errors11GlossaErrorINtNtCs4kUJL3MZFFz_4core7convert4FromNtNtB2_6common10ParseErrorE4from
FNDA:2723,_RNCNvNtCs4a0SCptkpqe_6glossa6parser12parse_source0B5_
FNDA:3338,_RNvNtCs4a0SCptkpqe_6glossa6parser12parse_source
FNDA:830,_RNvNtCs4a0SCptkpqe_6glossa6parser15build_statement
FNDA:3338,_RNvNtCs4a0SCptkpqe_6glossa6parser5parse
FNDA:11,_RNvXNtCs14PW5HJOtOs_6glossa6parserNtNtB4_6errors11GlossaErrorINtNtCs4kUJL3MZFFz_4core7convert4FromNtNtB2_6common10ParseErrorE4from
FNDA:133,_RNvNtCs14PW5HJOtOs_6glossa6parser12parse_source
FNDA:1410,_RNvNtCs14PW5HJOtOs_6glossa6parser15build_statement
FNDA:132,_RNvNtCs14PW5HJOtOs_6glossa6parser5parse
FNDA:1,_RNvNtNtCs14PW5HJOtOs_6glossa6parser14tests_coverages_35test_parse_empty_statement_handling
FNDA:1,_RNvNtNtCs14PW5HJOtOs_6glossa6parser14tests_coverages_36test_parse_unexpected_error_handling
FNDA:11,_RNCNvNtCs14PW5HJOtOs_6glossa6parser12parse_source0B5_
FNDA:4,_RNvNtNtCs14PW5HJOtOs_6glossa6parser5tests10first_expr
FNDA:1,_RNvNtNtCs14PW5HJOtOs_6glossa6parser5testss_23test_parse_source_hello
FNDA:1,_RNvNtNtCs14PW5HJOtOs_6glossa6parser5testss_23test_parse_source_query
FNDA:1,_RNvNtNtCs14PW5HJOtOs_6glossa6parser5testss_23test_word_normalization
FNDA:1,_RNvNtNtCs14PW5HJOtOs_6glossa6parser5testss_28test_parse_source_with_comma
FNDA:1,_RNvNtNtCs14PW5HJOtOs_6glossa6parser5testss_29test_recursion_limit_exceeded
FNDA:1,_RNvNtNtCs14PW5HJOtOs_6glossa6parser5testss_32test_parse_source_number_literal
FNDA:1,_RNvNtNtCs14PW5HJOtOs_6glossa6parser5testss_32test_parse_source_string_literal
FNDA:1,_RNvNtNtCs14PW5HJOtOs_6glossa6parser5testss_33test_recursion_limit_not_exceeded
FNDA:1,_RNvNtNtCs14PW5HJOtOs_6glossa6parser5testss_34test_parse_source_variable_binding
FNDA:1,_RNvNtNtCs14PW5HJOtOs_6glossa6parser5testss_35test_recursion_limit_mixed_brackets
FNDA:1,_RNvNtNtCs14PW5HJOtOs_6glossa6parser5testss_37test_parse_source_multiple_statements
FNDA:1,_RNvNtNtCs14PW5HJOtOs_6glossa6parser5testss_38test_recursion_limit_ignored_in_string
FNDA:1,_RNvNtNtCs14PW5HJOtOs_6glossa6parser5testss_39test_recursion_limit_ignored_in_comment
FNDA:1,_RNvNtNtCs14PW5HJOtOs_6glossa6parser5testss_40test_recursion_limit_unbalanced_but_safe
FNF:22
FNH:22
DA:44,2793
DA:45,2793
DA:46,2793
DA:62,3470
DA:63,3470
DA:64,3470
DA:67,3471
DA:69,3471
DA:71,3464
DA:73,730
DA:75,730
DA:76,730
DA:77,730
DA:80,730
DA:81,2848
DA:82,2848
DA:83,2171
DA:84,677
DA:86,0
DA:89,677
DA:90,3471
DA:92,2240
DA:93,2240
DA:94,2240
DA:95,2240
DA:96,2240
DA:98,2239
DA:100,15
DA:104,42
DA:106,42
DA:111,33
DA:113,33
DA:118,23
DA:119,23
DA:121,2125
DA:122,1
DA:123,1
DA:124,1
DA:125,1
DA:127,2240
DA:134,4
DA:135,4
DA:136,4
DA:137,0
DA:138,0
DA:139,0
DA:140,0
DA:142,4
DA:145,1
DA:146,1
DA:147,1
DA:149,1
DA:150,1
DA:151,1
DA:154,1
DA:155,1
DA:156,1
DA:158,1
DA:159,1
DA:160,1
DA:162,0
DA:164,1
DA:167,1
DA:168,1
DA:169,1
DA:171,1
DA:172,1
DA:175,1
DA:176,1
DA:177,1
DA:178,1
DA:179,0
DA:181,0
DA:183,1
DA:186,1
DA:187,1
DA:188,1
DA:190,1
DA:191,1
DA:192,1
DA:193,0
DA:194,1
DA:197,1
DA:198,1
DA:199,1
DA:201,1
DA:202,1
DA:205,1
DA:206,1
DA:207,1
DA:209,1
DA:210,1
DA:213,1
DA:214,1
DA:215,1
DA:217,1
DA:218,1
DA:219,1
DA:221,1
DA:222,1
DA:223,0
DA:224,1
DA:227,1
DA:229,1
DA:230,1
DA:232,1
DA:233,1
DA:234,1
DA:237,1
DA:240,1
DA:241,1
DA:242,1
DA:243,1
DA:246,1
DA:249,1
DA:252,1
DA:254,1
DA:255,1
DA:256,1
DA:259,1
DA:261,1
DA:262,1
DA:263,1
DA:264,1
DA:267,1
DA:269,1
DA:270,1
DA:271,1
DA:272,1
DA:275,1
DA:279,1
DA:280,1
DA:281,1
DA:282,1
DA:283,1
DA:284,1
DA:285,1
DA:286,1
DA:287,1
DA:290,1
DA:293,1
DA:296,1
DA:297,1
DA:298,1
DA:299,1
DA:300,1
DA:308,1
DA:312,1
DA:313,1
DA:315,1
DA:316,1
DA:317,1
DA:320,1
DA:324,1
DA:325,1
DA:327,1
DA:328,1
DA:329,1
BRF:0
BRH:0
LF:159
LH:147
end_of_record
SF:/app/src/parser/numerals.rs
FN:46,_RNCNvNtNtCs4a0SCptkpqe_6glossa6parser8numerals19parse_greek_numeral0B7_
FN:105,_RNCNvNtNtCs4a0SCptkpqe_6glossa6parser8numerals19parse_greek_numerals0_0B7_
FN:101,_RNCNvNtNtCs4a0SCptkpqe_6glossa6parser8numerals19parse_greek_numerals_0B7_
FN:36,_RNvNtNtCs4a0SCptkpqe_6glossa6parser8numerals19parse_greek_numeral
FN:132,_RNvNtNtNtCs14PW5HJOtOs_6glossa6parser8numerals5testss_10test_teens
FN:125,_RNvNtNtNtCs14PW5HJOtOs_6glossa6parser8numerals5testss_10test_units
FN:160,_RNvNtNtNtCs14PW5HJOtOs_6glossa6parser8numerals5testss_12test_archaic
FN:180,_RNvNtNtNtCs14PW5HJOtOs_6glossa6parser8numerals5testss_12test_invalid
FN:146,_RNvNtNtNtCs14PW5HJOtOs_6glossa6parser8numerals5testss_13test_hundreds
FN:152,_RNvNtNtNtCs14PW5HJOtOs_6glossa6parser8numerals5testss_14test_thousands
FN:202,_RNvNtNtNtCs14PW5HJOtOs_6glossa6parser8numerals5testss_18test_full_coverage
FN:193,_RNvNtNtNtCs14PW5HJOtOs_6glossa6parser8numerals5testss_20test_sigma_uppercase
FN:185,_RNvNtNtNtCs14PW5HJOtOs_6glossa6parser8numerals5testss_9test_2024
FN:139,_RNvNtNtNtCs14PW5HJOtOs_6glossa6parser8numerals5testss_9test_tens
FN:36,_RNvNtNtCs14PW5HJOtOs_6glossa6parser8numerals19parse_greek_numeral
FN:46,_RNCNvNtNtCs14PW5HJOtOs_6glossa6parser8numerals19parse_greek_numeral0B7_
FN:105,_RNCNvNtNtCs14PW5HJOtOs_6glossa6parser8numerals19parse_greek_numerals0_0B7_
FN:101,_RNCNvNtNtCs14PW5HJOtOs_6glossa6parser8numerals19parse_greek_numerals_0B7_
FNDA:102378,_RNCNvNtNtCs4a0SCptkpqe_6glossa6parser8numerals19parse_greek_numeral0B7_
FNDA:0,_RNCNvNtNtCs4a0SCptkpqe_6glossa6parser8numerals19parse_greek_numerals0_0B7_
FNDA:0,_RNCNvNtNtCs4a0SCptkpqe_6glossa6parser8numerals19parse_greek_numerals_0B7_
FNDA:1060,_RNvNtNtCs4a0SCptkpqe_6glossa6parser8numerals19parse_greek_numeral
FNDA:1,_RNvNtNtNtCs14PW5HJOtOs_6glossa6parser8numerals5testss_10test_teens
FNDA:1,_RNvNtNtNtCs14PW5HJOtOs_6glossa6parser8numerals5testss_10test_units
FNDA:1,_RNvNtNtNtCs14PW5HJOtOs_6glossa6parser8numerals5testss_12test_archaic
FNDA:1,_RNvNtNtNtCs14PW5HJOtOs_6glossa6parser8numerals5testss_12test_invalid
FNDA:1,_RNvNtNtNtCs14PW5HJOtOs_6glossa6parser8numerals5testss_13test_hundreds
FNDA:1,_RNvNtNtNtCs14PW5HJOtOs_6glossa6parser8numerals5testss_14test_thousands
FNDA:1,_RNvNtNtNtCs14PW5HJOtOs_6glossa6parser8numerals5testss_18test_full_coverage
FNDA:1,_RNvNtNtNtCs14PW5HJOtOs_6glossa6parser8numerals5testss_20test_sigma_uppercase
FNDA:1,_RNvNtNtNtCs14PW5HJOtOs_6glossa6parser8numerals5testss_9test_2024
FNDA:1,_RNvNtNtNtCs14PW5HJOtOs_6glossa6parser8numerals5testss_9test_tens
FNDA:58,_RNvNtNtCs14PW5HJOtOs_6glossa6parser8numerals19parse_greek_numeral
FNDA:133,_RNCNvNtNtCs14PW5HJOtOs_6glossa6parser8numerals19parse_greek_numeral0B7_
FNDA:0,_RNCNvNtNtCs14PW5HJOtOs_6glossa6parser8numerals19parse_greek_numerals0_0B7_
FNDA:0,_RNCNvNtNtCs14PW5HJOtOs_6glossa6parser8numerals19parse_greek_numerals_0B7_
FNF:14
FNH:12
DA:36,1118
DA:37,1118
DA:38,1118
DA:42,1118
DA:43,1118
DA:44,1118
DA:45,1118
DA:46,102511
DA:48,102241
DA:49,102241
DA:53,74
DA:57,26
DA:58,26
DA:63,102141
DA:64,53
DA:65,45
DA:66,31
DA:67,32
DA:68,68
DA:69,43
DA:70,35
DA:71,45
DA:72,50
DA:73,109
DA:74,31
DA:75,34
DA:76,24
DA:77,36
DA:78,33
DA:79,53
DA:80,29
DA:81,52
DA:82,35
DA:83,31
DA:84,22
DA:85,85
DA:86,29
DA:87,30
DA:88,26
DA:89,56
DA:90,100034
DA:92,990
DA:93,990
DA:94,990
DA:95,990
DA:99,101151
DA:100,101151
DA:101,101151
DA:103,101151
DA:104,101151
DA:105,101151
DA:108,101151
DA:113,128
DA:114,30
DA:115,98
DA:117,98
DA:118,1118
DA:125,1
DA:126,1
DA:127,1
DA:128,1
DA:129,1
DA:132,1
DA:133,1
DA:134,1
DA:135,1
DA:136,1
DA:139,1
DA:140,1
DA:141,1
DA:142,1
DA:143,1
DA:146,1
DA:147,1
DA:148,1
DA:149,1
DA:152,1
DA:153,1
DA:154,1
DA:155,1
DA:156,1
DA:157,1
DA:160,1
DA:162,1
DA:163,1
DA:166,1
DA:167,1
DA:170,1
DA:171,1
DA:174,1
DA:176,1
DA:177,1
DA:180,1
DA:181,1
DA:182,1
DA:185,1
DA:189,1
DA:190,1
DA:193,1
DA:196,1
DA:197,1
DA:198,1
DA:199,1
DA:202,1
DA:204,1
DA:205,1
DA:206,1
DA:207,1
DA:208,1
DA:209,1
DA:210,1
DA:211,1
DA:212,1
DA:213,1
DA:214,1
DA:215,1
DA:216,1
DA:217,1
DA:218,1
DA:219,1
DA:220,1
DA:221,1
DA:222,1
DA:223,1
DA:224,1
DA:225,1
DA:226,1
DA:227,1
DA:228,1
DA:229,1
DA:230,1
DA:231,1
DA:232,1
DA:233,1
DA:234,1
DA:235,1
DA:237,30
DA:239,30
DA:240,30
DA:241,30
DA:247,1
BRF:0
BRH:0
LF:144
LH:142
end_of_record
SF:/app/src/parser/recursion.rs
FN:12,_RNvNtNtCs4a0SCptkpqe_6glossa6parser9recursion21check_recursion_depth
FN:12,_RNvNtNtCs14PW5HJOtOs_6glossa6parser9recursion21check_recursion_depth
FNDA:3338,_RNvNtNtCs4a0SCptkpqe_6glossa6parser9recursion21check_recursion_depth
FNDA:138,_RNvNtNtCs14PW5HJOtOs_6glossa6parser9recursion21check_recursion_depth
FNF:1
FNH:1
DA:12,3476
DA:14,3476
DA:15,3476
DA:16,3476
DA:17,3476
DA:24,20226768
DA:25,20223300
DA:26,20223300
DA:28,8545
DA:29,492
DA:30,492
DA:31,8053
DA:32,8053
DA:33,8053
DA:40,20214755
DA:42,518
DA:43,518
DA:44,2
DA:45,516
DA:47,516
DA:48,516
DA:49,20214237
DA:52,20214237
DA:54,15
DA:56,15
DA:57,15
DA:58,20214222
DA:60,3972
DA:62,3972
DA:63,579
DA:64,579
DA:65,579
DA:67,3270
DA:68,3270
DA:69,6
DA:70,3264
DA:71,3264
DA:73,1293
DA:74,1293
DA:75,1293
DA:76,1293
DA:77,825
DA:79,43
DA:80,2335
DA:81,2316
DA:82,2316
DA:83,2316
DA:84,24
DA:85,2292
DA:88,20209037
DA:89,20209037
DA:90,20209037
DA:94,3468
DA:95,3476
BRF:0
BRH:0
LF:54
LH:54
end_of_record
SF:/app/src/parser/statements.rs
FN:45,_RNvNtNtCs4a0SCptkpqe_6glossa6parser10statements12build_clause
FN:30,_RNvNtNtCs4a0SCptkpqe_6glossa6parser10statements13build_clauses
FN:57,_RNvNtNtCs4a0SCptkpqe_6glossa6parser10statements19parse_statement_end
FN:10,_RNvNtNtCs4a0SCptkpqe_6glossa6parser10statements23build_regular_statement
FN:77,_RNvNtNtNtCs14PW5HJOtOs_6glossa6parser10statements14tests_coverages_40test_build_regular_statement_missing_end
FN:45,_RNvNtNtCs14PW5HJOtOs_6glossa6parser10statements12build_clause
FN:30,_RNvNtNtCs14PW5HJOtOs_6glossa6parser10statements13build_clauses
FN:57,_RNvNtNtCs14PW5HJOtOs_6glossa6parser10statements19parse_statement_end
FN:10,_RNvNtNtCs14PW5HJOtOs_6glossa6parser10statements23build_regular_statement
FNDA:2751,_RNvNtNtCs4a0SCptkpqe_6glossa6parser10statements12build_clause
FNDA:722,_RNvNtNtCs4a0SCptkpqe_6glossa6parser10statements13build_clauses
FNDA:669,_RNvNtNtCs4a0SCptkpqe_6glossa6parser10statements19parse_statement_end
FNDA:722,_RNvNtNtCs4a0SCptkpqe_6glossa6parser10statements23build_regular_statement
FNDA:1,_RNvNtNtNtCs14PW5HJOtOs_6glossa6parser10statements14tests_coverages_40test_build_regular_statement_missing_end
FNDA:1406,_RNvNtNtCs14PW5HJOtOs_6glossa6parser10statements12build_clause
FNDA:1404,_RNvNtNtCs14PW5HJOtOs_6glossa6parser10statements13build_clauses
FNDA:1403,_RNvNtNtCs14PW5HJOtOs_6glossa6parser10statements19parse_statement_end
FNDA:1404,_RNvNtNtCs14PW5HJOtOs_6glossa6parser10statements23build_regular_statement
FNF:5
FNH:5
DA:10,2126
DA:11,2126
DA:12,2126
DA:13,2126
DA:14,2126
DA:15,2073
DA:16,2073
DA:17,2073
DA:18,2072
DA:19,2072
DA:20,2072
DA:21,2072
DA:22,2072
DA:23,2072
DA:24,2126
DA:30,2126
DA:31,2126
DA:32,2126
DA:33,6188
DA:34,6188
DA:35,4157
DA:36,2031
DA:38,2073
DA:39,2126
DA:45,4157
DA:46,4157
DA:47,4157
DA:49,8215
DA:50,8215
DA:51,6186
DA:52,2029
DA:54,4104
DA:55,4157
DA:57,2072
DA:58,2072
DA:59,2072
DA:60,2072
DA:61,2072
DA:62,10
DA:63,12
DA:64,2050
DA:67,2072
DA:68,2072
DA:77,1
DA:78,1
DA:79,1
DA:81,1
DA:82,1
DA:84,1
DA:85,1
DA:86,1
BRF:0
BRH:0
LF:51
LH:51
end_of_record
SF:/app/src/semantic/analyzer.rs
FN:161,_RNvNtNtCs4a0SCptkpqe_6glossa8semantic8analyzer15analyze_program
FN:72,_RNvNtNtCs4a0SCptkpqe_6glossa8semantic8analyzer17analyze_statement
FN:146,_RNvNtNtCs4a0SCptkpqe_6glossa8semantic8analyzer24extract_block_statements
FN:79,_RNvNtNtCs4a0SCptkpqe_6glossa8semantic8analyzer27analyze_statement_recursive
FN:104,_RNCNvNtNtCs4a0SCptkpqe_6glossa8semantic8analyzer27analyze_statement_recursive0B7_
FN:132,_RNCNvNtNtCs4a0SCptkpqe_6glossa8semantic8analyzer27analyze_statement_recursives_0B7_
FN:161,_RNvNtNtCs14PW5HJOtOs_6glossa8semantic8analyzer15analyze_program
FN:72,_RNvNtNtCs14PW5HJOtOs_6glossa8semantic8analyzer17analyze_statement
FN:146,_RNvNtNtCs14PW5HJOtOs_6glossa8semantic8analyzer24extract_block_statements
FN:79,_RNvNtNtCs14PW5HJOtOs_6glossa8semantic8analyzer27analyze_statement_recursive
FN:104,_RNCNvNtNtCs14PW5HJOtOs_6glossa8semantic8analyzer27analyze_statement_recursive0B7_
FN:132,_RNCNvNtNtCs14PW5HJOtOs_6glossa8semantic8analyzer27analyze_statement_recursives_0B7_
FNDA:1256,_RNvNtNtCs4a0SCptkpqe_6glossa8semantic8analyzer15analyze_program
FNDA:795,_RNvNtNtCs4a0SCptkpqe_6glossa8semantic8analyzer17analyze_statement
FNDA:700,_RNvNtNtCs4a0SCptkpqe_6glossa8semantic8analyzer24extract_block_statements
FNDA:799,_RNvNtNtCs4a0SCptkpqe_6glossa8semantic8analyzer27analyze_statement_recursive
FNDA:12,_RNCNvNtNtCs4a0SCptkpqe_6glossa8semantic8analyzer27analyze_statement_recursive0B7_
FNDA:3,_RNCNvNtNtCs4a0SCptkpqe_6glossa8semantic8analyzer27analyze_statement_recursives_0B7_
FNDA:79,_RNvNtNtCs14PW5HJOtOs_6glossa8semantic8analyzer15analyze_program
FNDA:1373,_RNvNtNtCs14PW5HJOtOs_6glossa8semantic8analyzer17analyze_statement
FNDA:1365,_RNvNtNtCs14PW5HJOtOs_6glossa8semantic8analyzer24extract_block_statements
FNDA:1373,_RNvNtNtCs14PW5HJOtOs_6glossa8semantic8analyzer27analyze_statement_recursive
FNDA:0,_RNCNvNtNtCs14PW5HJOtOs_6glossa8semantic8analyzer27analyze_statement_recursive0B7_
FNDA:0,_RNCNvNtNtCs14PW5HJOtOs_6glossa8semantic8analyzer27analyze_statement_recursives_0B7_
FNF:6
FNH:6
DA:72,2168
DA:73,2168
DA:74,2168
DA:75,2168
DA:76,2168
DA:77,2168
DA:79,2172
DA:80,2172
DA:81,2172
DA:82,2172
DA:83,2172
DA:84,2172
DA:85,0
DA:86,0
DA:87,0
DA:88,2172
DA:91,2172
DA:92,18
DA:96,18
DA:97,18
DA:98,18
DA:100,18
DA:102,18
DA:103,18
DA:104,18
DA:105,18
DA:106,18
DA:107,0
DA:108,18
DA:109,2154
DA:112,2154
DA:113,48
DA:114,2094
DA:117,2094
DA:118,27
DA:119,2066
DA:122,2066
DA:123,1
DA:124,2065
DA:127,2065
DA:129,3
DA:132,3
DA:133,4
DA:134,4
DA:136,3
DA:137,3
DA:138,2062
DA:141,2062
DA:142,2056
DA:143,2048
DA:144,2172
DA:146,2065
DA:147,2065
DA:148,2065
DA:149,2063
DA:150,2063
DA:152,3
DA:154,2062
DA:156,2065
DA:161,1335
DA:162,1335
DA:164,565
DA:166,565
DA:168,2054
DA:170,2054
DA:171,37
DA:172,34
DA:173,2017
DA:176,2017
DA:177,27
DA:178,26
DA:179,1990
DA:182,1990
DA:183,20
DA:184,17
DA:185,1970
DA:188,1970
DA:189,9
DA:190,8
DA:191,1961
DA:194,1961
DA:197,541
DA:198,541
DA:199,541
DA:200,541
DA:202,541
DA:204,541
DA:205,1335
BRF:0
BRH:0
LF:90
LH:86
end_of_record
SF:/app/src/semantic/assembly/mod.rs
FN:342,_RNvMNtNtCs4a0SCptkpqe_6glossa8semantic8assemblyNtB2_9Assembler10feed_array
FN:357,_RNvMNtNtCs4a0SCptkpqe_6glossa8semantic8assemblyNtB2_9Assembler10feed_block
FN:172,_RNvMNtNtCs4a0SCptkpqe_6glossa8semantic8assemblyNtB2_9Assembler11check_limit
FN:310,_RNvMNtNtCs4a0SCptkpqe_6glossa8semantic8assemblyNtB2_9Assembler11feed_number
FN:295,_RNvMNtNtCs4a0SCptkpqe_6glossa8semantic8assemblyNtB2_9Assembler11feed_string
FN:427,_RNvMNtNtCs4a0SCptkpqe_6glossa8semantic8assemblyNtB2_9Assembler11feed_unwrap
FN:556,_RNvMNtNtCs4a0SCptkpqe_6glossa8semantic8assemblyNtB2_9Assembler11handle_verb
FN:325,_RNvMNtNtCs4a0SCptkpqe_6glossa8semantic8assemblyNtB2_9Assembler12feed_boolean
FN:524,_RNvMNtNtCs4a0SCptkpqe_6glossa8semantic8assemblyNtB2_9Assembler13handle_dative
FN:201,_RNvMNtNtCs4a0SCptkpqe_6glossa8semantic8assemblyNtB2_9Assembler13set_propagate
FN:475,_RNvMNtNtCs4a0SCptkpqe_6glossa8semantic8assemblyNtB2_9Assembler14handle_nominal
FN:882,_RNvMNtNtCs4a0SCptkpqe_6glossa8semantic8assemblyNtB2_9Assembler15check_agreement
FN:805,_RNvMNtNtCs4a0SCptkpqe_6glossa8semantic8assemblyNtB2_9Assembler15check_operators
FN:453,_RNvMNtNtCs4a0SCptkpqe_6glossa8semantic8assemblyNtB2_9Assembler15feed_participle
FN:532,_RNvMNtNtCs4a0SCptkpqe_6glossa8semantic8assemblyNtB2_9Assembler15handle_genitive
FN:538,_RNvMNtNtCs4a0SCptkpqe_6glossa8semantic8assemblyNtB2_9Assembler15handle_vocative
FN:584,_RNvMNtNtCs4a0SCptkpqe_6glossa8semantic8assemblyNtB2_9Assembler16handle_adjective
FN:402,_RNvMNtNtCs4a0SCptkpqe_6glossa8semantic8assemblyNtB2_9Assembler17feed_index_access
FN:517,_RNvMNtNtCs4a0SCptkpqe_6glossa8semantic8assemblyNtB2_9Assembler17handle_accusative
FN:500,_RNvMNtNtCs4a0SCptkpqe_6glossa8semantic8assemblyNtB2_9Assembler17handle_nominative
FN:789,_RNvMNtNtCs4a0SCptkpqe_6glossa8semantic8assemblyNtB2_9Assembler18check_method_verbs
FN:696,_RNvMNtNtCs4a0SCptkpqe_6glossa8semantic8assemblyNtB2_9Assembler18check_missing_verb
FN:376,_RNvMNtNtCs4a0SCptkpqe_6glossa8semantic8assemblyNtB2_9Assembler18feed_nested_phrase
FN:545,_RNvMNtNtCs4a0SCptkpqe_6glossa8semantic8assemblyNtB2_9Assembler19handle_unknown_case
FN:250,_RNvMNtNtCs4a0SCptkpqe_6glossa8semantic8assemblyNtB2_9Assembler20feed_with_normalized
FN:735,_RNvMNtNtCs4a0SCptkpqe_6glossa8semantic8assemblyNtB2_9Assembler21check_special_markers
FN:833,_RNvMNtNtCs4a0SCptkpqe_6glossa8semantic8assemblyNtB2_9Assembler24check_special_properties
FN:761,_RNvMNtNtCs4a0SCptkpqe_6glossa8semantic8assemblyNtB2_9Assembler24try_create_string_method
FN:191,_RNvMNtNtCs4a0SCptkpqe_6glossa8semantic8assemblyNtB2_9Assembler3new
FN:234,_RNvMNtNtCs4a0SCptkpqe_6glossa8semantic8assemblyNtB2_9Assembler4feed
FN:632,_RNvMNtNtCs4a0SCptkpqe_6glossa8semantic8assemblyNtB2_9Assembler8finalize
FN:197,_RNvMNtNtCs4a0SCptkpqe_6glossa8semantic8assemblyNtB2_9Assembler9set_query
FN:915,_RNvXs_NtNtCs4a0SCptkpqe_6glossa8semantic8assemblyNtB4_9AssemblerNtNtCs4kUJL3MZFFz_4core7default7Default7default
FN:746,_RNCNvMNtNtCs4a0SCptkpqe_6glossa8semantic8assemblyNtB4_9Assembler21check_special_markers0B8_
FN:915,_RNvXs_NtNtCs14PW5HJOtOs_6glossa8semantic8assemblyNtB4_9AssemblerNtNtCs4kUJL3MZFFz_4core7default7Default7default
FN:746,_RNCNvMNtNtCs14PW5HJOtOs_6glossa8semantic8assemblyNtB4_9Assembler21check_special_markers0B8_
FN:342,_RNvMNtNtCs14PW5HJOtOs_6glossa8semantic8assemblyNtB2_9Assembler10feed_array
FN:357,_RNvMNtNtCs14PW5HJOtOs_6glossa8semantic8assemblyNtB2_9Assembler10feed_block
FN:172,_RNvMNtNtCs14PW5HJOtOs_6glossa8semantic8assemblyNtB2_9Assembler11check_limit
FN:310,_RNvMNtNtCs14PW5HJOtOs_6glossa8semantic8assemblyNtB2_9Assembler11feed_number
FN:295,_RNvMNtNtCs14PW5HJOtOs_6glossa8semantic8assemblyNtB2_9Assembler11feed_string
FN:427,_RNvMNtNtCs14PW5HJOtOs_6glossa8semantic8assemblyNtB2_9Assembler11feed_unwrap
FN:556,_RNvMNtNtCs14PW5HJOtOs_6glossa8semantic8assemblyNtB2_9Assembler11handle_verb
FN:325,_RNvMNtNtCs14PW5HJOtOs_6glossa8semantic8assemblyNtB2_9Assembler12feed_boolean
FN:524,_RNvMNtNtCs14PW5HJOtOs_6glossa8semantic8assemblyNtB2_9Assembler13handle_dative
FN:201,_RNvMNtNtCs14PW5HJOtOs_6glossa8semantic8assemblyNtB2_9Assembler13set_propagate
FN:475,_RNvMNtNtCs14PW5HJOtOs_6glossa8semantic8assemblyNtB2_9Assembler14handle_nominal
FN:882,_RNvMNtNtCs14PW5HJOtOs_6glossa8semantic8assemblyNtB2_9Assembler15check_agreement
FN:805,_RNvMNtNtCs14PW5HJOtOs_6glossa8semantic8assemblyNtB2_9Assembler15check_operators
FN:453,_RNvMNtNtCs14PW5HJOtOs_6glossa8semantic8assemblyNtB2_9Assembler15feed_participle
FN:532,_RNvMNtNtCs14PW5HJOtOs_6glossa8semantic8assemblyNtB2_9Assembler15handle_genitive
FN:538,_RNvMNtNtCs14PW5HJOtOs_6glossa8semantic8assemblyNtB2_9Assembler15handle_vocative
FN:584,_RNvMNtNtCs14PW5HJOtOs_6glossa8semantic8assemblyNtB2_9Assembler16handle_adjective
FN:402,_RNvMNtNtCs14PW5HJOtOs_6glossa8semantic8assemblyNtB2_9Assembler17feed_index_access
FN:517,_RNvMNtNtCs14PW5HJOtOs_6glossa8semantic8assemblyNtB2_9Assembler17handle_accusative
FN:500,_RNvMNtNtCs14PW5HJOtOs_6glossa8semantic8assemblyNtB2_9Assembler17handle_nominative
FN:789,_RNvMNtNtCs14PW5HJOtOs_6glossa8semantic8assemblyNtB2_9Assembler18check_method_verbs
FN:696,_RNvMNtNtCs14PW5HJOtOs_6glossa8semantic8assemblyNtB2_9Assembler18check_missing_verb
FN:376,_RNvMNtNtCs14PW5HJOtOs_6glossa8semantic8assemblyNtB2_9Assembler18feed_nested_phrase
FN:545,_RNvMNtNtCs14PW5HJOtOs_6glossa8semantic8assemblyNtB2_9Assembler19handle_unknown_case
FN:250,_RNvMNtNtCs14PW5HJOtOs_6glossa8semantic8assemblyNtB2_9Assembler20feed_with_normalized
FN:735,_RNvMNtNtCs14PW5HJOtOs_6glossa8semantic8assemblyNtB2_9Assembler21check_special_markers
FN:833,_RNvMNtNtCs14PW5HJOtOs_6glossa8semantic8assemblyNtB2_9Assembler24check_special_properties
FN:761,_RNvMNtNtCs14PW5HJOtOs_6glossa8semantic8assemblyNtB2_9Assembler24try_create_string_method
FN:191,_RNvMNtNtCs14PW5HJOtOs_6glossa8semantic8assemblyNtB2_9Assembler3new
FN:234,_RNvMNtNtCs14PW5HJOtOs_6glossa8semantic8assemblyNtB2_9Assembler4feed
FN:632,_RNvMNtNtCs14PW5HJOtOs_6glossa8semantic8assemblyNtB2_9Assembler8finalize
FN:197,_RNvMNtNtCs14PW5HJOtOs_6glossa8semantic8assemblyNtB2_9Assembler9set_query
FN:1419,_RNvNtNtNtCs14PW5HJOtOs_6glossa8semantic8assembly5tests13make_analysis
FN:1065,_RNvNtNtNtCs14PW5HJOtOs_6glossa8semantic8assembly5testss_13test_literals
FN:1003,_RNvNtNtNtCs14PW5HJOtOs_6glossa8semantic8assembly5testss_15test_simple_sov
FN:1021,_RNvNtNtNtCs14PW5HJOtOs_6glossa8semantic8assembly5testss_20test_vso_same_result
FN:1056,_RNvNtNtNtCs14PW5HJOtOs_6glossa8semantic8assembly5testss_22test_double_verb_error
FN:945,_RNvNtNtNtCs14PW5HJOtOs_6glossa8semantic8assembly5testss_23test_operator_detection
FN:1147,_RNvNtNtNtCs14PW5HJOtOs_6glossa8semantic8assembly5testss_24test_double_object_error
FN:1075,_RNvNtNtNtCs14PW5HJOtOs_6glossa8semantic8assembly5testss_24test_genitive_possession
FN:1197,_RNvNtNtNtCs14PW5HJOtOs_6glossa8semantic8assembly5testss_24test_imperative_mismatch
FN:1607,_RNvNtNtNtCs14PW5HJOtOs_6glossa8semantic8assembly5testss_24test_max_arrays_exceeded
FN:1675,_RNvNtNtNtCs14PW5HJOtOs_6glossa8semantic8assembly5testss_24test_max_blocks_exceeded
FN:959,_RNvNtNtNtCs14PW5HJOtOs_6glossa8semantic8assembly5testss_25test_boolean_or_detection
FN:1663,_RNvNtNtNtCs14PW5HJOtOs_6glossa8semantic8assembly5testss_25test_max_unwraps_exceeded
FN:1039,_RNvNtNtNtCs14PW5HJOtOs_6glossa8semantic8assembly5testss_25test_multiple_nominatives
FN:1439,_RNvNtNtNtCs14PW5HJOtOs_6glossa8semantic8assembly5testss_26test_max_literals_exceeded
FN:1087,_RNvNtNtNtCs14PW5HJOtOs_6glossa8semantic8assembly5testss_27test_dative_indirect_object
FN:1515,_RNvNtNtNtCs14PW5HJOtOs_6glossa8semantic8assembly5testss_27test_max_genitives_exceeded
FN:1503,_RNvNtNtNtCs14PW5HJOtOs_6glossa8semantic8assembly5testss_27test_max_operators_exceeded
FN:1236,_RNvNtNtNtCs14PW5HJOtOs_6glossa8semantic8assembly5testss_28test_gender_mismatch_ignored
FN:1480,_RNvNtNtNtCs14PW5HJOtOs_6glossa8semantic8assembly5testss_28test_max_adjectives_exceeded
FN:1286,_RNvNtNtNtCs14PW5HJOtOs_6glossa8semantic8assembly5testss_28test_split_method_generation
FN:1591,_RNvNtNtNtCs14PW5HJOtOs_6glossa8semantic8assembly5testss_29test_disambiguation_en_vs_hen
FN:1450,_RNvNtNtNtCs14PW5HJOtOs_6glossa8semantic8assembly5testss_29test_max_nominatives_exceeded
FN:1642,_RNvNtNtNtCs14PW5HJOtOs_6glossa8semantic8assembly5testss_29test_max_participles_exceeded
FN:974,_RNvNtNtNtCs14PW5HJOtOs_6glossa8semantic8assembly5testss_31test_full_boolean_or_expression
FN:1098,_RNvNtNtNtCs14PW5HJOtOs_6glossa8semantic8assembly5testss_31test_verb_constituent_has_voice
FN:1618,_RNvNtNtNtCs14PW5HJOtOs_6glossa8semantic8assembly5testss_32test_max_index_accesses_exceeded
FN:1631,_RNvNtNtNtCs14PW5HJOtOs_6glossa8semantic8assembly5testss_32test_max_nested_phrases_exceeded
FN:1109,_RNvNtNtNtCs14PW5HJOtOs_6glossa8semantic8assembly5testss_34test_subject_verb_person_agreement
FN:1686,_RNvNtNtNtCs14PW5HJOtOs_6glossa8semantic8assembly5testss_35test_max_property_accesses_exceeded
FN:1383,_RNvNtNtNtCs14PW5HJOtOs_6glossa8semantic8assembly5testss_36test_immediate_agreement_failure_svo
FN:1346,_RNvNtNtNtCs14PW5HJOtOs_6glossa8semantic8assembly5testss_36test_immediate_agreement_failure_vso
FN:1538,_RNvNtNtNtCs14PW5HJOtOs_6glossa8semantic8assembly5testss_38test_silent_swallowing_of_unknown_case
FN:1158,_RNvNtNtNtCs14PW5HJOtOs_6glossa8semantic8assembly5testss_40test_neuter_plural_subject_singular_verb
FN:1556,_RNvNtNtNtCs14PW5HJOtOs_6glossa8semantic8assembly5testss_44test_neuter_plural_subject_first_person_verb
FN:1717,_RNvNtNtNtCs14PW5HJOtOs_6glossa8semantic8assembly5testss_48test_unknown_case_becomes_object_when_slot_empty
FN:924,_RNvNtNtNtCs14PW5HJOtOs_6glossa8semantic8assembly5testss_54test_try_create_string_method_invalid_literal_fallback
FNDA:312,_RNvMNtNtCs4a0SCptkpqe_6glossa8semantic8assemblyNtB2_9Assembler10feed_array
FNDA:260,_RNvMNtNtCs4a0SCptkpqe_6glossa8semantic8assemblyNtB2_9Assembler10feed_block
FNDA:8800,_RNvMNtNtCs4a0SCptkpqe_6glossa8semantic8assemblyNtB2_9Assembler11check_limit
FNDA:3178,_RNvMNtNtCs4a0SCptkpqe_6glossa8semantic8assemblyNtB2_9Assembler11feed_number
FNDA:422,_RNvMNtNtCs4a0SCptkpqe_6glossa8semantic8assemblyNtB2_9Assembler11feed_string
FNDA:265,_RNvMNtNtCs4a0SCptkpqe_6glossa8semantic8assemblyNtB2_9Assembler11feed_unwrap
FNDA:825,_RNvMNtNtCs4a0SCptkpqe_6glossa8semantic8assemblyNtB2_9Assembler11handle_verb
FNDA:6,_RNvMNtNtCs4a0SCptkpqe_6glossa8semantic8assemblyNtB2_9Assembler12feed_boolean
FNDA:62,_RNvMNtNtCs4a0SCptkpqe_6glossa8semantic8assemblyNtB2_9Assembler13handle_dative
FNDA:823,_RNvMNtNtCs4a0SCptkpqe_6glossa8semantic8assemblyNtB2_9Assembler13set_propagate
FNDA:3681,_RNvMNtNtCs4a0SCptkpqe_6glossa8semantic8assemblyNtB2_9Assembler14handle_nominal
FNDA:950,_RNvMNtNtCs4a0SCptkpqe_6glossa8semantic8assemblyNtB2_9Assembler15check_agreement
FNDA:7732,_RNvMNtNtCs4a0SCptkpqe_6glossa8semantic8assemblyNtB2_9Assembler15check_operators
FNDA:325,_RNvMNtNtCs4a0SCptkpqe_6glossa8semantic8assemblyNtB2_9Assembler15feed_participle
FNDA:344,_RNvMNtNtCs4a0SCptkpqe_6glossa8semantic8assemblyNtB2_9Assembler15handle_genitive
FNDA:73,_RNvMNtNtCs4a0SCptkpqe_6glossa8semantic8assemblyNtB2_9Assembler15handle_vocative
FNDA:245,_RNvMNtNtCs4a0SCptkpqe_6glossa8semantic8assemblyNtB2_9Assembler16handle_adjective
FNDA:3,_RNvMNtNtCs4a0SCptkpqe_6glossa8semantic8assemblyNtB2_9Assembler17feed_index_access
FNDA:81,_RNvMNtNtCs4a0SCptkpqe_6glossa8semantic8assemblyNtB2_9Assembler17handle_accusative
FNDA:2777,_RNvMNtNtCs4a0SCptkpqe_6glossa8semantic8assemblyNtB2_9Assembler17handle_nominative
FNDA:7734,_RNvMNtNtCs4a0SCptkpqe_6glossa8semantic8assemblyNtB2_9Assembler18check_method_verbs
FNDA:528,_RNvMNtNtCs4a0SCptkpqe_6glossa8semantic8assemblyNtB2_9Assembler18check_missing_verb
FNDA:261,_RNvMNtNtCs4a0SCptkpqe_6glossa8semantic8assemblyNtB2_9Assembler18feed_nested_phrase
FNDA:344,_RNvMNtNtCs4a0SCptkpqe_6glossa8semantic8assemblyNtB2_9Assembler19handle_unknown_case
FNDA:7747,_RNvMNtNtCs4a0SCptkpqe_6glossa8semantic8assemblyNtB2_9Assembler20feed_with_normalized
FNDA:7747,_RNvMNtNtCs4a0SCptkpqe_6glossa8semantic8assemblyNtB2_9Assembler21check_special_markers
FNDA:6626,_RNvMNtNtCs4a0SCptkpqe_6glossa8semantic8assemblyNtB2_9Assembler24check_special_properties
FNDA:2,_RNvMNtNtCs4a0SCptkpqe_6glossa8semantic8assemblyNtB2_9Assembler24try_create_string_method
FNDA:1594,_RNvMNtNtCs4a0SCptkpqe_6glossa8semantic8assemblyNtB2_9Assembler3new
FNDA:3496,_RNvMNtNtCs4a0SCptkpqe_6glossa8semantic8assemblyNtB2_9Assembler4feed
FNDA:1322,_RNvMNtNtCs4a0SCptkpqe_6glossa8semantic8assemblyNtB2_9Assembler8finalize
FNDA:823,_RNvMNtNtCs4a0SCptkpqe_6glossa8semantic8assemblyNtB2_9Assembler9set_query
FNDA:0,_RNvXs_NtNtCs4a0SCptkpqe_6glossa8semantic8assemblyNtB4_9AssemblerNtNtCs4kUJL3MZFFz_4core7default7Default7default
FNDA:19,_RNCNvMNtNtCs4a0SCptkpqe_6glossa8semantic8assemblyNtB4_9Assembler21check_special_markers0B8_
FNDA:0,_RNvXs_NtNtCs14PW5HJOtOs_6glossa8semantic8assemblyNtB4_9AssemblerNtNtCs4kUJL3MZFFz_4core7default7Default7default
FNDA:8,_RNCNvMNtNtCs14PW5HJOtOs_6glossa8semantic8assemblyNtB4_9Assembler21check_special_markers0B8_
FNDA:514,_RNvMNtNtCs14PW5HJOtOs_6glossa8semantic8assemblyNtB2_9Assembler10feed_array
FNDA:514,_RNvMNtNtCs14PW5HJOtOs_6glossa8semantic8assemblyNtB2_9Assembler10feed_block
FNDA:11902,_RNvMNtNtCs14PW5HJOtOs_6glossa8semantic8assemblyNtB2_9Assembler11check_limit
FNDA:3385,_RNvMNtNtCs14PW5HJOtOs_6glossa8semantic8assemblyNtB2_9Assembler11feed_number
FNDA:22,_RNvMNtNtCs14PW5HJOtOs_6glossa8semantic8assemblyNtB2_9Assembler11feed_string
FNDA:514,_RNvMNtNtCs14PW5HJOtOs_6glossa8semantic8assemblyNtB2_9Assembler11feed_unwrap
FNDA:1391,_RNvMNtNtCs14PW5HJOtOs_6glossa8semantic8assemblyNtB2_9Assembler11handle_verb
FNDA:2,_RNvMNtNtCs14PW5HJOtOs_6glossa8semantic8assemblyNtB2_9Assembler12feed_boolean
FNDA:5,_RNvMNtNtCs14PW5HJOtOs_6glossa8semantic8assemblyNtB2_9Assembler13handle_dative
FNDA:1376,_RNvMNtNtCs14PW5HJOtOs_6glossa8semantic8assemblyNtB2_9Assembler13set_propagate
FNDA:3449,_RNvMNtNtCs14PW5HJOtOs_6glossa8semantic8assemblyNtB2_9Assembler14handle_nominal
FNDA:2723,_RNvMNtNtCs14PW5HJOtOs_6glossa8semantic8assemblyNtB2_9Assembler15check_agreement
FNDA:10562,_RNvMNtNtCs14PW5HJOtOs_6glossa8semantic8assemblyNtB2_9Assembler15check_operators
FNDA:514,_RNvMNtNtCs14PW5HJOtOs_6glossa8semantic8assemblyNtB2_9Assembler15feed_participle
FNDA:515,_RNvMNtNtCs14PW5HJOtOs_6glossa8semantic8assemblyNtB2_9Assembler15handle_genitive
FNDA:0,_RNvMNtNtCs14PW5HJOtOs_6glossa8semantic8assemblyNtB2_9Assembler15handle_vocative
FNDA:2052,_RNvMNtNtCs14PW5HJOtOs_6glossa8semantic8assemblyNtB2_9Assembler16handle_adjective
FNDA:514,_RNvMNtNtCs14PW5HJOtOs_6glossa8semantic8assemblyNtB2_9Assembler17feed_index_access
FNDA:8,_RNvMNtNtCs14PW5HJOtOs_6glossa8semantic8assemblyNtB2_9Assembler17handle_accusative
FNDA:2919,_RNvMNtNtCs14PW5HJOtOs_6glossa8semantic8assemblyNtB2_9Assembler17handle_nominative
FNDA:10566,_RNvMNtNtCs14PW5HJOtOs_6glossa8semantic8assemblyNtB2_9Assembler18check_method_verbs
FNDA:14,_RNvMNtNtCs14PW5HJOtOs_6glossa8semantic8assemblyNtB2_9Assembler18check_missing_verb
FNDA:516,_RNvMNtNtCs14PW5HJOtOs_6glossa8semantic8assemblyNtB2_9Assembler18feed_nested_phrase
FNDA:2,_RNvMNtNtCs14PW5HJOtOs_6glossa8semantic8assemblyNtB2_9Assembler19handle_unknown_case
FNDA:10579,_RNvMNtNtCs14PW5HJOtOs_6glossa8semantic8assemblyNtB2_9Assembler20feed_with_normalized
FNDA:10579,_RNvMNtNtCs14PW5HJOtOs_6glossa8semantic8assemblyNtB2_9Assembler21check_special_markers
FNDA:9270,_RNvMNtNtCs14PW5HJOtOs_6glossa8semantic8assemblyNtB2_9Assembler24check_special_properties
FNDA:7,_RNvMNtNtCs14PW5HJOtOs_6glossa8semantic8assemblyNtB2_9Assembler24try_create_string_method
FNDA:1458,_RNvMNtNtCs14PW5HJOtOs_6glossa8semantic8assemblyNtB2_9Assembler3new
FNDA:6249,_RNvMNtNtCs14PW5HJOtOs_6glossa8semantic8assemblyNtB2_9Assembler4feed
FNDA:1413,_RNvMNtNtCs14PW5HJOtOs_6glossa8semantic8assemblyNtB2_9Assembler8finalize
FNDA:1376,_RNvMNtNtCs14PW5HJOtOs_6glossa8semantic8assemblyNtB2_9Assembler9set_query
FNDA:2059,_RNvNtNtNtCs14PW5HJOtOs_6glossa8semantic8assembly5tests13make_analysis
FNDA:1,_RNvNtNtNtCs14PW5HJOtOs_6glossa8semantic8assembly5testss_13test_literals
FNDA:1,_RNvNtNtNtCs14PW5HJOtOs_6glossa8semantic8assembly5testss_15test_simple_sov
FNDA:1,_RNvNtNtNtCs14PW5HJOtOs_6glossa8semantic8assembly5testss_20test_vso_same_result
FNDA:1,_RNvNtNtNtCs14PW5HJOtOs_6glossa8semantic8assembly5testss_22test_double_verb_error
FNDA:1,_RNvNtNtNtCs14PW5HJOtOs_6glossa8semantic8assembly5testss_23test_operator_detection
FNDA:1,_RNvNtNtNtCs14PW5HJOtOs_6glossa8semantic8assembly5testss_24test_double_object_error
FNDA:1,_RNvNtNtNtCs14PW5HJOtOs_6glossa8semantic8assembly5testss_24test_genitive_possession
FNDA:1,_RNvNtNtNtCs14PW5HJOtOs_6glossa8semantic8assembly5testss_24test_imperative_mismatch
FNDA:1,_RNvNtNtNtCs14PW5HJOtOs_6glossa8semantic8assembly5testss_24test_max_arrays_exceeded
FNDA:1,_RNvNtNtNtCs14PW5HJOtOs_6glossa8semantic8assembly5testss_24test_max_blocks_exceeded
FNDA:1,_RNvNtNtNtCs14PW5HJOtOs_6glossa8semantic8assembly5testss_25test_boolean_or_detection
FNDA:1,_RNvNtNtNtCs14PW5HJOtOs_6glossa8semantic8assembly5testss_25test_max_unwraps_exceeded
FNDA:1,_RNvNtNtNtCs14PW5HJOtOs_6glossa8semantic8assembly5testss_25test_multiple_nominatives
FNDA:1,_RNvNtNtNtCs14PW5HJOtOs_6glossa8semantic8assembly5testss_26test_max_literals_exceeded
FNDA:1,_RNvNtNtNtCs14PW5HJOtOs_6glossa8semantic8assembly5testss_27test_dative_indirect_object
FNDA:1,_RNvNtNtNtCs14PW5HJOtOs_6glossa8semantic8assembly5testss_27test_max_genitives_exceeded
FNDA:1,_RNvNtNtNtCs14PW5HJOtOs_6glossa8semantic8assembly5testss_27test_max_operators_exceeded
FNDA:1,_RNvNtNtNtCs14PW5HJOtOs_6glossa8semantic8assembly5testss_28test_gender_mismatch_ignored
FNDA:1,_RNvNtNtNtCs14PW5HJOtOs_6glossa8semantic8assembly5testss_28test_max_adjectives_exceeded
FNDA:1,_RNvNtNtNtCs14PW5HJOtOs_6glossa8semantic8assembly5testss_28test_split_method_generation
FNDA:1,_RNvNtNtNtCs14PW5HJOtOs_6glossa8semantic8assembly5testss_29test_disambiguation_en_vs_hen
FNDA:1,_RNvNtNtNtCs14PW5HJOtOs_6glossa8semantic8assembly5testss_29test_max_nominatives_exceeded
FNDA:1,_RNvNtNtNtCs14PW5HJOtOs_6glossa8semantic8assembly5testss_29test_max_participles_exceeded
FNDA:1,_RNvNtNtNtCs14PW5HJOtOs_6glossa8semantic8assembly5testss_31test_full_boolean_or_expression
FNDA:1,_RNvNtNtNtCs14PW5HJOtOs_6glossa8semantic8assembly5testss_31test_verb_constituent_has_voice
FNDA:1,_RNvNtNtNtCs14PW5HJOtOs_6glossa8semantic8assembly5testss_32test_max_index_accesses_exceeded
FNDA:1,_RNvNtNtNtCs14PW5HJOtOs_6glossa8semantic8assembly5testss_32test_max_nested_phrases_exceeded
FNDA:1,_RNvNtNtNtCs14PW5HJOtOs_6glossa8semantic8assembly5testss_34test_subject_verb_person_agreement
FNDA:1,_RNvNtNtNtCs14PW5HJOtOs_6glossa8semantic8assembly5testss_35test_max_property_accesses_exceeded
FNDA:1,_RNvNtNtNtCs14PW5HJOtOs_6glossa8semantic8assembly5testss_36test_immediate_agreement_failure_svo
FNDA:1,_RNvNtNtNtCs14PW5HJOtOs_6glossa8semantic8assembly5testss_36test_immediate_agreement_failure_vso
FNDA:1,_RNvNtNtNtCs14PW5HJOtOs_6glossa8semantic8assembly5testss_38test_silent_swallowing_of_unknown_case
FNDA:1,_RNvNtNtNtCs14PW5HJOtOs_6glossa8semantic8assembly5testss_40test_neuter_plural_subject_singular_verb
FNDA:1,_RNvNtNtNtCs14PW5HJOtOs_6glossa8semantic8assembly5testss_44test_neuter_plural_subject_first_person_verb
FNDA:1,_RNvNtNtNtCs14PW5HJOtOs_6glossa8semantic8assembly5testss_48test_unknown_case_becomes_object_when_slot_empty
FNDA:1,_RNvNtNtNtCs14PW5HJOtOs_6glossa8semantic8assembly5testss_54test_try_create_string_method_invalid_literal_fallback
FNF:71
FNH:70
DA:172,20702
DA:173,20702
DA:174,78
DA:175,78
DA:176,78
DA:177,78
DA:179,20624
DA:181,20702
DA:191,3052
DA:192,3052
DA:193,3052
DA:194,3052
DA:195,3052
DA:197,2199
DA:198,2199
DA:199,2199
DA:201,2199
DA:202,2199
DA:203,2199
DA:234,9745
DA:235,9745
DA:236,9745
DA:237,9745
DA:250,18326
DA:251,18326
DA:252,18326
DA:253,18326
DA:254,18326
DA:255,18326
DA:256,18326
DA:257,26
DA:258,18300
DA:259,18300
DA:260,5
DA:261,18294
DA:262,18294
DA:263,2363
DA:264,15896
DA:265,15896
DA:266,3005
DA:267,12881
DA:268,12881
DA:270,6887
DA:272,2297
DA:273,2216
DA:276,243
DA:280,231
DA:282,1007
DA:284,18326
DA:295,444
DA:296,444
DA:297,444
DA:298,444
DA:299,444
DA:310,6563
DA:311,6563
DA:312,6559
DA:313,6559
DA:314,6563
DA:325,8
DA:326,8
DA:327,8
DA:328,8
DA:329,8
DA:342,826
DA:343,826
DA:344,823
DA:345,823
DA:346,826
DA:357,774
DA:358,774
DA:359,774
DA:360,774
DA:361,774
DA:362,771
DA:363,771
DA:364,774
DA:376,777
DA:377,777
DA:378,777
DA:380,777
DA:381,3
DA:382,774
DA:383,774
DA:384,777
DA:402,517
DA:403,517
DA:404,517
DA:406,517
DA:407,2
DA:408,515
DA:409,515
DA:410,517
DA:427,779
DA:428,779
DA:429,776
DA:430,776
DA:431,779
DA:453,839
DA:454,839
DA:455,839
DA:456,839
DA:457,839
DA:458,839
DA:459,836
DA:460,836
DA:461,836
DA:462,836
DA:463,836
DA:464,836
DA:465,836
DA:466,836
DA:467,836
DA:468,836
DA:469,836
DA:470,836
DA:471,836
DA:472,836
DA:473,839
DA:475,7130
DA:476,7130
DA:477,7130
DA:478,7130
DA:479,7130
DA:480,7130
DA:481,7130
DA:482,7130
DA:483,7130
DA:484,7130
DA:485,7130
DA:486,7130
DA:487,7130
DA:488,7130
DA:489,7130
DA:490,7130
DA:491,6784
DA:492,5696
DA:493,89
DA:494,67
DA:495,859
DA:496,73
DA:497,346
DA:499,7130
DA:500,5696
DA:502,5696
DA:504,36
DA:505,25
DA:506,11
DA:507,5660
DA:508,5693
DA:510,2061
DA:511,2057
DA:512,3632
DA:513,3632
DA:514,3632
DA:515,5689
DA:516,5696
DA:517,89
DA:518,89
DA:519,45
DA:520,44
DA:521,44
DA:522,44
DA:523,89
DA:524,67
DA:526,67
DA:527,8
DA:528,59
DA:529,59
DA:530,59
DA:531,67
DA:532,859
DA:534,859
DA:535,854
DA:536,854
DA:537,859
DA:538,73
DA:540,73
DA:541,54
DA:542,54
DA:543,73
DA:544,73
DA:545,346
DA:548,346
DA:549,146
DA:550,146
DA:552,200
DA:554,346
DA:556,2216
DA:557,2216
DA:558,2216
DA:559,2216
DA:560,2216
DA:561,2216
DA:562,2216
DA:563,120
DA:564,2096
DA:565,2096
DA:566,2096
DA:567,2096
DA:568,2096
DA:569,2096
DA:570,2096
DA:571,2096
DA:572,2096
DA:573,2096
DA:574,2096
DA:575,2096
DA:577,2096
DA:578,1805
DA:579,291
DA:580,2092
DA:581,2092
DA:582,2216
DA:584,2297
DA:585,2297
DA:586,2297
DA:587,2297
DA:588,2297
DA:589,2297
DA:590,2297
DA:591,2297
DA:592,2297
DA:593,2297
DA:594,2297
DA:595,2297
DA:596,2297
DA:597,2297
DA:598,2297
DA:599,2297
DA:600,2297
DA:601,2295
DA:602,2295
DA:603,2297
DA:632,2735
DA:634,2735
DA:635,606
DA:636,508
DA:637,2735
DA:639,542
DA:640,542
DA:641,542
DA:642,542
DA:643,542
DA:644,542
DA:645,542
DA:646,542
DA:647,542
DA:648,542
DA:649,542
DA:650,542
DA:651,542
DA:652,542
DA:653,542
DA:654,502
DA:655,260
DA:656,253
DA:658,542
DA:659,2193
DA:661,2678
DA:662,1843
DA:664,1843
DA:665,81
DA:666,75
DA:667,13
DA:668,11
DA:670,11
DA:671,1832
DA:672,835
DA:673,265
DA:674,213
DA:678,210
DA:679,210
DA:680,210
DA:681,210
DA:682,210
DA:686,210
DA:688,210
DA:689,0
DA:690,625
DA:692,2457
DA:693,2457
DA:694,2735
DA:696,542
DA:697,542
DA:698,328
DA:699,319
DA:700,319
DA:701,316
DA:702,316
DA:703,316
DA:704,316
DA:705,315
DA:706,315
DA:707,297
DA:708,87
DA:709,87
DA:711,455
DA:712,87
DA:713,87
DA:714,87
DA:715,87
DA:716,0
DA:717,0
DA:719,0
DA:720,87
DA:721,87
DA:722,56
DA:723,36
DA:724,36
DA:725,33
DA:727,33
DA:728,3
DA:729,30
DA:730,30
DA:731,54
DA:732,54
DA:733,542
DA:735,18326
DA:737,18326
DA:738,8
DA:739,8
DA:740,18318
DA:742,18318
DA:746,27
DA:747,3
DA:748,7
DA:749,7
DA:750,7
DA:751,18308
DA:753,18308
DA:754,11
DA:755,11
DA:756,18297
DA:757,18297
DA:758,18326
DA:761,9
DA:762,9
DA:763,8
DA:764,7
DA:765,7
DA:767,7
DA:768,1
DA:769,6
DA:770,5
DA:771,1
DA:772,1
DA:773,1
DA:774,1
DA:775,1
DA:778,5
DA:779,5
DA:780,5
DA:781,5
DA:782,5
DA:783,5
DA:784,1
DA:785,1
DA:786,2
DA:787,9
DA:789,18300
DA:791,18300
DA:792,6
DA:794,3
DA:795,18296
DA:797,18296
DA:798,2
DA:800,2
DA:801,18294
DA:802,18294
DA:803,18300
DA:805,18294
DA:807,18294
DA:808,775
DA:809,770
DA:810,770
DA:811,17519
DA:812,17519
DA:813,260
DA:815,259
DA:816,259
DA:817,17259
DA:819,17259
DA:820,294
DA:821,293
DA:822,293
DA:823,16965
DA:825,16965
DA:826,1069
DA:827,1041
DA:828,1041
DA:829,15896
DA:830,15896
DA:831,18294
DA:833,15896
DA:835,15896
DA:836,1462
DA:837,1462
DA:838,14434
DA:840,14434
DA:842,1032
DA:843,1031
DA:844,1031
DA:846,1031
DA:847,4
DA:849,1027
DA:850,1027
DA:851,1027
DA:852,1027
DA:853,1027
DA:854,1
DA:855,13402
DA:857,13403
DA:859,523
DA:860,522
DA:862,522
DA:863,522
DA:865,522
DA:866,6
DA:869,516
DA:870,516
DA:871,516
DA:872,516
DA:873,516
DA:874,516
DA:875,516
DA:876,516
DA:877,1
DA:878,12880
DA:879,12881
DA:880,15896
DA:882,3673
DA:883,3673
DA:884,3673
DA:885,3673
DA:886,3673
DA:887,3551
DA:888,3673
DA:891,3551
DA:894,3551
DA:895,3551
DA:896,7
DA:897,7
DA:898,7
DA:899,7
DA:900,3544
DA:902,3544
DA:903,3544
DA:904,3544
DA:905,0
DA:906,0
DA:907,0
DA:908,0
DA:909,3544
DA:910,122
DA:911,3666
DA:912,3673
DA:915,0
DA:916,0
DA:917,0
DA:924,1
DA:925,1
DA:926,1
DA:927,1
DA:928,1
DA:929,1
DA:930,1
DA:931,1
DA:932,1
DA:933,1
DA:934,1
DA:935,1
DA:939,1
DA:940,1
DA:941,1
DA:942,1
DA:943,1
DA:945,1
DA:947,1
DA:949,1
DA:950,1
DA:951,1
DA:952,1
DA:953,1
DA:956,1
DA:957,1
DA:959,1
DA:961,1
DA:963,1
DA:964,1
DA:965,1
DA:966,1
DA:967,1
DA:971,1
DA:972,1
DA:974,1
DA:976,1
DA:978,1
DA:980,1
DA:981,1
DA:983,1
DA:985,1
DA:986,1
DA:987,1
DA:988,1
DA:989,1
DA:994,1
DA:995,1
DA:1000,1
DA:1001,1
DA:1003,1
DA:1005,1
DA:1007,1
DA:1008,1
DA:1010,1
DA:1011,1
DA:1013,1
DA:1014,1
DA:1015,1
DA:1016,1
DA:1017,1
DA:1018,1
DA:1019,1
DA:1021,1
DA:1023,1
DA:1025,1
DA:1026,1
DA:1028,1
DA:1029,1
DA:1031,1
DA:1032,1
DA:1033,1
DA:1034,1
DA:1035,1
DA:1036,1
DA:1037,1
DA:1039,1
DA:1041,1
DA:1042,1
DA:1043,1
DA:1044,1
DA:1045,1
DA:1048,1
DA:1049,1
DA:1050,1
DA:1051,1
DA:1052,1
DA:1053,1
DA:1054,1
DA:1056,1
DA:1057,1
DA:1058,1
DA:1059,1
DA:1060,1
DA:1061,1
DA:1062,1
DA:1063,1
DA:1065,1
DA:1066,1
DA:1067,1
DA:1068,1
DA:1069,1
DA:1070,1
DA:1071,1
DA:1072,1
DA:1073,1
DA:1075,1
DA:1076,1
DA:1078,1
DA:1079,1
DA:1080,1
DA:1081,1
DA:1082,1
DA:1083,1
DA:1084,1
DA:1085,1
DA:1087,1
DA:1088,1
DA:1090,1
DA:1091,1
DA:1092,1
DA:1093,1
DA:1094,1
DA:1095,1
DA:1096,1
DA:1098,1
DA:1099,1
DA:1101,1
DA:1102,1
DA:1103,1
DA:1104,1
DA:1105,1
DA:1106,1
DA:1107,1
DA:1109,1
DA:1110,1
DA:1113,1
DA:1114,1
DA:1115,1
DA:1116,1
DA:1117,1
DA:1118,1
DA:1119,1
DA:1120,1
DA:1121,1
DA:1122,1
DA:1123,1
DA:1124,1
DA:1125,1
DA:1127,1
DA:1128,1
DA:1129,1
DA:1130,1
DA:1131,1
DA:1132,1
DA:1133,1
DA:1134,1
DA:1135,1
DA:1136,1
DA:1137,1
DA:1138,1
DA:1140,1
DA:1141,1
DA:1142,1
DA:1145,1
DA:1147,1
DA:1148,1
DA:1150,1
DA:1151,1
DA:1153,1
DA:1154,1
DA:1155,1
DA:1156,1
DA:1158,1
DA:1159,1
DA:1161,1
DA:1162,1
DA:1163,1
DA:1164,1
DA:1165,1
DA:1166,1
DA:1167,1
DA:1168,1
DA:1169,1
DA:1170,1
DA:1171,1
DA:1172,1
DA:1173,1
DA:1175,1
DA:1176,1
DA:1177,1
DA:1178,1
DA:1179,1
DA:1180,1
DA:1181,1
DA:1182,1
DA:1183,1
DA:1184,1
DA:1185,1
DA:1186,1
DA:1187,1
DA:1189,1
DA:1190,1
DA:1191,1
DA:1193,0
DA:1195,1
DA:1197,1
DA:1198,1
DA:1200,1
DA:1201,1
DA:1202,1
DA:1203,1
DA:1204,1
DA:1205,1
DA:1206,1
DA:1207,1
DA:1208,1
DA:1209,1
DA:1210,1
DA:1211,1
DA:1212,1
DA:1214,1
DA:1215,1
DA:1216,1
DA:1217,1
DA:1218,1
DA:1219,1
DA:1220,1
DA:1221,1
DA:1222,1
DA:1223,1
DA:1224,1
DA:1225,1
DA:1226,1
DA:1228,1
DA:1229,1
DA:1230,1
DA:1232,0
DA:1234,1
DA:1236,1
DA:1238,1
DA:1240,1
DA:1241,1
DA:1242,1
DA:1243,1
DA:1244,1
DA:1245,1
DA:1246,1
DA:1247,1
DA:1248,1
DA:1249,1
DA:1250,1
DA:1251,1
DA:1252,1
DA:1254,1
DA:1255,1
DA:1256,1
DA:1257,1
DA:1258,1
DA:1259,1
DA:1260,1
DA:1261,1
DA:1262,1
DA:1263,1
DA:1264,1
DA:1265,1
DA:1266,1
DA:1268,1
DA:1269,1
DA:1270,1
DA:1271,1
DA:1272,1
DA:1273,1
DA:1274,1
DA:1275,1
DA:1276,1
DA:1277,1
DA:1278,1
DA:1279,1
DA:1280,1
DA:1281,1
DA:1283,1
DA:1284,1
DA:1286,1
DA:1287,1
DA:1289,1
DA:1290,1
DA:1291,1
DA:1292,1
DA:1293,1
DA:1294,1
DA:1295,1
DA:1296,1
DA:1297,1
DA:1298,1
DA:1299,1
DA:1300,1
DA:1301,1
DA:1303,1
DA:1304,1
DA:1305,1
DA:1306,1
DA:1307,1
DA:1308,1
DA:1309,1
DA:1310,1
DA:1311,1
DA:1312,1
DA:1313,1
DA:1314,1
DA:1315,1
DA:1317,1
DA:1319,1
DA:1320,1
DA:1321,1
DA:1322,1
DA:1323,1
DA:1324,1
DA:1325,1
DA:1326,1
DA:1327,1
DA:1328,1
DA:1329,1
DA:1330,1
DA:1331,1
DA:1332,1
DA:1334,1
DA:1335,1
DA:1338,1
DA:1340,1
DA:1342,1
DA:1344,1
DA:1346,1
DA:1347,1
DA:1349,1
DA:1350,1
DA:1351,1
DA:1352,1
DA:1353,1
DA:1354,1
DA:1355,1
DA:1356,1
DA:1357,1
DA:1358,1
DA:1359,1
DA:1360,1
DA:1361,1
DA:1363,1
DA:1364,1
DA:1365,1
DA:1366,1
DA:1367,1
DA:1368,1
DA:1369,1
DA:1370,1
DA:1371,1
DA:1372,1
DA:1373,1
DA:1374,1
DA:1376,1
DA:1377,1
DA:1378,1
DA:1381,1
DA:1383,1
DA:1384,1
DA:1386,1
DA:1387,1
DA:1388,1
DA:1389,1
DA:1390,1
DA:1391,1
DA:1392,1
DA:1393,1
DA:1394,1
DA:1395,1
DA:1396,1
DA:1397,1
DA:1398,1
DA:1400,1
DA:1401,1
DA:1402,1
DA:1403,1
DA:1404,1
DA:1405,1
DA:1406,1
DA:1407,1
DA:1408,1
DA:1409,1
DA:1410,1
DA:1411,1
DA:1413,1
DA:1414,1
DA:1415,1
DA:1418,1
DA:1419,2059
DA:1420,2059
DA:1421,2059
DA:1422,2059
DA:1423,2059
DA:1424,2059
DA:1425,2059
DA:1426,2059
DA:1427,2059
DA:1428,2059
DA:1429,2059
DA:1430,2059
DA:1431,2059
DA:1432,2059
DA:1433,2059
DA:1434,2059
DA:1435,2059
DA:1436,2059
DA:1437,2059
DA:1439,1
DA:1440,1
DA:1441,1024
DA:1442,1024
DA:1443,1024
DA:1444,1
DA:1445,1
DA:1446,1
DA:1448,1
DA:1450,1
DA:1451,1
DA:1452,1
DA:1453,1
DA:1454,1
DA:1455,1
DA:1456,1
DA:1458,1
DA:1459,256
DA:1460,256
DA:1461,256
DA:1462,256
DA:1463,256
DA:1464,256
DA:1465,256
DA:1466,256
DA:1467,256
DA:1468,1
DA:1469,1
DA:1470,1
DA:1471,1
DA:1472,1
DA:1474,1
DA:1475,1
DA:1476,1
DA:1478,1
DA:1480,1
DA:1481,1
DA:1482,1024
DA:1483,1024
DA:1484,1024
DA:1485,1024
DA:1486,1024
DA:1487,1024
DA:1488,1024
DA:1489,1024
DA:1490,1024
DA:1491,1
DA:1492,1
DA:1493,1
DA:1494,1
DA:1495,1
DA:1497,1
DA:1498,1
DA:1499,1
DA:1501,1
DA:1503,1
DA:1504,1
DA:1505,1
DA:1506,256
DA:1507,256
DA:1508,256
DA:1509,1
DA:1510,1
DA:1511,1
DA:1513,1
DA:1515,1
DA:1516,1
DA:1517,256
DA:1518,256
DA:1519,256
DA:1520,256
DA:1521,256
DA:1522,256
DA:1523,256
DA:1524,256
DA:1525,256
DA:1526,1
DA:1527,1
DA:1528,1
DA:1529,1
DA:1530,1
DA:1532,1
DA:1533,1
DA:1534,1
DA:1536,1
DA:1538,1
DA:1539,1
DA:1540,1
DA:1541,1
DA:1542,1
DA:1543,1
DA:1544,1
DA:1546,1
DA:1547,1
DA:1548,1
DA:1549,1
DA:1550,1
DA:1554,1
DA:1556,1
DA:1557,1
DA:1558,1
DA:1559,1
DA:1560,1
DA:1561,1
DA:1562,1
DA:1563,1
DA:1564,1
DA:1565,1
DA:1566,1
DA:1567,1
DA:1568,1
DA:1569,1
DA:1570,1
DA:1571,1
DA:1572,1
DA:1573,1
DA:1574,1
DA:1575,1
DA:1576,1
DA:1577,1
DA:1578,1
DA:1579,1
DA:1580,1
DA:1581,1
DA:1582,1
DA:1583,1
DA:1584,1
DA:1585,1
DA:1589,1
DA:1591,1
DA:1592,1
DA:1593,1
DA:1594,1
DA:1595,1
DA:1596,1
DA:1597,1
DA:1598,1
DA:1599,1
DA:1600,1
DA:1601,1
DA:1602,1
DA:1605,1
DA:1607,1
DA:1608,1
DA:1609,256
DA:1610,256
DA:1611,256
DA:1612,1
DA:1613,1
DA:1614,1
DA:1616,1
DA:1618,1
DA:1619,1
DA:1620,1
DA:1621,1
DA:1622,256
DA:1623,256
DA:1624,256
DA:1625,1
DA:1626,1
DA:1627,1
DA:1629,1
DA:1631,1
DA:1632,1
DA:1633,256
DA:1634,256
DA:1635,256
DA:1636,1
DA:1637,1
DA:1638,1
DA:1640,1
DA:1642,1
DA:1643,1
DA:1644,1
DA:1645,1
DA:1646,1
DA:1647,1
DA:1648,1
DA:1649,1
DA:1650,1
DA:1651,1
DA:1652,1
DA:1653,256
DA:1654,256
DA:1655,256
DA:1656,256
DA:1657,1
DA:1658,1
DA:1659,1
DA:1661,1
DA:1663,1
DA:1664,1
DA:1665,1
DA:1666,256
DA:1667,256
DA:1668,256
DA:1669,1
DA:1670,1
DA:1671,1
DA:1673,1
DA:1675,1
DA:1676,1
DA:1677,256
DA:1678,256
DA:1679,256
DA:1680,1
DA:1681,1
DA:1682,1
DA:1684,1
DA:1686,1
DA:1687,1
DA:1689,256
DA:1690,256
DA:1691,256
DA:1692,256
DA:1693,256
DA:1694,256
DA:1695,256
DA:1696,256
DA:1697,256
DA:1698,256
DA:1699,256
DA:1700,256
DA:1701,256
DA:1703,1
DA:1704,1
DA:1705,1
DA:1706,1
DA:1707,1
DA:1709,1
DA:1710,1
DA:1711,1
DA:1712,1
DA:1713,1
DA:1715,1
DA:1717,1
DA:1718,1
DA:1721,1
DA:1722,1
DA:1723,1
DA:1724,1
DA:1725,1
DA:1727,1
DA:1728,1
DA:1731,1
DA:1732,1
BRF:0
BRH:0
LF:1120
LH:1106
end_of_record
SF:/app/src/semantic/assembly/model.rs
FN:223,_RNCNvXNtNtNtCs4a0SCptkpqe_6glossa8semantic8assembly5modelNtB4_18AssembledStatementNtNtCs4kUJL3MZFFz_4core3fmt5Debug3fmt0Ba_
FN:273,_RNCNvXs0_NtNtNtCs4a0SCptkpqe_6glossa8semantic8assembly5modelNtB7_15VerbConstituentNtNtCs4kUJL3MZFFz_4core3fmt5Debug3fmt0Bd_
FN:290,_RNCNvXs1_NtNtNtCs4a0SCptkpqe_6glossa8semantic8assembly5modelNtB7_21ParticipleConstituentNtNtCs4kUJL3MZFFz_4core3fmt5Debug3fmt0Bd_
FN:307,_RNCNvXs2_NtNtNtCs4a0SCptkpqe_6glossa8semantic8assembly5modelNtB7_7LiteralNtNtCs4kUJL3MZFFz_4core3fmt5Debug3fmt0Bd_
FN:257,_RNCNvXs_NtNtNtCs4a0SCptkpqe_6glossa8semantic8assembly5modelNtB6_11ConstituentNtNtCs4kUJL3MZFFz_4core3fmt5Debug3fmt0Bc_
FN:222,_RNvXNtNtNtCs4a0SCptkpqe_6glossa8semantic8assembly5modelNtB2_18AssembledStatementNtNtCs4kUJL3MZFFz_4core3fmt5Debug3fmt
FN:272,_RNvXs0_NtNtNtCs4a0SCptkpqe_6glossa8semantic8assembly5modelNtB5_15VerbConstituentNtNtCs4kUJL3MZFFz_4core3fmt5Debug3fmt
FN:289,_RNvXs1_NtNtNtCs4a0SCptkpqe_6glossa8semantic8assembly5modelNtB5_21ParticipleConstituentNtNtCs4kUJL3MZFFz_4core3fmt5Debug3fmt
FN:306,_RNvXs2_NtNtNtCs4a0SCptkpqe_6glossa8semantic8assembly5modelNtB5_7LiteralNtNtCs4kUJL3MZFFz_4core3fmt5Debug3fmt
FN:256,_RNvXs_NtNtNtCs4a0SCptkpqe_6glossa8semantic8assembly5modelNtB4_11ConstituentNtNtCs4kUJL3MZFFz_4core3fmt5Debug3fmt
FN:222,_RNvXNtNtNtCs14PW5HJOtOs_6glossa8semantic8assembly5modelNtB2_18AssembledStatementNtNtCs4kUJL3MZFFz_4core3fmt5Debug3fmt
FN:272,_RNvXs0_NtNtNtCs14PW5HJOtOs_6glossa8semantic8assembly5modelNtB5_15VerbConstituentNtNtCs4kUJL3MZFFz_4core3fmt5Debug3fmt
FN:289,_RNvXs1_NtNtNtCs14PW5HJOtOs_6glossa8semantic8assembly5modelNtB5_21ParticipleConstituentNtNtCs4kUJL3MZFFz_4core3fmt5Debug3fmt
FN:306,_RNvXs2_NtNtNtCs14PW5HJOtOs_6glossa8semantic8assembly5modelNtB5_7LiteralNtNtCs4kUJL3MZFFz_4core3fmt5Debug3fmt
FN:256,_RNvXs_NtNtNtCs14PW5HJOtOs_6glossa8semantic8assembly5modelNtB4_11ConstituentNtNtCs4kUJL3MZFFz_4core3fmt5Debug3fmt
FN:223,_RNCNvXNtNtNtCs14PW5HJOtOs_6glossa8semantic8assembly5modelNtB4_18AssembledStatementNtNtCs4kUJL3MZFFz_4core3fmt5Debug3fmt0Ba_
FN:273,_RNCNvXs0_NtNtNtCs14PW5HJOtOs_6glossa8semantic8assembly5modelNtB7_15VerbConstituentNtNtCs4kUJL3MZFFz_4core3fmt5Debug3fmt0Bd_
FN:290,_RNCNvXs1_NtNtNtCs14PW5HJOtOs_6glossa8semantic8assembly5modelNtB7_21ParticipleConstituentNtNtCs4kUJL3MZFFz_4core3fmt5Debug3fmt0Bd_
FN:307,_RNCNvXs2_NtNtNtCs14PW5HJOtOs_6glossa8semantic8assembly5modelNtB7_7LiteralNtNtCs4kUJL3MZFFz_4core3fmt5Debug3fmt0Bd_
FN:257,_RNCNvXs_NtNtNtCs14PW5HJOtOs_6glossa8semantic8assembly5modelNtB6_11ConstituentNtNtCs4kUJL3MZFFz_4core3fmt5Debug3fmt0Bc_
FNDA:3,_RNCNvXNtNtNtCs4a0SCptkpqe_6glossa8semantic8assembly5modelNtB4_18AssembledStatementNtNtCs4kUJL3MZFFz_4core3fmt5Debug3fmt0Ba_
FNDA:5,_RNCNvXs0_NtNtNtCs4a0SCptkpqe_6glossa8semantic8assembly5modelNtB7_15VerbConstituentNtNtCs4kUJL3MZFFz_4core3fmt5Debug3fmt0Bd_
FNDA:5,_RNCNvXs1_NtNtNtCs4a0SCptkpqe_6glossa8semantic8assembly5modelNtB7_21ParticipleConstituentNtNtCs4kUJL3MZFFz_4core3fmt5Debug3fmt0Bd_
FNDA:9,_RNCNvXs2_NtNtNtCs4a0SCptkpqe_6glossa8semantic8assembly5modelNtB7_7LiteralNtNtCs4kUJL3MZFFz_4core3fmt5Debug3fmt0Bd_
FNDA:5,_RNCNvXs_NtNtNtCs4a0SCptkpqe_6glossa8semantic8assembly5modelNtB6_11ConstituentNtNtCs4kUJL3MZFFz_4core3fmt5Debug3fmt0Bc_
FNDA:3,_RNvXNtNtNtCs4a0SCptkpqe_6glossa8semantic8assembly5modelNtB2_18AssembledStatementNtNtCs4kUJL3MZFFz_4core3fmt5Debug3fmt
FNDA:5,_RNvXs0_NtNtNtCs4a0SCptkpqe_6glossa8semantic8assembly5modelNtB5_15VerbConstituentNtNtCs4kUJL3MZFFz_4core3fmt5Debug3fmt
FNDA:5,_RNvXs1_NtNtNtCs4a0SCptkpqe_6glossa8semantic8assembly5modelNtB5_21ParticipleConstituentNtNtCs4kUJL3MZFFz_4core3fmt5Debug3fmt
FNDA:9,_RNvXs2_NtNtNtCs4a0SCptkpqe_6glossa8semantic8assembly5modelNtB5_7LiteralNtNtCs4kUJL3MZFFz_4core3fmt5Debug3fmt
FNDA:5,_RNvXs_NtNtNtCs4a0SCptkpqe_6glossa8semantic8assembly5modelNtB4_11ConstituentNtNtCs4kUJL3MZFFz_4core3fmt5Debug3fmt
FNDA:1,_RNvXNtNtNtCs14PW5HJOtOs_6glossa8semantic8assembly5modelNtB2_18AssembledStatementNtNtCs4kUJL3MZFFz_4core3fmt5Debug3fmt
FNDA:0,_RNvXs0_NtNtNtCs14PW5HJOtOs_6glossa8semantic8assembly5modelNtB5_15VerbConstituentNtNtCs4kUJL3MZFFz_4core3fmt5Debug3fmt
FNDA:0,_RNvXs1_NtNtNtCs14PW5HJOtOs_6glossa8semantic8assembly5modelNtB5_21ParticipleConstituentNtNtCs4kUJL3MZFFz_4core3fmt5Debug3fmt
FNDA:0,_RNvXs2_NtNtNtCs14PW5HJOtOs_6glossa8semantic8assembly5modelNtB5_7LiteralNtNtCs4kUJL3MZFFz_4core3fmt5Debug3fmt
FNDA:1,_RNvXs_NtNtNtCs14PW5HJOtOs_6glossa8semantic8assembly5modelNtB4_11ConstituentNtNtCs4kUJL3MZFFz_4core3fmt5Debug3fmt
FNDA:1,_RNCNvXNtNtNtCs14PW5HJOtOs_6glossa8semantic8assembly5modelNtB4_18AssembledStatementNtNtCs4kUJL3MZFFz_4core3fmt5Debug3fmt0Ba_
FNDA:0,_RNCNvXs0_NtNtNtCs14PW5HJOtOs_6glossa8semantic8assembly5modelNtB7_15VerbConstituentNtNtCs4kUJL3MZFFz_4core3fmt5Debug3fmt0Bd_
FNDA:0,_RNCNvXs1_NtNtNtCs14PW5HJOtOs_6glossa8semantic8assembly5modelNtB7_21ParticipleConstituentNtNtCs4kUJL3MZFFz_4core3fmt5Debug3fmt0Bd_
FNDA:0,_RNCNvXs2_NtNtNtCs14PW5HJOtOs_6glossa8semantic8assembly5modelNtB7_7LiteralNtNtCs4kUJL3MZFFz_4core3fmt5Debug3fmt0Bd_
FNDA:1,_RNCNvXs_NtNtNtCs14PW5HJOtOs_6glossa8semantic8assembly5modelNtB6_11ConstituentNtNtCs4kUJL3MZFFz_4core3fmt5Debug3fmt0Bc_
FNF:10
FNH:10
DA:222,4
DA:223,4
DA:224,4
DA:225,4
DA:226,4
DA:227,4
DA:228,4
DA:229,4
DA:230,4
DA:231,4
DA:232,4
DA:233,4
DA:234,4
DA:235,4
DA:236,4
DA:237,4
DA:238,4
DA:239,4
DA:240,4
DA:241,4
DA:242,4
DA:243,4
DA:244,4
DA:245,4
DA:246,4
DA:247,4
DA:248,4
DA:249,4
DA:250,4
DA:251,4
DA:252,4
DA:256,6
DA:257,6
DA:258,6
DA:259,6
DA:260,6
DA:261,6
DA:262,6
DA:263,6
DA:264,6
DA:265,6
DA:266,6
DA:267,6
DA:268,6
DA:272,5
DA:273,5
DA:274,5
DA:275,5
DA:276,5
DA:277,5
DA:278,5
DA:279,5
DA:280,5
DA:281,5
DA:282,5
DA:283,5
DA:284,5
DA:285,5
DA:289,5
DA:290,5
DA:291,5
DA:292,5
DA:293,5
DA:294,5
DA:295,5
DA:296,5
DA:297,5
DA:298,5
DA:299,5
DA:300,5
DA:301,5
DA:302,5
DA:306,9
DA:307,9
DA:308,4
DA:309,2
DA:310,3
DA:311,9
DA:312,9
BRF:0
BRH:0
LF:84
LH:84
end_of_record
SF:/app/src/semantic/control_flow.rs
FN:685,_RNCNvNtNtCs4a0SCptkpqe_6glossa8semantic12control_flow17parse_conditional0B7_
FN:267,_RNCNvNtNtCs4a0SCptkpqe_6glossa8semantic12control_flow20parse_for_range_loop0B7_
FN:810,_RNCNvNtNtCs4a0SCptkpqe_6glossa8semantic12control_flow23check_conditional_start0B7_
FN:320,_RNCNvNtNtCs4a0SCptkpqe_6glossa8semantic12control_flow24parse_for_iteration_loop0B7_
FN:353,_RNCNvNtNtCs4a0SCptkpqe_6glossa8semantic12control_flow24parse_for_iteration_loops_0B7_
FN:790,_RNCNvNtNtCs4a0SCptkpqe_6glossa8semantic12control_flow32check_else_pattern_in_expression0B7_
FN:118,_RNvNtNtCs4a0SCptkpqe_6glossa8semantic12control_flow16parse_while_loop
FN:612,_RNvNtNtCs4a0SCptkpqe_6glossa8semantic12control_flow17parse_conditional
FN:150,_RNvNtNtCs4a0SCptkpqe_6glossa8semantic12control_flow17parse_range_bound
FN:535,_RNvNtNtCs4a0SCptkpqe_6glossa8semantic12control_flow19parse_match_pattern
FN:55,_RNvNtNtCs4a0SCptkpqe_6glossa8semantic12control_flow20analyze_control_flow
FN:182,_RNvNtNtCs4a0SCptkpqe_6glossa8semantic12control_flow20parse_for_range_loop
FN:369,_RNvNtNtCs4a0SCptkpqe_6glossa8semantic12control_flow22parse_match_expression
FN:438,_RNvNtNtCs4a0SCptkpqe_6glossa8semantic12control_flow22parse_return_statement
FN:807,_RNvNtNtCs4a0SCptkpqe_6glossa8semantic12control_flow23check_conditional_start
FN:458,_RNvNtNtCs4a0SCptkpqe_6glossa8semantic12control_flow23parse_return_expression
FN:282,_RNvNtNtCs4a0SCptkpqe_6glossa8semantic12control_flow24parse_for_iteration_loop
FN:701,_RNvNtNtCs4a0SCptkpqe_6glossa8semantic12control_flow25skip_first_word_and_parse
FN:788,_RNvNtNtCs4a0SCptkpqe_6glossa8semantic12control_flow32check_else_pattern_in_expression
FN:118,_RNvNtNtCs14PW5HJOtOs_6glossa8semantic12control_flow16parse_while_loop
FN:612,_RNvNtNtCs14PW5HJOtOs_6glossa8semantic12control_flow17parse_conditional
FN:150,_RNvNtNtCs14PW5HJOtOs_6glossa8semantic12control_flow17parse_range_bound
FN:535,_RNvNtNtCs14PW5HJOtOs_6glossa8semantic12control_flow19parse_match_pattern
FN:55,_RNvNtNtCs14PW5HJOtOs_6glossa8semantic12control_flow20analyze_control_flow
FN:182,_RNvNtNtCs14PW5HJOtOs_6glossa8semantic12control_flow20parse_for_range_loop
FN:369,_RNvNtNtCs14PW5HJOtOs_6glossa8semantic12control_flow22parse_match_expression
FN:438,_RNvNtNtCs14PW5HJOtOs_6glossa8semantic12control_flow22parse_return_statement
FN:807,_RNvNtNtCs14PW5HJOtOs_6glossa8semantic12control_flow23check_conditional_start
FN:458,_RNvNtNtCs14PW5HJOtOs_6glossa8semantic12control_flow23parse_return_expression
FN:282,_RNvNtNtCs14PW5HJOtOs_6glossa8semantic12control_flow24parse_for_iteration_loop
FN:701,_RNvNtNtCs14PW5HJOtOs_6glossa8semantic12control_flow25skip_first_word_and_parse
FN:788,_RNvNtNtCs14PW5HJOtOs_6glossa8semantic12control_flow32check_else_pattern_in_expression
FN:685,_RNCNvNtNtCs14PW5HJOtOs_6glossa8semantic12control_flow17parse_conditional0B7_
FN:267,_RNCNvNtNtCs14PW5HJOtOs_6glossa8semantic12control_flow20parse_for_range_loop0B7_
FN:810,_RNCNvNtNtCs14PW5HJOtOs_6glossa8semantic12control_flow23check_conditional_start0B7_
FN:320,_RNCNvNtNtCs14PW5HJOtOs_6glossa8semantic12control_flow24parse_for_iteration_loop0B7_
FN:353,_RNCNvNtNtCs14PW5HJOtOs_6glossa8semantic12control_flow24parse_for_iteration_loops_0B7_
FN:790,_RNCNvNtNtCs14PW5HJOtOs_6glossa8semantic12control_flow32check_else_pattern_in_expression0B7_
FN:1138,_RNvNtNtNtCs14PW5HJOtOs_6glossa8semantic12control_flow5testss_29test_parse_while_loop_success
FN:1401,_RNvNtNtNtCs14PW5HJOtOs_6glossa8semantic12control_flow5testss_32test_parse_conditional_max_depth
FN:1007,_RNvNtNtNtCs14PW5HJOtOs_6glossa8semantic12control_flow5testss_33test_for_iteration_error_not_word
FN:1254,_RNvNtNtNtCs14PW5HJOtOs_6glossa8semantic12control_flow5testss_33test_parse_for_range_empty_clause
FN:1373,_RNvNtNtNtCs14PW5HJOtOs_6glossa8semantic12control_flow5testss_33test_parse_for_range_missing_body
FN:1103,_RNvNtNtNtCs14PW5HJOtOs_6glossa8semantic12control_flow5testss_34test_check_else_pattern_not_phrase
FN:1482,_RNvNtNtNtCs14PW5HJOtOs_6glossa8semantic12control_flow5testss_34test_parse_conditional_elif_branch
FN:1431,_RNvNtNtNtCs14PW5HJOtOs_6glossa8semantic12control_flow5testss_34test_parse_conditional_else_branch
FN:1267,_RNvNtNtNtCs14PW5HJOtOs_6glossa8semantic12control_flow5testss_34test_parse_for_range_missing_words
FN:850,_RNvNtNtNtCs14PW5HJOtOs_6glossa8semantic12control_flow5testss_34test_parse_match_pattern_uncovered
FN:1109,_RNvNtNtNtCs14PW5HJOtOs_6glossa8semantic12control_flow5testss_34test_parse_while_loop_missing_body
FN:1070,_RNvNtNtNtCs14PW5HJOtOs_6glossa8semantic12control_flow5testss_35test_for_iteration_error_not_phrase
FN:1356,_RNvNtNtNtCs14PW5HJOtOs_6glossa8semantic12control_flow5testss_35test_parse_conditional_missing_body
FN:954,_RNvNtNtNtCs14PW5HJOtOs_6glossa8semantic12control_flow5testss_35test_parse_return_expression_number
FN:936,_RNvNtNtNtCs14PW5HJOtOs_6glossa8semantic12control_flow5testss_35test_parse_return_expression_string
FN:918,_RNvNtNtNtCs14PW5HJOtOs_6glossa8semantic12control_flow5testss_36test_parse_return_expression_boolean
FN:1292,_RNvNtNtNtCs14PW5HJOtOs_6glossa8semantic12control_flow5testss_37test_parse_for_iteration_missing_body
FN:972,_RNvNtNtNtCs14PW5HJOtOs_6glossa8semantic12control_flow5testss_37test_parse_return_expression_variable
FN:1596,_RNvNtNtNtCs14PW5HJOtOs_6glossa8semantic12control_flow5testss_38test_check_conditional_start_true_word
FN:1328,_RNvNtNtNtCs14PW5HJOtOs_6glossa8semantic12control_flow5testss_38test_parse_conditional_missing_clauses
FN:1310,_RNvNtNtNtCs14PW5HJOtOs_6glossa8semantic12control_flow5testss_38test_parse_match_expression_empty_arms
FN:1183,_RNvNtNtNtCs14PW5HJOtOs_6glossa8semantic12control_flow5testss_39test_parse_for_range_missing_body_words
FN:1587,_RNvNtNtNtCs14PW5HJOtOs_6glossa8semantic12control_flow5testss_40test_check_conditional_start_true_phrase
FN:1529,_RNvNtNtNtCs14PW5HJOtOs_6glossa8semantic12control_flow5testss_40test_parse_conditional_binding_condition
FN:1341,_RNvNtNtNtCs14PW5HJOtOs_6glossa8semantic12control_flow5testss_40test_parse_conditional_missing_condition
FN:991,_RNvNtNtNtCs14PW5HJOtOs_6glossa8semantic12control_flow5testss_41test_parse_return_statement_empty_clauses
FN:1576,_RNvNtNtNtCs14PW5HJOtOs_6glossa8semantic12control_flow5testss_42test_check_else_pattern_in_expression_true
FN:1208,_RNvNtNtNtCs14PW5HJOtOs_6glossa8semantic12control_flow5testss_42test_parse_for_iteration_empty_body_clause
FN:1040,_RNvNtNtNtCs14PW5HJOtOs_6glossa8semantic12control_flow5testss_43test_for_iteration_error_missing_collection
FN:1231,_RNvNtNtNtCs14PW5HJOtOs_6glossa8semantic12control_flow5testss_43test_parse_for_iteration_body_clause_number
FN:836,_RNvNtNtNtCs14PW5HJOtOs_6glossa8semantic12control_flow5testss_43test_parse_match_expression_missing_clauses
FNDA:1,_RNCNvNtNtCs4a0SCptkpqe_6glossa8semantic12control_flow17parse_conditional0B7_
FNDA:6,_RNCNvNtNtCs4a0SCptkpqe_6glossa8semantic12control_flow20parse_for_range_loop0B7_
FNDA:102,_RNCNvNtNtCs4a0SCptkpqe_6glossa8semantic12control_flow23check_conditional_start0B7_
FNDA:0,_RNCNvNtNtCs4a0SCptkpqe_6glossa8semantic12control_flow24parse_for_iteration_loop0B7_
FNDA:3,_RNCNvNtNtCs4a0SCptkpqe_6glossa8semantic12control_flow24parse_for_iteration_loops_0B7_
FNDA:210,_RNCNvNtNtCs4a0SCptkpqe_6glossa8semantic12control_flow32check_else_pattern_in_expression0B7_
FNDA:3,_RNvNtNtCs4a0SCptkpqe_6glossa8semantic12control_flow16parse_while_loop
FNDA:109,_RNvNtNtCs4a0SCptkpqe_6glossa8semantic12control_flow17parse_conditional
FNDA:15,_RNvNtNtCs4a0SCptkpqe_6glossa8semantic12control_flow17parse_range_bound
FNDA:6,_RNvNtNtCs4a0SCptkpqe_6glossa8semantic12control_flow19parse_match_pattern
FNDA:781,_RNvNtNtCs4a0SCptkpqe_6glossa8semantic12control_flow20analyze_control_flow
FNDA:8,_RNvNtNtCs4a0SCptkpqe_6glossa8semantic12control_flow20parse_for_range_loop
FNDA:3,_RNvNtNtCs4a0SCptkpqe_6glossa8semantic12control_flow22parse_match_expression
FNDA:25,_RNvNtNtCs4a0SCptkpqe_6glossa8semantic12control_flow22parse_return_statement
FNDA:102,_RNvNtNtCs4a0SCptkpqe_6glossa8semantic12control_flow23check_conditional_start
FNDA:25,_RNvNtNtCs4a0SCptkpqe_6glossa8semantic12control_flow23parse_return_expression
FNDA:4,_RNvNtNtCs4a0SCptkpqe_6glossa8semantic12control_flow24parse_for_iteration_loop
FNDA:114,_RNvNtNtCs4a0SCptkpqe_6glossa8semantic12control_flow25skip_first_word_and_parse
FNDA:104,_RNvNtNtCs4a0SCptkpqe_6glossa8semantic12control_flow32check_else_pattern_in_expression
FNDA:3,_RNvNtNtCs14PW5HJOtOs_6glossa8semantic12control_flow16parse_while_loop
FNDA:10,_RNvNtNtCs14PW5HJOtOs_6glossa8semantic12control_flow17parse_conditional
FNDA:1,_RNvNtNtCs14PW5HJOtOs_6glossa8semantic12control_flow17parse_range_bound
FNDA:11,_RNvNtNtCs14PW5HJOtOs_6glossa8semantic12control_flow19parse_match_pattern
FNDA:1378,_RNvNtNtCs14PW5HJOtOs_6glossa8semantic12control_flow20analyze_control_flow
FNDA:6,_RNvNtNtCs14PW5HJOtOs_6glossa8semantic12control_flow20parse_for_range_loop
FNDA:5,_RNvNtNtCs14PW5HJOtOs_6glossa8semantic12control_flow22parse_match_expression
FNDA:1,_RNvNtNtCs14PW5HJOtOs_6glossa8semantic12control_flow22parse_return_statement
FNDA:3,_RNvNtNtCs14PW5HJOtOs_6glossa8semantic12control_flow23check_conditional_start
FNDA:4,_RNvNtNtCs14PW5HJOtOs_6glossa8semantic12control_flow23parse_return_expression
FNDA:6,_RNvNtNtCs14PW5HJOtOs_6glossa8semantic12control_flow24parse_for_iteration_loop
FNDA:10,_RNvNtNtCs14PW5HJOtOs_6glossa8semantic12control_flow25skip_first_word_and_parse
FNDA:4,_RNvNtNtCs14PW5HJOtOs_6glossa8semantic12control_flow32check_else_pattern_in_expression
FNDA:1,_RNCNvNtNtCs14PW5HJOtOs_6glossa8semantic12control_flow17parse_conditional0B7_
FNDA:0,_RNCNvNtNtCs14PW5HJOtOs_6glossa8semantic12control_flow20parse_for_range_loop0B7_
FNDA:2,_RNCNvNtNtCs14PW5HJOtOs_6glossa8semantic12control_flow23check_conditional_start0B7_
FNDA:2,_RNCNvNtNtCs14PW5HJOtOs_6glossa8semantic12control_flow24parse_for_iteration_loop0B7_
FNDA:0,_RNCNvNtNtCs14PW5HJOtOs_6glossa8semantic12control_flow24parse_for_iteration_loops_0B7_
FNDA:7,_RNCNvNtNtCs14PW5HJOtOs_6glossa8semantic12control_flow32check_else_pattern_in_expression0B7_
FNDA:1,_RNvNtNtNtCs14PW5HJOtOs_6glossa8semantic12control_flow5testss_29test_parse_while_loop_success
FNDA:1,_RNvNtNtNtCs14PW5HJOtOs_6glossa8semantic12control_flow5testss_32test_parse_conditional_max_depth
FNDA:1,_RNvNtNtNtCs14PW5HJOtOs_6glossa8semantic12control_flow5testss_33test_for_iteration_error_not_word
FNDA:1,_RNvNtNtNtCs14PW5HJOtOs_6glossa8semantic12control_flow5testss_33test_parse_for_range_empty_clause
FNDA:1,_RNvNtNtNtCs14PW5HJOtOs_6glossa8semantic12control_flow5testss_33test_parse_for_range_missing_body
FNDA:1,_RNvNtNtNtCs14PW5HJOtOs_6glossa8semantic12control_flow5testss_34test_check_else_pattern_not_phrase
FNDA:1,_RNvNtNtNtCs14PW5HJOtOs_6glossa8semantic12control_flow5testss_34test_parse_conditional_elif_branch
FNDA:1,_RNvNtNtNtCs14PW5HJOtOs_6glossa8semantic12control_flow5testss_34test_parse_conditional_else_branch
FNDA:1,_RNvNtNtNtCs14PW5HJOtOs_6glossa8semantic12control_flow5testss_34test_parse_for_range_missing_words
FNDA:1,_RNvNtNtNtCs14PW5HJOtOs_6glossa8semantic12control_flow5testss_34test_parse_match_pattern_uncovered
FNDA:1,_RNvNtNtNtCs14PW5HJOtOs_6glossa8semantic12control_flow5testss_34test_parse_while_loop_missing_body
FNDA:1,_RNvNtNtNtCs14PW5HJOtOs_6glossa8semantic12control_flow5testss_35test_for_iteration_error_not_phrase
FNDA:1,_RNvNtNtNtCs14PW5HJOtOs_6glossa8semantic12control_flow5testss_35test_parse_conditional_missing_body
FNDA:1,_RNvNtNtNtCs14PW5HJOtOs_6glossa8semantic12control_flow5testss_35test_parse_return_expression_number
FNDA:1,_RNvNtNtNtCs14PW5HJOtOs_6glossa8semantic12control_flow5testss_35test_parse_return_expression_string
FNDA:1,_RNvNtNtNtCs14PW5HJOtOs_6glossa8semantic12control_flow5testss_36test_parse_return_expression_boolean
FNDA:1,_RNvNtNtNtCs14PW5HJOtOs_6glossa8semantic12control_flow5testss_37test_parse_for_iteration_missing_body
FNDA:1,_RNvNtNtNtCs14PW5HJOtOs_6glossa8semantic12control_flow5testss_37test_parse_return_expression_variable
FNDA:1,_RNvNtNtNtCs14PW5HJOtOs_6glossa8semantic12control_flow5testss_38test_check_conditional_start_true_word
FNDA:1,_RNvNtNtNtCs14PW5HJOtOs_6glossa8semantic12control_flow5testss_38test_parse_conditional_missing_clauses
FNDA:1,_RNvNtNtNtCs14PW5HJOtOs_6glossa8semantic12control_flow5testss_38test_parse_match_expression_empty_arms
FNDA:1,_RNvNtNtNtCs14PW5HJOtOs_6glossa8semantic12control_flow5testss_39test_parse_for_range_missing_body_words
FNDA:1,_RNvNtNtNtCs14PW5HJOtOs_6glossa8semantic12control_flow5testss_40test_check_conditional_start_true_phrase
FNDA:1,_RNvNtNtNtCs14PW5HJOtOs_6glossa8semantic12control_flow5testss_40test_parse_conditional_binding_condition
FNDA:1,_RNvNtNtNtCs14PW5HJOtOs_6glossa8semantic12control_flow5testss_40test_parse_conditional_missing_condition
FNDA:1,_RNvNtNtNtCs14PW5HJOtOs_6glossa8semantic12control_flow5testss_41test_parse_return_statement_empty_clauses
FNDA:1,_RNvNtNtNtCs14PW5HJOtOs_6glossa8semantic12control_flow5testss_42test_check_else_pattern_in_expression_true
FNDA:1,_RNvNtNtNtCs14PW5HJOtOs_6glossa8semantic12control_flow5testss_42test_parse_for_iteration_empty_body_clause
FNDA:1,_RNvNtNtNtCs14PW5HJOtOs_6glossa8semantic12control_flow5testss_43test_for_iteration_error_missing_collection
FNDA:1,_RNvNtNtNtCs14PW5HJOtOs_6glossa8semantic12control_flow5testss_43test_parse_for_iteration_body_clause_number
FNDA:1,_RNvNtNtNtCs14PW5HJOtOs_6glossa8semantic12control_flow5testss_43test_parse_match_expression_missing_clauses
FNF:50
FNH:50
DA:55,2159
DA:56,2159
DA:57,2159
DA:58,2159
DA:63,2159
DA:64,1973
DA:65,186
DA:69,1973
DA:70,9
DA:71,1964
DA:74,1964
DA:75,6
DA:76,1958
DA:79,1958
DA:80,11
DA:81,1947
DA:84,1947
DA:85,6
DA:86,1941
DA:88,1941
DA:90,0
DA:91,1941
DA:93,1941
DA:94,6
DA:95,1935
DA:98,1935
DA:99,25
DA:100,1910
DA:103,1910
DA:104,1
DA:105,1909
DA:108,1909
DA:109,1
DA:110,1908
DA:113,1908
DA:114,2159
DA:118,6
DA:119,6
DA:120,6
DA:121,6
DA:122,6
DA:123,2
DA:124,2
DA:125,2
DA:126,4
DA:129,4
DA:130,4
DA:133,4
DA:135,4
DA:136,4
DA:137,4
DA:138,4
DA:139,4
DA:142,4
DA:144,4
DA:145,4
DA:146,4
DA:147,4
DA:148,6
DA:150,16
DA:151,16
DA:152,16
DA:153,16
DA:154,16
DA:155,16
DA:157,13
DA:158,10
DA:159,10
DA:160,10
DA:161,10
DA:164,3
DA:165,3
DA:166,3
DA:167,3
DA:168,3
DA:169,3
DA:170,3
DA:173,3
DA:174,3
DA:175,3
DA:176,3
DA:178,16
DA:182,14
DA:183,14
DA:184,14
DA:185,14
DA:186,14
DA:187,2
DA:188,2
DA:189,2
DA:190,12
DA:193,12
DA:195,12
DA:196,0
DA:197,12
DA:200,12
DA:201,11
DA:203,1
DA:208,11
DA:209,2
DA:210,2
DA:211,2
DA:212,9
DA:215,9
DA:218,7
DA:219,7
DA:221,0
DA:225,7
DA:227,6
DA:228,6
DA:229,6
DA:230,6
DA:231,6
DA:232,6
DA:233,6
DA:234,6
DA:237,6
DA:239,6
DA:240,0
DA:241,6
DA:244,6
DA:245,6
DA:246,5
DA:247,5
DA:249,0
DA:251,1
DA:252,1
DA:254,0
DA:257,0
DA:260,6
DA:261,6
DA:262,6
DA:263,6
DA:264,6
DA:267,6
DA:268,6
DA:269,6
DA:270,6
DA:272,6
DA:273,6
DA:274,6
DA:275,6
DA:276,6
DA:277,14
DA:282,10
DA:283,10
DA:284,10
DA:285,10
DA:286,10
DA:287,1
DA:288,1
DA:289,1
DA:290,9
DA:293,9
DA:295,9
DA:296,0
DA:297,9
DA:299,5
DA:300,9
DA:302,7
DA:303,1
DA:304,6
DA:305,6
DA:307,5
DA:308,5
DA:310,1
DA:313,2
DA:317,5
DA:318,5
DA:319,5
DA:320,5
DA:321,3
DA:322,3
DA:323,3
DA:324,3
DA:327,3
DA:330,3
DA:331,3
DA:332,3
DA:333,3
DA:335,0
DA:337,0
DA:338,0
DA:340,0
DA:343,0
DA:346,3
DA:347,3
DA:348,3
DA:349,3
DA:350,3
DA:353,3
DA:355,3
DA:356,3
DA:357,3
DA:359,3
DA:360,3
DA:361,3
DA:362,3
DA:363,3
DA:364,10
DA:369,8
DA:370,8
DA:371,8
DA:372,8
DA:373,8
DA:374,1
DA:375,1
DA:376,1
DA:377,7
DA:380,7
DA:382,7
DA:383,7
DA:384,7
DA:385,7
DA:388,4
DA:390,10
DA:391,10
DA:394,10
DA:395,6
DA:398,6
DA:401,6
DA:402,0
DA:403,6
DA:405,6
DA:406,6
DA:407,0
DA:408,6
DA:411,6
DA:412,6
DA:413,6
DA:414,6
DA:415,6
DA:416,6
DA:417,6
DA:418,6
DA:419,6
DA:421,6
DA:422,4
DA:425,4
DA:426,1
DA:427,1
DA:428,1
DA:429,3
DA:431,3
DA:432,3
DA:433,3
DA:434,3
DA:435,8
DA:438,26
DA:439,26
DA:440,26
DA:441,26
DA:443,26
DA:444,1
DA:445,25
DA:447,25
DA:450,25
DA:452,25
DA:453,25
DA:454,25
DA:455,26
DA:458,29
DA:467,29
DA:468,28
DA:470,1
DA:473,29
DA:474,1
DA:475,1
DA:476,1
DA:477,1
DA:478,28
DA:481,28
DA:482,11
DA:483,6
DA:484,6
DA:487,6
DA:488,4
DA:489,4
DA:490,4
DA:491,4
DA:492,2
DA:495,2
DA:496,2
DA:497,2
DA:498,2
DA:499,2
DA:500,2
DA:501,2
DA:502,2
DA:504,3
DA:505,3
DA:506,3
DA:507,3
DA:508,3
DA:510,1
DA:511,1
DA:512,1
DA:513,1
DA:514,1
DA:516,1
DA:517,1
DA:518,1
DA:519,1
DA:520,1
DA:522,0
DA:524,17
DA:528,17
DA:529,17
DA:530,17
DA:531,17
DA:532,29
DA:535,17
DA:537,17
DA:538,14
DA:539,1
DA:540,13
DA:543,13
DA:544,9
DA:547,9
DA:548,3
DA:549,3
DA:550,3
DA:551,3
DA:552,6
DA:555,6
DA:556,5
DA:557,5
DA:558,5
DA:559,5
DA:560,1
DA:563,1
DA:564,1
DA:565,1
DA:566,1
DA:567,1
DA:568,1
DA:569,0
DA:570,0
DA:571,0
DA:572,0
DA:573,0
DA:574,4
DA:575,3
DA:576,1
DA:579,1
DA:580,0
DA:581,0
DA:582,0
DA:583,0
DA:584,1
DA:587,1
DA:588,0
DA:589,0
DA:590,0
DA:591,0
DA:592,1
DA:594,1
DA:595,1
DA:596,1
DA:597,1
DA:598,1
DA:599,1
DA:600,0
DA:602,0
DA:603,0
DA:604,0
DA:605,0
DA:606,2
DA:608,6
DA:609,17
DA:612,119
DA:613,119
DA:614,119
DA:615,119
DA:616,119
DA:617,119
DA:618,2
DA:619,2
DA:620,2
DA:621,2
DA:622,117
DA:624,117
DA:625,4
DA:626,4
DA:627,4
DA:628,113
DA:631,113
DA:632,113
DA:635,112
DA:636,112
DA:637,0
DA:640,112
DA:641,112
DA:642,112
DA:643,112
DA:644,112
DA:645,112
DA:646,112
DA:647,112
DA:648,112
DA:652,112
DA:653,106
DA:656,106
DA:657,3
DA:658,3
DA:659,3
DA:660,3
DA:661,3
DA:662,3
DA:665,103
DA:667,103
DA:670,103
DA:671,103
DA:672,103
DA:675,103
DA:677,103
DA:678,103
DA:679,103
DA:680,103
DA:681,103
DA:684,103
DA:685,2
DA:687,0
DA:690,6
DA:693,11
DA:694,11
DA:695,11
DA:696,11
DA:697,11
DA:698,119
DA:701,124
DA:702,124
DA:703,124
DA:704,124
DA:706,124
DA:709,124
DA:710,124
DA:711,120
DA:712,120
DA:713,120
DA:714,120
DA:717,124
DA:718,124
DA:719,124
DA:720,124
DA:721,124
DA:722,124
DA:726,124
DA:727,124
DA:728,124
DA:733,0
DA:734,0
DA:735,0
DA:736,0
DA:737,0
DA:738,0
DA:739,0
DA:740,0
DA:741,0
DA:742,0
DA:743,0
DA:744,0
DA:746,0
DA:749,0
DA:753,124
DA:754,121
DA:755,121
DA:756,117
DA:758,4
DA:761,3
DA:763,3
DA:764,3
DA:765,3
DA:766,3
DA:767,3
DA:768,3
DA:769,3
DA:770,3
DA:771,3
DA:772,3
DA:773,3
DA:774,3
DA:778,0
DA:779,0
DA:780,0
DA:781,0
DA:783,124
DA:788,108
DA:789,108
DA:790,217
DA:791,217
DA:792,116
DA:794,101
DA:796,217
DA:798,107
DA:799,106
DA:800,4
DA:802,1
DA:804,108
DA:807,105
DA:809,105
DA:810,104
DA:811,104
DA:812,104
DA:814,0
DA:816,104
DA:817,1
DA:818,1
DA:820,0
DA:823,105
DA:824,105
DA:826,0
DA:828,105
DA:836,1
DA:837,1
DA:839,1
DA:840,1
DA:841,1
DA:842,1
DA:843,1
DA:845,1
DA:846,1
DA:847,1
DA:850,1
DA:851,1
DA:854,1
DA:855,1
DA:856,1
DA:859,1
DA:860,1
DA:861,1
DA:864,1
DA:865,1
DA:866,1
DA:869,1
DA:870,1
DA:871,1
DA:872,1
DA:874,0
DA:878,1
DA:879,1
DA:880,1
DA:881,1
DA:883,0
DA:887,1
DA:888,1
DA:889,1
DA:892,1
DA:893,1
DA:894,1
DA:897,1
DA:898,1
DA:899,1
DA:902,1
DA:903,1
DA:904,1
DA:907,1
DA:908,1
DA:909,1
DA:912,1
DA:913,1
DA:914,1
DA:915,1
DA:918,1
DA:919,1
DA:920,1
DA:921,1
DA:922,1
DA:923,1
DA:924,1
DA:925,1
DA:927,1
DA:928,1
DA:929,1
DA:930,0
DA:932,1
DA:933,1
DA:936,1
DA:937,1
DA:938,1
DA:939,1
DA:940,1
DA:941,1
DA:942,1
DA:943,1
DA:945,1
DA:946,1
DA:947,1
DA:948,0
DA:950,1
DA:951,1
DA:954,1
DA:955,1
DA:956,1
DA:957,1
DA:958,1
DA:959,1
DA:960,1
DA:961,1
DA:963,1
DA:964,1
DA:965,1
DA:966,0
DA:968,1
DA:969,1
DA:972,1
DA:973,1
DA:974,1
DA:975,1
DA:976,1
DA:977,1
DA:978,1
DA:979,1
DA:980,1
DA:982,1
DA:983,1
DA:984,1
DA:985,0
DA:987,1
DA:988,1
DA:991,1
DA:992,1
DA:993,1
DA:994,1
DA:995,1
DA:996,1
DA:997,1
DA:999,1
DA:1000,1
DA:1001,1
DA:1002,0
DA:1004,1
DA:1007,1
DA:1008,1
DA:1010,1
DA:1011,1
DA:1012,1
DA:1013,1
DA:1014,1
DA:1015,1
DA:1016,1
DA:1017,1
DA:1018,1
DA:1019,1
DA:1020,1
DA:1021,1
DA:1022,1
DA:1023,1
DA:1024,1
DA:1025,1
DA:1026,1
DA:1027,1
DA:1029,1
DA:1030,1
DA:1031,1
DA:1032,1
DA:1033,1
DA:1034,1
DA:1035,1
DA:1037,1
DA:1040,1
DA:1041,1
DA:1043,1
DA:1044,1
DA:1045,1
DA:1046,1
DA:1047,1
DA:1048,1
DA:1049,1
DA:1050,1
DA:1051,1
DA:1052,1
DA:1053,1
DA:1054,1
DA:1055,1
DA:1056,1
DA:1057,1
DA:1059,1
DA:1060,1
DA:1061,1
DA:1062,1
DA:1063,1
DA:1064,1
DA:1065,1
DA:1067,1
DA:1070,1
DA:1071,1
DA:1076,1
DA:1077,1
DA:1078,1
DA:1079,1
DA:1080,1
DA:1081,1
DA:1082,1
DA:1083,1
DA:1084,1
DA:1085,1
DA:1086,1
DA:1087,1
DA:1088,1
DA:1089,1
DA:1090,1
DA:1092,1
DA:1093,1
DA:1094,1
DA:1095,1
DA:1096,1
DA:1097,1
DA:1098,1
DA:1100,1
DA:1103,1
DA:1104,1
DA:1105,1
DA:1106,1
DA:1109,1
DA:1110,1
DA:1113,1
DA:1114,1
DA:1115,1
DA:1116,1
DA:1117,1
DA:1118,1
DA:1119,1
DA:1120,1
DA:1121,1
DA:1122,1
DA:1123,1
DA:1124,1
DA:1125,1
DA:1127,1
DA:1128,1
DA:1129,1
DA:1130,1
DA:1131,1
DA:1132,1
DA:1133,1
DA:1135,1
DA:1138,1
DA:1139,1
DA:1141,1
DA:1144,1
DA:1145,1
DA:1146,1
DA:1147,1
DA:1148,1
DA:1149,1
DA:1150,1
DA:1151,1
DA:1152,1
DA:1153,1
DA:1154,1
DA:1155,1
DA:1156,1
DA:1157,1
DA:1158,1
DA:1159,1
DA:1160,1
DA:1161,1
DA:1162,1
DA:1163,1
DA:1164,1
DA:1166,1
DA:1167,1
DA:1168,1
DA:1170,1
DA:1171,1
DA:1173,1
DA:1175,1
DA:1177,0
DA:1179,1
DA:1183,1
DA:1184,1
DA:1185,1
DA:1186,1
DA:1187,1
DA:1188,1
DA:1189,1
DA:1190,1
DA:1191,1
DA:1192,1
DA:1193,1
DA:1194,1
DA:1195,1
DA:1196,1
DA:1197,1
DA:1198,1
DA:1199,1
DA:1200,1
DA:1201,1
DA:1202,1
DA:1203,1
DA:1204,1
DA:1205,1
DA:1208,1
DA:1209,1
DA:1210,1
DA:1211,1
DA:1212,1
DA:1213,1
DA:1214,1
DA:1215,1
DA:1216,1
DA:1217,1
DA:1218,1
DA:1219,1
DA:1220,1
DA:1221,1
DA:1222,1
DA:1223,1
DA:1224,1
DA:1225,1
DA:1226,1
DA:1227,1
DA:1228,1
DA:1231,1
DA:1232,1
DA:1233,1
DA:1234,1
DA:1235,1
DA:1236,1
DA:1237,1
DA:1238,1
DA:1239,1
DA:1240,1
DA:1241,1
DA:1242,1
DA:1243,1
DA:1244,1
DA:1245,1
DA:1246,1
DA:1247,1
DA:1248,1
DA:1249,1
DA:1250,1
DA:1251,1
DA:1254,1
DA:1255,1
DA:1256,1
DA:1257,1
DA:1258,1
DA:1259,1
DA:1260,1
DA:1261,1
DA:1262,1
DA:1263,1
DA:1264,1
DA:1267,1
DA:1268,1
DA:1270,1
DA:1271,1
DA:1272,1
DA:1273,1
DA:1274,1
DA:1275,1
DA:1276,1
DA:1277,1
DA:1278,1
DA:1279,1
DA:1280,1
DA:1281,1
DA:1282,1
DA:1283,1
DA:1284,1
DA:1285,1
DA:1286,1
DA:1287,1
DA:1288,1
DA:1289,1
DA:1292,1
DA:1293,1
DA:1294,1
DA:1295,1
DA:1296,1
DA:1297,1
DA:1298,1
DA:1299,1
DA:1300,1
DA:1301,1
DA:1302,1
DA:1303,1
DA:1304,1
DA:1305,1
DA:1306,1
DA:1307,1
DA:1310,1
DA:1311,1
DA:1312,1
DA:1313,1
DA:1314,1
DA:1315,1
DA:1316,1
DA:1317,1
DA:1318,1
DA:1319,1
DA:1320,1
DA:1321,1
DA:1322,1
DA:1323,1
DA:1324,1
DA:1325,1
DA:1328,1
DA:1329,1
DA:1330,1
DA:1331,1
DA:1332,1
DA:1333,1
DA:1334,1
DA:1335,1
DA:1336,1
DA:1337,1
DA:1338,1
DA:1341,1
DA:1342,1
DA:1343,1
DA:1344,1
DA:1345,1
DA:1346,1
DA:1347,1
DA:1348,1
DA:1349,1
DA:1350,1
DA:1351,1
DA:1352,1
DA:1353,1
DA:1356,1
DA:1357,1
DA:1358,1
DA:1359,1
DA:1360,1
DA:1361,1
DA:1362,1
DA:1363,1
DA:1364,1
DA:1365,1
DA:1366,1
DA:1367,1
DA:1368,1
DA:1369,1
DA:1370,1
DA:1371,1
DA:1373,1
DA:1374,1
DA:1377,1
DA:1378,1
DA:1379,1
DA:1380,1
DA:1381,1
DA:1382,1
DA:1383,1
DA:1384,1
DA:1385,1
DA:1386,1
DA:1387,1
DA:1388,1
DA:1390,1
DA:1391,1
DA:1392,1
DA:1393,1
DA:1394,1
DA:1395,1
DA:1396,1
DA:1398,1
DA:1401,1
DA:1402,1
DA:1403,1
DA:1404,1
DA:1405,1
DA:1406,1
DA:1407,1
DA:1408,1
DA:1409,1
DA:1410,1
DA:1411,1
DA:1412,1
DA:1413,1
DA:1414,1
DA:1415,1
DA:1416,1
DA:1417,1
DA:1419,1
DA:1420,1
DA:1421,1
DA:1422,1
DA:1423,1
DA:1424,1
DA:1425,1
DA:1426,1
DA:1428,1
DA:1431,1
DA:1432,1
DA:1435,1
DA:1436,1
DA:1437,1
DA:1438,1
DA:1439,1
DA:1440,1
DA:1441,1
DA:1442,1
DA:1443,1
DA:1444,1
DA:1445,1
DA:1446,1
DA:1447,1
DA:1448,1
DA:1449,1
DA:1450,1
DA:1451,1
DA:1452,1
DA:1453,1
DA:1454,1
DA:1455,1
DA:1456,1
DA:1457,1
DA:1458,1
DA:1459,1
DA:1460,1
DA:1461,1
DA:1462,1
DA:1463,1
DA:1464,1
DA:1465,1
DA:1466,1
DA:1467,1
DA:1468,1
DA:1472,1
DA:1473,1
DA:1475,1
DA:1477,0
DA:1479,1
DA:1482,1
DA:1483,1
DA:1486,1
DA:1487,1
DA:1488,1
DA:1489,1
DA:1490,1
DA:1491,1
DA:1492,1
DA:1493,1
DA:1494,1
DA:1495,1
DA:1496,1
DA:1497,1
DA:1498,1
DA:1499,1
DA:1500,1
DA:1501,1
DA:1502,1
DA:1503,1
DA:1504,1
DA:1505,1
DA:1506,1
DA:1507,1
DA:1508,1
DA:1509,1
DA:1510,1
DA:1511,1
DA:1512,1
DA:1513,1
DA:1514,1
DA:1515,1
DA:1519,1
DA:1520,1
DA:1522,1
DA:1524,0
DA:1526,1
DA:1529,1
DA:1530,1
DA:1531,1
DA:1534,1
DA:1535,1
DA:1536,1
DA:1537,1
DA:1538,1
DA:1539,1
DA:1540,1
DA:1541,1
DA:1542,1
DA:1543,1
DA:1544,1
DA:1545,1
DA:1546,1
DA:1547,1
DA:1548,1
DA:1549,1
DA:1550,1
DA:1551,1
DA:1552,1
DA:1553,1
DA:1554,1
DA:1555,1
DA:1556,1
DA:1557,1
DA:1559,1
DA:1562,1
DA:1565,1
DA:1566,1
DA:1568,0
DA:1571,0
DA:1573,1
DA:1576,1
DA:1577,1
DA:1578,1
DA:1579,1
DA:1580,1
DA:1581,1
DA:1582,1
DA:1583,1
DA:1584,1
DA:1587,1
DA:1588,1
DA:1589,1
DA:1590,1
DA:1591,1
DA:1592,1
DA:1593,1
DA:1596,1
DA:1597,1
DA:1598,1
DA:1599,1
BRF:0
BRH:0
LF:1128
LH:1027
end_of_record
SF:/app/src/semantic/conversion.rs
FN:1429,_RNCNvNtNtCs4a0SCptkpqe_6glossa8semantic10conversion13extract_array0B7_
FN:1434,_RNCNvNtNtCs4a0SCptkpqe_6glossa8semantic10conversion13extract_arrays_0B7_
FN:1465,_RNCNvNtNtCs4a0SCptkpqe_6glossa8semantic10conversion17extract_binary_op0B7_
FN:1132,_RNCNvNtNtCs4a0SCptkpqe_6glossa8semantic10conversion19classify_expression0B7_
FN:1146,_RNCNvNtNtCs4a0SCptkpqe_6glossa8semantic10conversion19classify_expressions_0B7_
FN:1258,_RNCNvNtNtCs4a0SCptkpqe_6glossa8semantic10conversion19detect_enum_variant0B7_
FN:848,_RNCNvNtNtCs4a0SCptkpqe_6glossa8semantic10conversion19try_print_binary_op0B7_
FN:296,_RNCNvNtNtCs4a0SCptkpqe_6glossa8semantic10conversion22classify_function_call0B7_
FN:564,_RNvNtNtCs4a0SCptkpqe_6glossa8semantic10conversion12classify_pop
FN:597,_RNvNtNtCs4a0SCptkpqe_6glossa8semantic10conversion13classify_push
FN:1419,_RNvNtNtCs4a0SCptkpqe_6glossa8semantic10conversion13extract_array
FN:1611,_RNvNtNtCs4a0SCptkpqe_6glossa8semantic10conversion13extract_value
FN:981,_RNvNtNtCs4a0SCptkpqe_6glossa8semantic10conversion14classify_print
FN:1013,_RNvNtNtCs4a0SCptkpqe_6glossa8semantic10conversion14classify_query
FN:1322,_RNvNtNtCs4a0SCptkpqe_6glossa8semantic10conversion14extract_unwrap
FN:647,_RNvNtNtCs4a0SCptkpqe_6glossa8semantic10conversion15classify_insert
FN:1504,_RNvNtNtCs4a0SCptkpqe_6glossa8semantic10conversion15extract_literal
FN:931,_RNvNtNtCs4a0SCptkpqe_6glossa8semantic10conversion16try_print_unwrap
FN:1446,_RNvNtNtCs4a0SCptkpqe_6glossa8semantic10conversion17extract_binary_op
FN:949,_RNvNtNtCs4a0SCptkpqe_6glossa8semantic10conversion17try_print_default
FN:712,_RNvNtNtCs4a0SCptkpqe_6glossa8semantic10conversion18classify_assertion
FN:487,_RNvNtNtCs4a0SCptkpqe_6glossa8semantic10conversion19classify_assignment
FN:1106,_RNvNtNtCs4a0SCptkpqe_6glossa8semantic10conversion19classify_expression
FN:1250,_RNvNtNtCs4a0SCptkpqe_6glossa8semantic10conversion19detect_enum_variant
FN:841,_RNvNtNtCs4a0SCptkpqe_6glossa8semantic10conversion19try_print_binary_op
FN:1398,_RNvNtNtCs4a0SCptkpqe_6glossa8semantic10conversion20extract_index_access
FN:318,_RNvNtNtCs4a0SCptkpqe_6glossa8semantic10conversion21resolve_function_name
FN:261,_RNvNtNtCs4a0SCptkpqe_6glossa8semantic10conversion22classify_function_call
FN:389,_RNvNtNtCs4a0SCptkpqe_6glossa8semantic10conversion22resolve_binding_target
FN:909,_RNvNtNtCs4a0SCptkpqe_6glossa8semantic10conversion22try_print_index_access
FN:1351,_RNvNtNtCs4a0SCptkpqe_6glossa8semantic10conversion23extract_genitive_method
FN:1524,_RNvNtNtCs4a0SCptkpqe_6glossa8semantic10conversion23extract_object_fallback
FN:1373,_RNvNtNtCs4a0SCptkpqe_6glossa8semantic10conversion23extract_property_access
FN:1514,_RNvNtNtCs4a0SCptkpqe_6glossa8semantic10conversion24extract_enum_from_object
FN:186,_RNvNtNtCs4a0SCptkpqe_6glossa8semantic10conversion25classify_iterator_pattern
FN:448,_RNvNtNtCs4a0SCptkpqe_6glossa8semantic10conversion25classify_variable_binding
FN:1339,_RNvNtNtCs4a0SCptkpqe_6glossa8semantic10conversion25extract_enum_from_subject
FN:866,_RNvNtNtCs4a0SCptkpqe_6glossa8semantic10conversion25try_print_property_access
FN:1044,_RNvNtNtCs4a0SCptkpqe_6glossa8semantic10conversion26classify_containment_query
FN:794,_RNvNtNtCs4a0SCptkpqe_6glossa8semantic10conversion27classify_equality_assertion
FN:137,_RNvNtNtCs4a0SCptkpqe_6glossa8semantic10conversion28classify_assembled_statement
FN:541,_RNvNtNtCs4a0SCptkpqe_6glossa8semantic10conversion28classify_collection_mutation
FN:1231,_RNvNtNtCs4a0SCptkpqe_6glossa8semantic10conversion29classify_genitive_method_call
FN:93,_RNvNtNtCs4a0SCptkpqe_6glossa8semantic10conversion29convert_assembled_to_analyzed
FN:1361,_RNvNtNtCs4a0SCptkpqe_6glossa8semantic10conversion29extract_enum_from_nominatives
FN:210,_RNvNtNtCs4a0SCptkpqe_6glossa8semantic10conversion30classify_property_access_print
FN:1187,_RNvNtNtCs4a0SCptkpqe_6glossa8semantic10conversion30try_parse_genitive_method_call
FN:344,_RNvNtNtCs4a0SCptkpqe_6glossa8semantic10conversion31classify_subjunctive_comparison
FN:564,_RNvNtNtCs14PW5HJOtOs_6glossa8semantic10conversion12classify_pop
FN:597,_RNvNtNtCs14PW5HJOtOs_6glossa8semantic10conversion13classify_push
FN:1419,_RNvNtNtCs14PW5HJOtOs_6glossa8semantic10conversion13extract_array
FN:1611,_RNvNtNtCs14PW5HJOtOs_6glossa8semantic10conversion13extract_value
FN:981,_RNvNtNtCs14PW5HJOtOs_6glossa8semantic10conversion14classify_print
FN:1013,_RNvNtNtCs14PW5HJOtOs_6glossa8semantic10conversion14classify_query
FN:1322,_RNvNtNtCs14PW5HJOtOs_6glossa8semantic10conversion14extract_unwrap
FN:647,_RNvNtNtCs14PW5HJOtOs_6glossa8semantic10conversion15classify_insert
FN:1504,_RNvNtNtCs14PW5HJOtOs_6glossa8semantic10conversion15extract_literal
FN:931,_RNvNtNtCs14PW5HJOtOs_6glossa8semantic10conversion16try_print_unwrap
FN:1446,_RNvNtNtCs14PW5HJOtOs_6glossa8semantic10conversion17extract_binary_op
FN:949,_RNvNtNtCs14PW5HJOtOs_6glossa8semantic10conversion17try_print_default
FN:712,_RNvNtNtCs14PW5HJOtOs_6glossa8semantic10conversion18classify_assertion
FN:487,_RNvNtNtCs14PW5HJOtOs_6glossa8semantic10conversion19classify_assignment
FN:1106,_RNvNtNtCs14PW5HJOtOs_6glossa8semantic10conversion19classify_expression
FN:1250,_RNvNtNtCs14PW5HJOtOs_6glossa8semantic10conversion19detect_enum_variant
FN:841,_RNvNtNtCs14PW5HJOtOs_6glossa8semantic10conversion19try_print_binary_op
FN:1398,_RNvNtNtCs14PW5HJOtOs_6glossa8semantic10conversion20extract_index_access
FN:318,_RNvNtNtCs14PW5HJOtOs_6glossa8semantic10conversion21resolve_function_name
FN:261,_RNvNtNtCs14PW5HJOtOs_6glossa8semantic10conversion22classify_function_call
FN:389,_RNvNtNtCs14PW5HJOtOs_6glossa8semantic10conversion22resolve_binding_target
FN:909,_RNvNtNtCs14PW5HJOtOs_6glossa8semantic10conversion22try_print_index_access
FN:1351,_RNvNtNtCs14PW5HJOtOs_6glossa8semantic10conversion23extract_genitive_method
FN:1524,_RNvNtNtCs14PW5HJOtOs_6glossa8semantic10conversion23extract_object_fallback
FN:1373,_RNvNtNtCs14PW5HJOtOs_6glossa8semantic10conversion23extract_property_access
FN:1514,_RNvNtNtCs14PW5HJOtOs_6glossa8semantic10conversion24extract_enum_from_object
FN:186,_RNvNtNtCs14PW5HJOtOs_6glossa8semantic10conversion25classify_iterator_pattern
FN:448,_RNvNtNtCs14PW5HJOtOs_6glossa8semantic10conversion25classify_variable_binding
FN:1339,_RNvNtNtCs14PW5HJOtOs_6glossa8semantic10conversion25extract_enum_from_subject
FN:866,_RNvNtNtCs14PW5HJOtOs_6glossa8semantic10conversion25try_print_property_access
FN:1044,_RNvNtNtCs14PW5HJOtOs_6glossa8semantic10conversion26classify_containment_query
FN:794,_RNvNtNtCs14PW5HJOtOs_6glossa8semantic10conversion27classify_equality_assertion
FN:137,_RNvNtNtCs14PW5HJOtOs_6glossa8semantic10conversion28classify_assembled_statement
FN:541,_RNvNtNtCs14PW5HJOtOs_6glossa8semantic10conversion28classify_collection_mutation
FN:1231,_RNvNtNtCs14PW5HJOtOs_6glossa8semantic10conversion29classify_genitive_method_call
FN:93,_RNvNtNtCs14PW5HJOtOs_6glossa8semantic10conversion29convert_assembled_to_analyzed
FN:1361,_RNvNtNtCs14PW5HJOtOs_6glossa8semantic10conversion29extract_enum_from_nominatives
FN:210,_RNvNtNtCs14PW5HJOtOs_6glossa8semantic10conversion30classify_property_access_print
FN:1187,_RNvNtNtCs14PW5HJOtOs_6glossa8semantic10conversion30try_parse_genitive_method_call
FN:344,_RNvNtNtCs14PW5HJOtOs_6glossa8semantic10conversion31classify_subjunctive_comparison
FN:1429,_RNCNvNtNtCs14PW5HJOtOs_6glossa8semantic10conversion13extract_array0B7_
FN:1434,_RNCNvNtNtCs14PW5HJOtOs_6glossa8semantic10conversion13extract_arrays_0B7_
FN:1465,_RNCNvNtNtCs14PW5HJOtOs_6glossa8semantic10conversion17extract_binary_op0B7_
FN:1132,_RNCNvNtNtCs14PW5HJOtOs_6glossa8semantic10conversion19classify_expression0B7_
FN:1146,_RNCNvNtNtCs14PW5HJOtOs_6glossa8semantic10conversion19classify_expressions_0B7_
FN:1258,_RNCNvNtNtCs14PW5HJOtOs_6glossa8semantic10conversion19detect_enum_variant0B7_
FN:848,_RNCNvNtNtCs14PW5HJOtOs_6glossa8semantic10conversion19try_print_binary_op0B7_
FN:296,_RNCNvNtNtCs14PW5HJOtOs_6glossa8semantic10conversion22classify_function_call0B7_
FN:2278,_RNvNtNtNtCs14PW5HJOtOs_6glossa8semantic10conversion5testss_24test_extract_array_empty
FN:2207,_RNvNtNtNtCs14PW5HJOtOs_6glossa8semantic10conversion5testss_25test_extract_unwrap_empty
FN:2763,_RNvNtNtNtCs14PW5HJOtOs_6glossa8semantic10conversion5testss_26test_classify_push_no_args
FN:2314,_RNvNtNtNtCs14PW5HJOtOs_6glossa8semantic10conversion5testss_26test_extract_literal_empty
FN:2707,_RNvNtNtNtCs14PW5HJOtOs_6glossa8semantic10conversion5testss_27test_classify_insert_object
FN:2028,_RNvNtNtNtCs14PW5HJOtOs_6glossa8semantic10conversion5testss_27test_classify_print_no_verb
FN:2095,_RNvNtNtNtCs14PW5HJOtOs_6glossa8semantic10conversion5testss_27test_try_print_unwrap_empty
FN:2664,_RNvNtNtNtCs14PW5HJOtOs_6glossa8semantic10conversion5testss_28test_classify_insert_no_args
FN:1689,_RNvNtNtNtCs14PW5HJOtOs_6glossa8semantic10conversion5testss_28test_classify_pop_wrong_verb
FN:2290,_RNvNtNtNtCs14PW5HJOtOs_6glossa8semantic10conversion5testss_28test_extract_binary_op_empty
FN:1733,_RNvNtNtNtCs14PW5HJOtOs_6glossa8semantic10conversion5testss_29test_classify_push_wrong_verb
FN:2040,_RNvNtNtNtCs14PW5HJOtOs_6glossa8semantic10conversion5testss_30test_classify_print_wrong_verb
FN:2061,_RNvNtNtNtCs14PW5HJOtOs_6glossa8semantic10conversion5testss_30test_try_print_binary_op_empty
FN:1819,_RNvNtNtNtCs14PW5HJOtOs_6glossa8semantic10conversion5testss_31test_classify_assertion_no_verb
FN:1776,_RNvNtNtNtCs14PW5HJOtOs_6glossa8semantic10conversion5testss_31test_classify_insert_wrong_verb
FN:2266,_RNvNtNtNtCs14PW5HJOtOs_6glossa8semantic10conversion5testss_31test_extract_index_access_empty
FN:1710,_RNvNtNtNtCs14PW5HJOtOs_6glossa8semantic10conversion5testss_33test_classify_pop_missing_subject
FN:2083,_RNvNtNtNtCs14PW5HJOtOs_6glossa8semantic10conversion5testss_33test_try_print_index_access_empty
FN:1831,_RNvNtNtNtCs14PW5HJOtOs_6glossa8semantic10conversion5testss_34test_classify_assertion_wrong_verb
FN:1754,_RNvNtNtNtCs14PW5HJOtOs_6glossa8semantic10conversion5testss_34test_classify_push_missing_subject
FN:2231,_RNvNtNtNtCs14PW5HJOtOs_6glossa8semantic10conversion5testss_34test_extract_genitive_method_empty
FN:2326,_RNvNtNtNtCs14PW5HJOtOs_6glossa8semantic10conversion5testss_34test_extract_object_fallback_empty
FN:2254,_RNvNtNtNtCs14PW5HJOtOs_6glossa8semantic10conversion5testss_34test_extract_property_access_empty
FN:2302,_RNvNtNtNtCs14PW5HJOtOs_6glossa8semantic10conversion5testss_35test_extract_enum_from_object_empty
FN:1797,_RNvNtNtNtCs14PW5HJOtOs_6glossa8semantic10conversion5testss_36test_classify_insert_missing_subject
FN:2219,_RNvNtNtNtCs14PW5HJOtOs_6glossa8semantic10conversion5testss_36test_extract_enum_from_subject_empty
FN:2072,_RNvNtNtNtCs14PW5HJOtOs_6glossa8semantic10conversion5testss_36test_try_print_property_access_empty
FN:1852,_RNvNtNtNtCs14PW5HJOtOs_6glossa8semantic10conversion5testss_38test_classify_assertion_no_containment
FN:2417,_RNvNtNtNtCs14PW5HJOtOs_6glossa8semantic10conversion5testss_38test_classify_function_call_no_subject
FN:1874,_RNvNtNtNtCs14PW5HJOtOs_6glossa8semantic10conversion5testss_39test_classify_assertion_missing_subject
FN:1897,_RNvNtNtNtCs14PW5HJOtOs_6glossa8semantic10conversion5testss_40test_classify_equality_assertion_no_verb
FN:2196,_RNvNtNtNtCs14PW5HJOtOs_6glossa8semantic10conversion5testss_40test_classify_genitive_method_call_empty
FN:2242,_RNvNtNtNtCs14PW5HJOtOs_6glossa8semantic10conversion5testss_40test_extract_enum_from_nominatives_empty
FN:2016,_RNvNtNtNtCs14PW5HJOtOs_6glossa8semantic10conversion5testss_41test_classify_collection_mutation_no_verb
FN:2621,_RNvNtNtNtCs14PW5HJOtOs_6glossa8semantic10conversion5testss_42test_classify_query_containment_no_literal
FN:2832,_RNvNtNtNtCs14PW5HJOtOs_6glossa8semantic10conversion5testss_42test_extract_unwrap_with_expr_for_coverage
FN:1909,_RNvNtNtNtCs14PW5HJOtOs_6glossa8semantic10conversion5testss_43test_classify_equality_assertion_wrong_verb
FN:2578,_RNvNtNtNtCs14PW5HJOtOs_6glossa8semantic10conversion5testss_44test_resolve_binding_target_false_participle
FN:2858,_RNvNtNtNtCs14PW5HJOtOs_6glossa8semantic10conversion5testss_44test_try_print_unwrap_with_expr_for_coverage
FN:2811,_RNvNtNtNtCs14PW5HJOtOs_6glossa8semantic10conversion5testss_46test_classify_expression_empty_exprs_propagate
FN:2107,_RNvNtNtNtCs14PW5HJOtOs_6glossa8semantic10conversion5testss_46test_try_parse_genitive_method_call_no_subject
FN:2449,_RNvNtNtNtCs14PW5HJOtOs_6glossa8semantic10conversion5testss_47test_classify_subjunctive_comparison_no_subject
FN:2473,_RNvNtNtNtCs14PW5HJOtOs_6glossa8semantic10conversion5testss_47test_resolve_binding_target_subject_object_swap
FN:2118,_RNvNtNtNtCs14PW5HJOtOs_6glossa8semantic10conversion5testss_48test_try_parse_genitive_method_call_no_genitives
FN:1930,_RNvNtNtNtCs14PW5HJOtOs_6glossa8semantic10conversion5testss_50test_classify_equality_assertion_missing_left_expr
FN:2514,_RNvNtNtNtCs14PW5HJOtOs_6glossa8semantic10conversion5testss_50test_resolve_binding_target_subject_object_no_swap
FN:1984,_RNvNtNtNtCs14PW5HJOtOs_6glossa8semantic10conversion5testss_51test_classify_equality_assertion_missing_right_expr
FN:2138,_RNvNtNtNtCs14PW5HJOtOs_6glossa8semantic10conversion5testss_51test_try_parse_genitive_method_call_owner_not_found
FN:1953,_RNvNtNtNtCs14PW5HJOtOs_6glossa8semantic10conversion5testss_52test_classify_equality_assertion_undefined_left_expr
FN:2377,_RNvNtNtNtCs14PW5HJOtOs_6glossa8semantic10conversion5testss_52test_classify_property_access_print_owner_not_struct
FN:2603,_RNvNtNtNtCs14PW5HJOtOs_6glossa8semantic10conversion5testss_52test_resolve_binding_target_no_subject_no_participle
FN:2550,_RNvNtNtNtCs14PW5HJOtOs_6glossa8semantic10conversion5testss_53test_resolve_binding_target_no_subject_has_participle
FN:2338,_RNvNtNtNtCs14PW5HJOtOs_6glossa8semantic10conversion5testss_54test_classify_property_access_print_owner_not_in_scope
FN:2166,_RNvNtNtNtCs14PW5HJOtOs_6glossa8semantic10conversion5testss_58test_try_parse_genitive_method_call_method_already_defined
FNDA:111,_RNCNvNtNtCs4a0SCptkpqe_6glossa8semantic10conversion13extract_array0B7_
FNDA:37,_RNCNvNtNtCs4a0SCptkpqe_6glossa8semantic10conversion13extract_arrays_0B7_
FNDA:0,_RNCNvNtNtCs4a0SCptkpqe_6glossa8semantic10conversion17extract_binary_op0B7_
FNDA:7,_RNCNvNtNtCs4a0SCptkpqe_6glossa8semantic10conversion19classify_expression0B7_
FNDA:3,_RNCNvNtNtCs4a0SCptkpqe_6glossa8semantic10conversion19classify_expressions_0B7_
FNDA:722,_RNCNvNtNtCs4a0SCptkpqe_6glossa8semantic10conversion19detect_enum_variant0B7_
FNDA:3,_RNCNvNtNtCs4a0SCptkpqe_6glossa8semantic10conversion19try_print_binary_op0B7_
FNDA:1,_RNCNvNtNtCs4a0SCptkpqe_6glossa8semantic10conversion22classify_function_call0B7_
FNDA:324,_RNvNtNtCs4a0SCptkpqe_6glossa8semantic10conversion12classify_pop
FNDA:321,_RNvNtNtCs4a0SCptkpqe_6glossa8semantic10conversion13classify_push
FNDA:125,_RNvNtNtCs4a0SCptkpqe_6glossa8semantic10conversion13extract_array
FNDA:192,_RNvNtNtCs4a0SCptkpqe_6glossa8semantic10conversion13extract_value
FNDA:545,_RNvNtNtCs4a0SCptkpqe_6glossa8semantic10conversion14classify_print
FNDA:299,_RNvNtNtCs4a0SCptkpqe_6glossa8semantic10conversion14classify_query
FNDA:188,_RNvNtNtCs4a0SCptkpqe_6glossa8semantic10conversion14extract_unwrap
FNDA:318,_RNvNtNtCs4a0SCptkpqe_6glossa8semantic10conversion15classify_insert
FNDA:82,_RNvNtNtCs4a0SCptkpqe_6glossa8semantic10conversion15extract_literal
FNDA:233,_RNvNtNtCs4a0SCptkpqe_6glossa8semantic10conversion16try_print_unwrap
FNDA:85,_RNvNtNtCs4a0SCptkpqe_6glossa8semantic10conversion17extract_binary_op
FNDA:231,_RNvNtNtCs4a0SCptkpqe_6glossa8semantic10conversion17try_print_default
FNDA:769,_RNvNtNtCs4a0SCptkpqe_6glossa8semantic10conversion18classify_assertion
FNDA:566,_RNvNtNtCs4a0SCptkpqe_6glossa8semantic10conversion19classify_assignment
FNDA:294,_RNvNtNtCs4a0SCptkpqe_6glossa8semantic10conversion19classify_expression
FNDA:239,_RNvNtNtCs4a0SCptkpqe_6glossa8semantic10conversion19detect_enum_variant
FNDA:246,_RNvNtNtCs4a0SCptkpqe_6glossa8semantic10conversion19try_print_binary_op
FNDA:126,_RNvNtNtCs4a0SCptkpqe_6glossa8semantic10conversion20extract_index_access
FNDA:195,_RNvNtNtCs4a0SCptkpqe_6glossa8semantic10conversion21resolve_function_name
FNDA:772,_RNvNtNtCs4a0SCptkpqe_6glossa8semantic10conversion22classify_function_call
FNDA:189,_RNvNtNtCs4a0SCptkpqe_6glossa8semantic10conversion22resolve_binding_target
FNDA:238,_RNvNtNtCs4a0SCptkpqe_6glossa8semantic10conversion22try_print_index_access
FNDA:182,_RNvNtNtCs4a0SCptkpqe_6glossa8semantic10conversion23extract_genitive_method
FNDA:3,_RNvNtNtCs4a0SCptkpqe_6glossa8semantic10conversion23extract_object_fallback
FNDA:126,_RNvNtNtCs4a0SCptkpqe_6glossa8semantic10conversion23extract_property_access
FNDA:82,_RNvNtNtCs4a0SCptkpqe_6glossa8semantic10conversion24extract_enum_from_object
FNDA:805,_RNvNtNtCs4a0SCptkpqe_6glossa8semantic10conversion25classify_iterator_pattern
FNDA:755,_RNvNtNtCs4a0SCptkpqe_6glossa8semantic10conversion25classify_variable_binding
FNDA:182,_RNvNtNtCs4a0SCptkpqe_6glossa8semantic10conversion25extract_enum_from_subject
FNDA:243,_RNvNtNtCs4a0SCptkpqe_6glossa8semantic10conversion25try_print_property_access
FNDA:5,_RNvNtNtCs4a0SCptkpqe_6glossa8semantic10conversion26classify_containment_query
FNDA:767,_RNvNtNtCs4a0SCptkpqe_6glossa8semantic10conversion27classify_equality_assertion
FNDA:805,_RNvNtNtCs4a0SCptkpqe_6glossa8semantic10conversion28classify_assembled_statement
FNDA:559,_RNvNtNtCs4a0SCptkpqe_6glossa8semantic10conversion28classify_collection_mutation
FNDA:771,_RNvNtNtCs4a0SCptkpqe_6glossa8semantic10conversion29classify_genitive_method_call
FNDA:805,_RNvNtNtCs4a0SCptkpqe_6glossa8semantic10conversion29convert_assembled_to_analyzed
FNDA:182,_RNvNtNtCs4a0SCptkpqe_6glossa8semantic10conversion29extract_enum_from_nominatives
FNDA:775,_RNvNtNtCs4a0SCptkpqe_6glossa8semantic10conversion30classify_property_access_print
FNDA:707,_RNvNtNtCs4a0SCptkpqe_6glossa8semantic10conversion30try_parse_genitive_method_call
FNDA:762,_RNvNtNtCs4a0SCptkpqe_6glossa8semantic10conversion31classify_subjunctive_comparison
FNDA:35,_RNvNtNtCs14PW5HJOtOs_6glossa8semantic10conversion12classify_pop
FNDA:35,_RNvNtNtCs14PW5HJOtOs_6glossa8semantic10conversion13classify_push
FNDA:1361,_RNvNtNtCs14PW5HJOtOs_6glossa8semantic10conversion13extract_array
FNDA:1370,_RNvNtNtCs14PW5HJOtOs_6glossa8semantic10conversion13extract_value
FNDA:39,_RNvNtNtCs14PW5HJOtOs_6glossa8semantic10conversion14classify_print
FNDA:11,_RNvNtNtCs14PW5HJOtOs_6glossa8semantic10conversion14classify_query
FNDA:1370,_RNvNtNtCs14PW5HJOtOs_6glossa8semantic10conversion14extract_unwrap
FNDA:33,_RNvNtNtCs14PW5HJOtOs_6glossa8semantic10conversion15classify_insert
FNDA:1353,_RNvNtNtCs14PW5HJOtOs_6glossa8semantic10conversion15extract_literal
FNDA:26,_RNvNtNtCs14PW5HJOtOs_6glossa8semantic10conversion16try_print_unwrap
FNDA:1360,_RNvNtNtCs14PW5HJOtOs_6glossa8semantic10conversion17extract_binary_op
FNDA:23,_RNvNtNtCs14PW5HJOtOs_6glossa8semantic10conversion17try_print_default
FNDA:1399,_RNvNtNtCs14PW5HJOtOs_6glossa8semantic10conversion18classify_assertion
FNDA:46,_RNvNtNtCs14PW5HJOtOs_6glossa8semantic10conversion19classify_assignment
FNDA:11,_RNvNtNtCs14PW5HJOtOs_6glossa8semantic10conversion19classify_expression
FNDA:1363,_RNvNtNtCs14PW5HJOtOs_6glossa8semantic10conversion19detect_enum_variant
FNDA:28,_RNvNtNtCs14PW5HJOtOs_6glossa8semantic10conversion19try_print_binary_op
FNDA:1362,_RNvNtNtCs14PW5HJOtOs_6glossa8semantic10conversion20extract_index_access
FNDA:1347,_RNvNtNtCs14PW5HJOtOs_6glossa8semantic10conversion21resolve_function_name
FNDA:1396,_RNvNtNtCs14PW5HJOtOs_6glossa8semantic10conversion22classify_function_call
FNDA:1353,_RNvNtNtCs14PW5HJOtOs_6glossa8semantic10conversion22resolve_binding_target
FNDA:26,_RNvNtNtCs14PW5HJOtOs_6glossa8semantic10conversion22try_print_index_access
FNDA:1364,_RNvNtNtCs14PW5HJOtOs_6glossa8semantic10conversion23extract_genitive_method
FNDA:6,_RNvNtNtCs14PW5HJOtOs_6glossa8semantic10conversion23extract_object_fallback
FNDA:1363,_RNvNtNtCs14PW5HJOtOs_6glossa8semantic10conversion23extract_property_access
FNDA:1355,_RNvNtNtCs14PW5HJOtOs_6glossa8semantic10conversion24extract_enum_from_object
FNDA:1395,_RNvNtNtCs14PW5HJOtOs_6glossa8semantic10conversion25classify_iterator_pattern
FNDA:1394,_RNvNtNtCs14PW5HJOtOs_6glossa8semantic10conversion25classify_variable_binding
FNDA:1368,_RNvNtNtCs14PW5HJOtOs_6glossa8semantic10conversion25extract_enum_from_subject
FNDA:27,_RNvNtNtCs14PW5HJOtOs_6glossa8semantic10conversion25try_print_property_access
FNDA:1,_RNvNtNtCs14PW5HJOtOs_6glossa8semantic10conversion26classify_containment_query
FNDA:1400,_RNvNtNtCs14PW5HJOtOs_6glossa8semantic10conversion27classify_equality_assertion
FNDA:1395,_RNvNtNtCs14PW5HJOtOs_6glossa8semantic10conversion28classify_assembled_statement
FNDA:44,_RNvNtNtCs14PW5HJOtOs_6glossa8semantic10conversion28classify_collection_mutation
FNDA:1396,_RNvNtNtCs14PW5HJOtOs_6glossa8semantic10conversion29classify_genitive_method_call
FNDA:1386,_RNvNtNtCs14PW5HJOtOs_6glossa8semantic10conversion29convert_assembled_to_analyzed
FNDA:1363,_RNvNtNtCs14PW5HJOtOs_6glossa8semantic10conversion29extract_enum_from_nominatives
FNDA:1397,_RNvNtNtCs14PW5HJOtOs_6glossa8semantic10conversion30classify_property_access_print
FNDA:2737,_RNvNtNtCs14PW5HJOtOs_6glossa8semantic10conversion30try_parse_genitive_method_call
FNDA:1396,_RNvNtNtCs14PW5HJOtOs_6glossa8semantic10conversion31classify_subjunctive_comparison
FNDA:2,_RNCNvNtNtCs14PW5HJOtOs_6glossa8semantic10conversion13extract_array0B7_
FNDA:1,_RNCNvNtNtCs14PW5HJOtOs_6glossa8semantic10conversion13extract_arrays_0B7_
FNDA:9,_RNCNvNtNtCs14PW5HJOtOs_6glossa8semantic10conversion17extract_binary_op0B7_
FNDA:2,_RNCNvNtNtCs14PW5HJOtOs_6glossa8semantic10conversion19classify_expression0B7_
FNDA:0,_RNCNvNtNtCs14PW5HJOtOs_6glossa8semantic10conversion19classify_expressions_0B7_
FNDA:5402,_RNCNvNtNtCs14PW5HJOtOs_6glossa8semantic10conversion19detect_enum_variant0B7_
FNDA:1,_RNCNvNtNtCs14PW5HJOtOs_6glossa8semantic10conversion19try_print_binary_op0B7_
FNDA:0,_RNCNvNtNtCs14PW5HJOtOs_6glossa8semantic10conversion22classify_function_call0B7_
FNDA:1,_RNvNtNtNtCs14PW5HJOtOs_6glossa8semantic10conversion5testss_24test_extract_array_empty
FNDA:1,_RNvNtNtNtCs14PW5HJOtOs_6glossa8semantic10conversion5testss_25test_extract_unwrap_empty
FNDA:1,_RNvNtNtNtCs14PW5HJOtOs_6glossa8semantic10conversion5testss_26test_classify_push_no_args
FNDA:1,_RNvNtNtNtCs14PW5HJOtOs_6glossa8semantic10conversion5testss_26test_extract_literal_empty
FNDA:1,_RNvNtNtNtCs14PW5HJOtOs_6glossa8semantic10conversion5testss_27test_classify_insert_object
FNDA:1,_RNvNtNtNtCs14PW5HJOtOs_6glossa8semantic10conversion5testss_27test_classify_print_no_verb
FNDA:1,_RNvNtNtNtCs14PW5HJOtOs_6glossa8semantic10conversion5testss_27test_try_print_unwrap_empty
FNDA:1,_RNvNtNtNtCs14PW5HJOtOs_6glossa8semantic10conversion5testss_28test_classify_insert_no_args
FNDA:1,_RNvNtNtNtCs14PW5HJOtOs_6glossa8semantic10conversion5testss_28test_classify_pop_wrong_verb
FNDA:1,_RNvNtNtNtCs14PW5HJOtOs_6glossa8semantic10conversion5testss_28test_extract_binary_op_empty
FNDA:1,_RNvNtNtNtCs14PW5HJOtOs_6glossa8semantic10conversion5testss_29test_classify_push_wrong_verb
FNDA:1,_RNvNtNtNtCs14PW5HJOtOs_6glossa8semantic10conversion5testss_30test_classify_print_wrong_verb
FNDA:1,_RNvNtNtNtCs14PW5HJOtOs_6glossa8semantic10conversion5testss_30test_try_print_binary_op_empty
FNDA:1,_RNvNtNtNtCs14PW5HJOtOs_6glossa8semantic10conversion5testss_31test_classify_assertion_no_verb
FNDA:1,_RNvNtNtNtCs14PW5HJOtOs_6glossa8semantic10conversion5testss_31test_classify_insert_wrong_verb
FNDA:1,_RNvNtNtNtCs14PW5HJOtOs_6glossa8semantic10conversion5testss_31test_extract_index_access_empty
FNDA:1,_RNvNtNtNtCs14PW5HJOtOs_6glossa8semantic10conversion5testss_33test_classify_pop_missing_subject
FNDA:1,_RNvNtNtNtCs14PW5HJOtOs_6glossa8semantic10conversion5testss_33test_try_print_index_access_empty
FNDA:1,_RNvNtNtNtCs14PW5HJOtOs_6glossa8semantic10conversion5testss_34test_classify_assertion_wrong_verb
FNDA:1,_RNvNtNtNtCs14PW5HJOtOs_6glossa8semantic10conversion5testss_34test_classify_push_missing_subject
FNDA:1,_RNvNtNtNtCs14PW5HJOtOs_6glossa8semantic10conversion5testss_34test_extract_genitive_method_empty
FNDA:1,_RNvNtNtNtCs14PW5HJOtOs_6glossa8semantic10conversion5testss_34test_extract_object_fallback_empty
FNDA:1,_RNvNtNtNtCs14PW5HJOtOs_6glossa8semantic10conversion5testss_34test_extract_property_access_empty
FNDA:1,_RNvNtNtNtCs14PW5HJOtOs_6glossa8semantic10conversion5testss_35test_extract_enum_from_object_empty
FNDA:1,_RNvNtNtNtCs14PW5HJOtOs_6glossa8semantic10conversion5testss_36test_classify_insert_missing_subject
FNDA:1,_RNvNtNtNtCs14PW5HJOtOs_6glossa8semantic10conversion5testss_36test_extract_enum_from_subject_empty
FNDA:1,_RNvNtNtNtCs14PW5HJOtOs_6glossa8semantic10conversion5testss_36test_try_print_property_access_empty
FNDA:1,_RNvNtNtNtCs14PW5HJOtOs_6glossa8semantic10conversion5testss_38test_classify_assertion_no_containment
FNDA:1,_RNvNtNtNtCs14PW5HJOtOs_6glossa8semantic10conversion5testss_38test_classify_function_call_no_subject
FNDA:1,_RNvNtNtNtCs14PW5HJOtOs_6glossa8semantic10conversion5testss_39test_classify_assertion_missing_subject
FNDA:1,_RNvNtNtNtCs14PW5HJOtOs_6glossa8semantic10conversion5testss_40test_classify_equality_assertion_no_verb
FNDA:1,_RNvNtNtNtCs14PW5HJOtOs_6glossa8semantic10conversion5testss_40test_classify_genitive_method_call_empty
FNDA:1,_RNvNtNtNtCs14PW5HJOtOs_6glossa8semantic10conversion5testss_40test_extract_enum_from_nominatives_empty
FNDA:1,_RNvNtNtNtCs14PW5HJOtOs_6glossa8semantic10conversion5testss_41test_classify_collection_mutation_no_verb
FNDA:1,_RNvNtNtNtCs14PW5HJOtOs_6glossa8semantic10conversion5testss_42test_classify_query_containment_no_literal
FNDA:1,_RNvNtNtNtCs14PW5HJOtOs_6glossa8semantic10conversion5testss_42test_extract_unwrap_with_expr_for_coverage
FNDA:1,_RNvNtNtNtCs14PW5HJOtOs_6glossa8semantic10conversion5testss_43test_classify_equality_assertion_wrong_verb
FNDA:1,_RNvNtNtNtCs14PW5HJOtOs_6glossa8semantic10conversion5testss_44test_resolve_binding_target_false_participle
FNDA:1,_RNvNtNtNtCs14PW5HJOtOs_6glossa8semantic10conversion5testss_44test_try_print_unwrap_with_expr_for_coverage
FNDA:1,_RNvNtNtNtCs14PW5HJOtOs_6glossa8semantic10conversion5testss_46test_classify_expression_empty_exprs_propagate
FNDA:1,_RNvNtNtNtCs14PW5HJOtOs_6glossa8semantic10conversion5testss_46test_try_parse_genitive_method_call_no_subject
FNDA:1,_RNvNtNtNtCs14PW5HJOtOs_6glossa8semantic10conversion5testss_47test_classify_subjunctive_comparison_no_subject
FNDA:1,_RNvNtNtNtCs14PW5HJOtOs_6glossa8semantic10conversion5testss_47test_resolve_binding_target_subject_object_swap
FNDA:1,_RNvNtNtNtCs14PW5HJOtOs_6glossa8semantic10conversion5testss_48test_try_parse_genitive_method_call_no_genitives
FNDA:1,_RNvNtNtNtCs14PW5HJOtOs_6glossa8semantic10conversion5testss_50test_classify_equality_assertion_missing_left_expr
FNDA:1,_RNvNtNtNtCs14PW5HJOtOs_6glossa8semantic10conversion5testss_50test_resolve_binding_target_subject_object_no_swap
FNDA:1,_RNvNtNtNtCs14PW5HJOtOs_6glossa8semantic10conversion5testss_51test_classify_equality_assertion_missing_right_expr
FNDA:1,_RNvNtNtNtCs14PW5HJOtOs_6glossa8semantic10conversion5testss_51test_try_parse_genitive_method_call_owner_not_found
FNDA:1,_RNvNtNtNtCs14PW5HJOtOs_6glossa8semantic10conversion5testss_52test_classify_equality_assertion_undefined_left_expr
FNDA:1,_RNvNtNtNtCs14PW5HJOtOs_6glossa8semantic10conversion5testss_52test_classify_property_access_print_owner_not_struct
FNDA:1,_RNvNtNtNtCs14PW5HJOtOs_6glossa8semantic10conversion5testss_52test_resolve_binding_target_no_subject_no_participle
FNDA:1,_RNvNtNtNtCs14PW5HJOtOs_6glossa8semantic10conversion5testss_53test_resolve_binding_target_no_subject_has_participle
FNDA:1,_RNvNtNtNtCs14PW5HJOtOs_6glossa8semantic10conversion5testss_54test_classify_property_access_print_owner_not_in_scope
FNDA:1,_RNvNtNtNtCs14PW5HJOtOs_6glossa8semantic10conversion5testss_58test_try_parse_genitive_method_call_method_already_defined
FNF:102
FNH:102
DA:93,2191
DA:94,2191
DA:95,2191
DA:96,2191
DA:97,2191
DA:98,2191
DA:137,2200
DA:138,2200
DA:139,2200
DA:140,2200
DA:141,2200
DA:142,30
DA:143,2170
DA:144,2170
DA:145,3
DA:146,2167
DA:147,2167
DA:148,1
DA:149,2166
DA:150,2166
DA:151,2
DA:152,2164
DA:153,2164
DA:154,2
DA:155,2162
DA:156,2162
DA:157,5
DA:158,2157
DA:159,2157
DA:160,8
DA:161,2149
DA:162,2149
DA:163,1534
DA:164,612
DA:165,612
DA:166,4
DA:167,602
DA:168,602
DA:169,20
DA:170,582
DA:171,582
DA:172,272
DA:173,309
DA:174,309
DA:175,5
DA:176,304
DA:178,304
DA:179,2200
DA:186,2200
DA:187,2200
DA:188,2200
DA:189,2200
DA:190,2200
DA:191,1955
DA:192,1955
DA:193,1655
DA:195,245
DA:198,2200
DA:199,2131
DA:200,2123
DA:201,330
DA:203,30
DA:204,2170
DA:206,2170
DA:207,2200
DA:210,2172
DA:211,2172
DA:212,2172
DA:213,2172
DA:214,2172
DA:215,245
DA:218,1927
DA:219,1651
DA:220,276
DA:222,276
DA:223,272
DA:224,4
DA:226,4
DA:227,1
DA:231,3
DA:234,3
DA:237,3
DA:238,0
DA:241,3
DA:242,0
DA:243,3
DA:246,3
DA:247,3
DA:248,3
DA:249,3
DA:250,3
DA:251,3
DA:252,3
DA:253,3
DA:254,3
DA:255,3
DA:257,3
DA:258,2172
DA:261,2168
DA:262,2168
DA:263,2168
DA:264,2168
DA:265,2168
DA:266,245
DA:270,1923
DA:271,375
DA:272,1548
DA:274,1548
DA:275,6
DA:279,1542
DA:280,1541
DA:284,1
DA:286,1
DA:288,1
DA:289,1
DA:290,1
DA:291,1
DA:294,1
DA:295,1
DA:296,1
DA:297,1
DA:299,1
DA:300,1
DA:301,1
DA:302,1
DA:303,1
DA:304,1
DA:305,1
DA:307,1
DA:308,1
DA:310,1
DA:311,1
DA:312,1
DA:313,1
DA:314,1
DA:315,2168
DA:318,1542
DA:319,1542
DA:320,1542
DA:321,1542
DA:322,1542
DA:323,62
DA:324,1
DA:325,61
DA:328,1541
DA:329,2
DA:331,0
DA:332,1541
DA:334,1541
DA:335,2
DA:336,0
DA:337,2
DA:340,1541
DA:341,1542
DA:344,2158
DA:345,2158
DA:346,2158
DA:347,2158
DA:348,2158
DA:349,245
DA:352,1913
DA:353,1545
DA:354,12
DA:355,12
DA:357,1905
DA:358,8
DA:360,8
DA:361,0
DA:364,8
DA:365,6
DA:366,6
DA:367,6
DA:368,6
DA:370,2
DA:371,2
DA:372,2
DA:373,2
DA:376,8
DA:377,8
DA:378,8
DA:380,8
DA:381,2158
DA:389,1542
DA:390,1542
DA:391,1542
DA:392,1542
DA:394,1542
DA:395,9
DA:397,1542
DA:398,7
DA:399,7
DA:400,7
DA:401,7
DA:402,7
DA:403,7
DA:404,7
DA:405,1535
DA:408,1535
DA:409,4
DA:410,4
DA:412,4
DA:413,3
DA:414,3
DA:415,3
DA:416,3
DA:418,1
DA:419,1
DA:420,1
DA:421,1
DA:423,1531
DA:426,1531
DA:427,1527
DA:428,1527
DA:429,1527
DA:430,1527
DA:431,4
DA:434,4
DA:435,2
DA:436,2
DA:437,2
DA:438,2
DA:439,2
DA:440,2
DA:441,2
DA:442,2
DA:444,2
DA:445,1542
DA:448,2149
DA:449,2149
DA:450,2149
DA:451,2149
DA:452,2149
DA:453,245
DA:456,1904
DA:457,367
DA:458,1537
DA:460,1537
DA:461,1536
DA:463,1534
DA:464,10
DA:465,10
DA:466,10
DA:467,10
DA:469,1524
DA:472,1534
DA:473,1534
DA:474,7
DA:475,1527
DA:476,1527
DA:477,1527
DA:479,1534
DA:480,1534
DA:481,1534
DA:482,1534
DA:483,1534
DA:484,2149
DA:487,612
DA:488,612
DA:489,612
DA:490,612
DA:491,612
DA:492,245
DA:495,367
DA:496,357
DA:497,10
DA:499,10
DA:500,0
DA:503,10
DA:505,10
DA:506,2
DA:507,2
DA:508,2
DA:509,2
DA:510,2
DA:511,2
DA:512,2
DA:513,2
DA:515,6
DA:516,2
DA:517,2
DA:518,2
DA:519,2
DA:520,2
DA:521,2
DA:523,6
DA:524,2
DA:525,2
DA:526,2
DA:527,2
DA:528,4
DA:530,4
DA:531,4
DA:532,4
DA:533,4
DA:534,4
DA:535,4
DA:538,612
DA:541,603
DA:542,603
DA:543,603
DA:544,603
DA:545,603
DA:546,246
DA:549,357
DA:551,357
DA:552,4
DA:553,353
DA:554,353
DA:555,6
DA:556,347
DA:557,347
DA:558,10
DA:559,337
DA:561,337
DA:562,603
DA:564,359
DA:565,359
DA:566,359
DA:567,359
DA:568,359
DA:569,359
DA:570,355
DA:571,4
DA:573,4
DA:574,0
DA:577,4
DA:578,4
DA:579,4
DA:580,4
DA:581,4
DA:582,4
DA:583,4
DA:585,4
DA:586,4
DA:587,4
DA:588,4
DA:589,4
DA:590,4
DA:591,4
DA:592,4
DA:594,4
DA:595,359
DA:597,356
DA:598,356
DA:599,356
DA:600,356
DA:601,356
DA:602,356
DA:603,349
DA:604,7
DA:606,7
DA:607,0
DA:610,7
DA:611,7
DA:612,7
DA:613,7
DA:614,7
DA:615,7
DA:616,7
DA:618,7
DA:619,4
DA:620,3
DA:621,1
DA:622,1
DA:623,1
DA:624,1
DA:625,1
DA:626,1
DA:627,1
DA:629,2
DA:630,2
DA:631,2
DA:632,2
DA:635,7
DA:636,7
DA:637,7
DA:638,7
DA:639,7
DA:640,7
DA:641,7
DA:642,7
DA:644,7
DA:645,356
DA:647,351
DA:648,351
DA:649,351
DA:650,351
DA:651,351
DA:652,351
DA:653,339
DA:654,12
DA:656,12
DA:657,0
DA:660,12
DA:661,12
DA:662,12
DA:663,12
DA:664,12
DA:666,12
DA:667,12
DA:668,12
DA:669,12
DA:671,12
DA:673,12
DA:674,5
DA:675,5
DA:676,5
DA:678,7
DA:679,5
DA:680,2
DA:681,1
DA:682,1
DA:683,1
DA:684,1
DA:685,1
DA:686,1
DA:687,1
DA:689,1
DA:692,12
DA:693,5
DA:695,7
DA:697,12
DA:698,12
DA:699,12
DA:700,12
DA:701,12
DA:702,12
DA:703,12
DA:704,12
DA:706,12
DA:707,351
DA:712,2168
DA:713,2168
DA:714,2168
DA:715,2168
DA:716,2168
DA:717,246
DA:720,1922
DA:721,1922
DA:722,1920
DA:723,2
DA:729,2
DA:730,0
DA:731,2
DA:733,2
DA:734,0
DA:738,2
DA:739,2
DA:740,2
DA:741,2
DA:742,2
DA:744,2
DA:745,2
DA:747,0
DA:748,0
DA:749,0
DA:750,0
DA:753,2
DA:754,2
DA:757,2
DA:758,0
DA:760,2
DA:761,2
DA:762,2
DA:763,2
DA:764,2
DA:765,2
DA:766,2
DA:769,2
DA:770,2
DA:771,2
DA:772,2
DA:773,2
DA:774,2
DA:775,2
DA:776,2
DA:777,2
DA:778,2
DA:779,2
DA:781,2
DA:782,2
DA:783,2
DA:784,2
DA:785,2
DA:786,2
DA:788,2
DA:789,2168
DA:794,2167
DA:795,2167
DA:796,2167
DA:797,2167
DA:798,2167
DA:799,246
DA:802,1921
DA:803,1921
DA:804,1916
DA:805,5
DA:808,5
DA:809,5
DA:812,5
DA:813,5
DA:814,5
DA:815,5
DA:816,5
DA:817,5
DA:818,5
DA:819,5
DA:822,5
DA:823,5
DA:824,5
DA:826,5
DA:827,0
DA:830,5
DA:831,5
DA:832,5
DA:833,5
DA:834,5
DA:835,5
DA:836,5
DA:838,5
DA:839,2167
DA:841,274
DA:842,274
DA:843,274
DA:844,274
DA:845,274
DA:846,13
DA:847,4
DA:848,4
DA:849,4
DA:850,4
DA:852,9
DA:855,13
DA:857,13
DA:858,4
DA:859,4
DA:860,4
DA:861,9
DA:862,261
DA:863,270
DA:864,274
DA:866,270
DA:867,270
DA:868,270
DA:869,270
DA:870,270
DA:871,6
DA:872,6
DA:873,6
DA:874,6
DA:875,6
DA:876,6
DA:877,6
DA:878,2
DA:879,2
DA:880,2
DA:881,2
DA:882,2
DA:884,0
DA:887,4
DA:889,6
DA:890,6
DA:891,3
DA:892,2
DA:893,1
DA:895,6
DA:896,6
DA:897,6
DA:898,6
DA:899,6
DA:900,6
DA:901,6
DA:902,6
DA:904,6
DA:905,264
DA:906,264
DA:907,270
DA:909,264
DA:910,264
DA:911,264
DA:912,264
DA:913,264
DA:914,6
DA:915,6
DA:916,6
DA:917,6
DA:918,6
DA:919,6
DA:920,6
DA:921,6
DA:922,6
DA:923,6
DA:924,6
DA:926,6
DA:927,258
DA:928,258
DA:929,264
DA:931,259
DA:932,259
DA:933,259
DA:934,259
DA:935,259
DA:936,4
DA:937,4
DA:938,4
DA:939,4
DA:940,4
DA:941,4
DA:942,4
DA:944,4
DA:945,255
DA:946,255
DA:947,259
DA:949,254
DA:950,254
DA:951,254
DA:952,254
DA:953,253
DA:954,254
DA:956,253
DA:957,132
DA:958,42
DA:959,42
DA:960,42
DA:961,42
DA:962,42
DA:963,42
DA:964,42
DA:965,42
DA:966,211
DA:968,253
DA:969,0
DA:970,0
DA:971,0
DA:972,0
DA:973,0
DA:974,0
DA:975,253
DA:977,253
DA:978,254
DA:981,584
DA:982,584
DA:983,584
DA:984,584
DA:985,584
DA:986,338
DA:988,338
DA:989,273
DA:990,4
DA:991,269
DA:993,269
DA:994,6
DA:995,263
DA:997,263
DA:998,6
DA:999,257
DA:1001,257
DA:1002,3
DA:1003,254
DA:1005,254
DA:1006,253
DA:1007,65
DA:1008,246
DA:1009,311
DA:1010,584
DA:1013,310
DA:1014,310
DA:1015,310
DA:1016,310
DA:1017,310
DA:1018,304
DA:1019,6
DA:1021,6
DA:1022,4
DA:1023,2
DA:1026,2
DA:1027,2
DA:1028,0
DA:1029,0
DA:1030,2
DA:1031,1
DA:1032,1
DA:1033,1
DA:1034,1
DA:1035,1
DA:1036,1
DA:1037,1
DA:1038,1
DA:1039,1
DA:1040,2
DA:1041,310
DA:1044,6
DA:1045,6
DA:1046,6
DA:1047,6
DA:1048,6
DA:1049,2
DA:1050,4
DA:1052,4
DA:1053,0
DA:1056,4
DA:1057,4
DA:1058,4
DA:1059,4
DA:1060,4
DA:1062,4
DA:1063,4
DA:1064,4
DA:1065,4
DA:1067,4
DA:1068,3
DA:1070,1
DA:1071,1
DA:1072,1
DA:1073,1
DA:1076,4
DA:1077,4
DA:1080,4
DA:1081,2
DA:1083,2
DA:1084,2
DA:1085,2
DA:1086,2
DA:1087,2
DA:1088,2
DA:1089,2
DA:1092,4
DA:1093,4
DA:1094,4
DA:1095,4
DA:1096,4
DA:1097,4
DA:1098,4
DA:1099,4
DA:1101,4
DA:1102,6
DA:1106,305
DA:1107,305
DA:1108,305
DA:1109,305
DA:1115,305
DA:1116,11
DA:1119,11
DA:1121,294
DA:1124,305
DA:1128,305
DA:1129,11
DA:1131,11
DA:1132,9
DA:1133,9
DA:1134,9
DA:1137,11
DA:1138,5
DA:1139,6
DA:1140,0
DA:1141,0
DA:1142,0
DA:1143,0
DA:1145,6
DA:1146,3
DA:1147,3
DA:1148,3
DA:1151,11
DA:1152,7
DA:1153,7
DA:1154,7
DA:1155,294
DA:1158,305
DA:1159,22
DA:1160,7
DA:1161,7
DA:1162,7
DA:1163,7
DA:1164,15
DA:1165,0
DA:1166,0
DA:1167,0
DA:1168,0
DA:1169,15
DA:1170,283
DA:1172,305
DA:1174,2
DA:1175,2
DA:1176,2
DA:1177,2
DA:1178,2
DA:1179,2
DA:1180,2
DA:1181,303
DA:1183,305
DA:1184,305
DA:1187,3444
DA:1188,3444
DA:1189,3444
DA:1190,3444
DA:1191,3444
DA:1193,3163
DA:1194,3158
DA:1195,5
DA:1197,5
DA:1198,5
DA:1200,5
DA:1202,4
DA:1203,1
DA:1204,3
DA:1206,3
DA:1207,3
DA:1208,3
DA:1209,3
DA:1211,3
DA:1212,3
DA:1213,3
DA:1214,3
DA:1215,3
DA:1217,3
DA:1218,3
DA:1219,3
DA:1220,3
DA:1221,3
DA:1222,3
DA:1223,3
DA:1224,3
DA:1225,3
DA:1226,3
DA:1227,3
DA:1228,3444
DA:1231,2167
DA:1232,2167
DA:1233,2167
DA:1234,2167
DA:1235,2167
DA:1236,1921
DA:1237,1921
DA:1238,273
DA:1239,1648
DA:1240,246
DA:1242,1894
DA:1243,2
DA:1244,1892
DA:1246,1892
DA:1247,2167
DA:1250,1602
DA:1251,1602
DA:1252,1602
DA:1253,1602
DA:1254,1602
DA:1255,1602
DA:1258,6124
DA:1261,1602
DA:1262,6
DA:1263,6
DA:1264,6
DA:1265,6
DA:1266,6
DA:1267,6
DA:1268,6
DA:1269,1596
DA:1271,1596
DA:1272,1531
DA:1273,1531
DA:1276,1531
DA:1277,28
DA:1278,28
DA:1279,28
DA:1280,28
DA:1281,28
DA:1282,28
DA:1283,28
DA:1284,1503
DA:1287,1503
DA:1288,15
DA:1289,15
DA:1290,15
DA:1291,15
DA:1292,15
DA:1293,15
DA:1294,15
DA:1295,15
DA:1296,15
DA:1297,15
DA:1298,1488
DA:1301,1488
DA:1302,13
DA:1303,13
DA:1304,13
DA:1305,13
DA:1306,13
DA:1307,13
DA:1308,13
DA:1309,13
DA:1310,13
DA:1311,13
DA:1312,1475
DA:1313,65
DA:1315,1540
DA:1316,1602
DA:1322,1558
DA:1323,1558
DA:1324,1558
DA:1325,1558
DA:1326,1558
DA:1327,8
DA:1328,8
DA:1329,8
DA:1330,8
DA:1331,8
DA:1332,8
DA:1333,8
DA:1334,8
DA:1335,1550
DA:1336,1550
DA:1337,1558
DA:1339,1550
DA:1340,1550
DA:1341,1550
DA:1342,1550
DA:1343,1550
DA:1344,1530
DA:1346,4
DA:1347,1546
DA:1348,1546
DA:1349,1550
DA:1351,1546
DA:1352,1546
DA:1353,1546
DA:1354,1546
DA:1355,1546
DA:1356,1
DA:1357,1545
DA:1358,1545
DA:1359,1546
DA:1361,1545
DA:1362,1545
DA:1363,1545
DA:1364,1545
DA:1365,1545
DA:1366,66
DA:1367,56
DA:1368,10
DA:1370,1489
DA:1371,1545
DA:1373,1489
DA:1374,1489
DA:1375,1489
DA:1376,1489
DA:1377,1489
DA:1378,1488
DA:1381,1
DA:1382,1
DA:1383,1
DA:1384,1
DA:1385,1
DA:1386,1
DA:1387,1
DA:1388,1
DA:1389,1
DA:1390,1
DA:1391,1
DA:1392,1
DA:1393,1
DA:1394,1
DA:1395,1
DA:1396,1489
DA:1398,1488
DA:1399,1488
DA:1400,1488
DA:1401,1488
DA:1402,1488
DA:1403,2
DA:1404,2
DA:1405,2
DA:1406,2
DA:1407,2
DA:1408,2
DA:1409,2
DA:1410,2
DA:1411,2
DA:1412,2
DA:1413,2
DA:1414,2
DA:1415,1486
DA:1416,1486
DA:1417,1488
DA:1419,1486
DA:1420,1486
DA:1421,1486
DA:1422,1486
DA:1423,1486
DA:1424,1445
DA:1427,41
DA:1428,41
DA:1429,113
DA:1430,41
DA:1432,41
DA:1433,41
DA:1434,41
DA:1435,41
DA:1437,41
DA:1438,41
DA:1439,41
DA:1440,41
DA:1441,41
DA:1442,41
DA:1443,41
DA:1444,1486
DA:1446,1445
DA:1447,1445
DA:1448,1445
DA:1449,1445
DA:1450,1445
DA:1451,1436
DA:1452,9
DA:1455,9
DA:1456,3
DA:1457,3
DA:1458,3
DA:1459,3
DA:1460,3
DA:1461,0
DA:1462,6
DA:1464,6
DA:1465,9
DA:1466,9
DA:1467,9
DA:1469,6
DA:1472,6
DA:1473,3
DA:1475,1
DA:1476,1
DA:1477,1
DA:1478,1
DA:1479,1
DA:1480,2
DA:1483,2
DA:1484,2
DA:1485,2
DA:1486,2
DA:1487,2
DA:1488,2
DA:1489,0
DA:1490,3
DA:1493,3
DA:1494,2
DA:1495,2
DA:1496,2
DA:1497,2
DA:1498,2
DA:1499,1
DA:1501,1
DA:1502,1445
DA:1504,1435
DA:1505,1435
DA:1506,1435
DA:1507,1435
DA:1508,1435
DA:1509,1426
DA:1510,9
DA:1511,9
DA:1512,1435
DA:1514,1437
DA:1515,1437
DA:1516,1437
DA:1517,1437
DA:1518,1437
DA:1519,6
DA:1520,1431
DA:1521,1431
DA:1522,1437
DA:1524,9
DA:1525,9
DA:1526,9
DA:1527,9
DA:1528,9
DA:1529,5
DA:1532,4
DA:1535,4
DA:1536,1
DA:1537,1
DA:1538,1
DA:1539,1
DA:1540,1
DA:1541,1
DA:1542,1
DA:1543,3
DA:1545,3
DA:1546,0
DA:1547,3
DA:1549,3
DA:1550,3
DA:1551,3
DA:1552,3
DA:1553,3
DA:1554,3
DA:1555,3
DA:1556,9
DA:1611,1562
DA:1612,1562
DA:1613,1562
DA:1614,1562
DA:1615,1562
DA:1618,3
DA:1619,3
DA:1621,3
DA:1622,2
DA:1623,2
DA:1624,0
DA:1625,1559
DA:1627,1559
DA:1629,3
DA:1630,3
DA:1633,3
DA:1634,2
DA:1635,2
DA:1636,0
DA:1637,1556
DA:1639,1556
DA:1640,7
DA:1641,1549
DA:1642,1549
DA:1643,4
DA:1644,1545
DA:1645,1545
DA:1646,1
DA:1647,1544
DA:1648,1544
DA:1649,56
DA:1650,1488
DA:1651,1488
DA:1652,1
DA:1653,1487
DA:1654,1487
DA:1655,2
DA:1656,1485
DA:1657,1485
DA:1658,41
DA:1659,1444
DA:1660,1444
DA:1661,8
DA:1662,1436
DA:1664,1436
DA:1665,2
DA:1666,1434
DA:1667,1434
DA:1668,1426
DA:1669,8
DA:1670,8
DA:1671,4
DA:1672,4
DA:1675,4
DA:1676,4
DA:1677,4
DA:1678,4
DA:1679,4
DA:1680,4
DA:1681,4
DA:1682,1562
DA:1689,1
DA:1690,1
DA:1691,1
DA:1692,1
DA:1693,1
DA:1694,1
DA:1695,1
DA:1696,1
DA:1697,1
DA:1698,1
DA:1699,1
DA:1700,1
DA:1701,1
DA:1702,1
DA:1703,1
DA:1704,1
DA:1705,1
DA:1706,1
DA:1707,1
DA:1710,1
DA:1711,1
DA:1712,1
DA:1713,1
DA:1714,1
DA:1715,1
DA:1716,1
DA:1717,1
DA:1718,1
DA:1719,1
DA:1720,1
DA:1721,1
DA:1722,1
DA:1723,1
DA:1724,1
DA:1725,1
DA:1727,1
DA:1728,1
DA:1729,1
DA:1730,1
DA:1733,1
DA:1734,1
DA:1735,1
DA:1736,1
DA:1737,1
DA:1738,1
DA:1739,1
DA:1740,1
DA:1741,1
DA:1742,1
DA:1743,1
DA:1744,1
DA:1745,1
DA:1746,1
DA:1747,1
DA:1748,1
DA:1749,1
DA:1750,1
DA:1751,1
DA:1754,1
DA:1755,1
DA:1756,1
DA:1757,1
DA:1758,1
DA:1759,1
DA:1760,1
DA:1761,1
DA:1762,1
DA:1763,1
DA:1764,1
DA:1765,1
DA:1766,1
DA:1767,1
DA:1768,1
DA:1769,1
DA:1770,1
DA:1771,1
DA:1772,1
DA:1773,1
DA:1776,1
DA:1777,1
DA:1778,1
DA:1779,1
DA:1780,1
DA:1781,1
DA:1782,1
DA:1783,1
DA:1784,1
DA:1785,1
DA:1786,1
DA:1787,1
DA:1788,1
DA:1789,1
DA:1790,1
DA:1791,1
DA:1792,1
DA:1793,1
DA:1794,1
DA:1797,1
DA:1798,1
DA:1799,1
DA:1800,1
DA:1801,1
DA:1802,1
DA:1803,1
DA:1804,1
DA:1805,1
DA:1806,1
DA:1807,1
DA:1808,1
DA:1809,1
DA:1810,1
DA:1811,1
DA:1812,1
DA:1813,1
DA:1814,1
DA:1815,1
DA:1816,1
DA:1819,1
DA:1820,1
DA:1821,1
DA:1822,1
DA:1823,1
DA:1824,1
DA:1825,1
DA:1826,1
DA:1827,1
DA:1828,1
DA:1831,1
DA:1832,1
DA:1833,1
DA:1834,1
DA:1835,1
DA:1836,1
DA:1837,1
DA:1838,1
DA:1839,1
DA:1840,1
DA:1841,1
DA:1842,1
DA:1843,1
DA:1844,1
DA:1845,1
DA:1846,1
DA:1847,1
DA:1848,1
DA:1849,1
DA:1852,1
DA:1853,1
DA:1854,1
DA:1855,1
DA:1856,1
DA:1857,1
DA:1858,1
DA:1859,1
DA:1860,1
DA:1861,1
DA:1862,1
DA:1863,1
DA:1864,1
DA:1865,1
DA:1866,1
DA:1867,1
DA:1868,1
DA:1869,1
DA:1870,1
DA:1871,1
DA:1874,1
DA:1875,1
DA:1876,1
DA:1877,1
DA:1878,1
DA:1879,1
DA:1880,1
DA:1881,1
DA:1882,1
DA:1883,1
DA:1884,1
DA:1885,1
DA:1886,1
DA:1887,1
DA:1888,1
DA:1889,1
DA:1890,1
DA:1891,1
DA:1892,1
DA:1893,1
DA:1894,1
DA:1897,1
DA:1898,1
DA:1899,1
DA:1900,1
DA:1901,1
DA:1902,1
DA:1903,1
DA:1904,1
DA:1905,1
DA:1906,1
DA:1909,1
DA:1910,1
DA:1911,1
DA:1912,1
DA:1913,1
DA:1914,1
DA:1915,1
DA:1916,1
DA:1917,1
DA:1918,1
DA:1919,1
DA:1920,1
DA:1921,1
DA:1922,1
DA:1923,1
DA:1924,1
DA:1925,1
DA:1926,1
DA:1927,1
DA:1930,1
DA:1931,1
DA:1932,1
DA:1933,1
DA:1934,1
DA:1935,1
DA:1936,1
DA:1937,1
DA:1938,1
DA:1939,1
DA:1940,1
DA:1941,1
DA:1942,1
DA:1943,1
DA:1944,1
DA:1945,1
DA:1946,1
DA:1947,1
DA:1948,1
DA:1949,1
DA:1950,1
DA:1953,1
DA:1954,1
DA:1955,1
DA:1956,1
DA:1957,1
DA:1958,1
DA:1959,1
DA:1960,1
DA:1961,1
DA:1962,1
DA:1963,1
DA:1964,1
DA:1965,1
DA:1966,1
DA:1967,1
DA:1968,1
DA:1969,1
DA:1970,1
DA:1971,1
DA:1972,1
DA:1973,1
DA:1974,1
DA:1975,1
DA:1976,1
DA:1977,1
DA:1978,1
DA:1979,1
DA:1980,1
DA:1981,1
DA:1984,1
DA:1985,1
DA:1986,1
DA:1987,1
DA:1988,1
DA:1989,1
DA:1990,1
DA:1991,1
DA:1992,1
DA:1993,1
DA:1994,1
DA:1995,1
DA:1996,1
DA:1997,1
DA:1998,1
DA:1999,1
DA:2000,1
DA:2001,1
DA:2002,1
DA:2003,1
DA:2004,1
DA:2005,1
DA:2006,1
DA:2007,1
DA:2008,1
DA:2009,1
DA:2010,1
DA:2011,1
DA:2012,1
DA:2013,1
DA:2016,1
DA:2017,1
DA:2018,1
DA:2019,1
DA:2020,1
DA:2021,1
DA:2022,1
DA:2023,1
DA:2024,1
DA:2025,1
DA:2028,1
DA:2029,1
DA:2030,1
DA:2031,1
DA:2032,1
DA:2033,1
DA:2034,1
DA:2035,1
DA:2036,1
DA:2037,1
DA:2040,1
DA:2041,1
DA:2042,1
DA:2043,1
DA:2044,1
DA:2045,1
DA:2046,1
DA:2047,1
DA:2048,1
DA:2049,1
DA:2050,1
DA:2051,1
DA:2052,1
DA:2053,1
DA:2054,1
DA:2055,1
DA:2056,1
DA:2057,1
DA:2058,1
DA:2061,1
DA:2062,1
DA:2063,1
DA:2064,1
DA:2065,1
DA:2066,1
DA:2067,1
DA:2068,1
DA:2069,1
DA:2072,1
DA:2073,1
DA:2074,1
DA:2075,1
DA:2076,1
DA:2077,1
DA:2078,1
DA:2079,1
DA:2080,1
DA:2083,1
DA:2084,1
DA:2085,1
DA:2086,1
DA:2087,1
DA:2088,1
DA:2089,1
DA:2090,1
DA:2091,1
DA:2092,1
DA:2095,1
DA:2096,1
DA:2097,1
DA:2098,1
DA:2099,1
DA:2100,1
DA:2101,1
DA:2102,1
DA:2103,1
DA:2104,1
DA:2107,1
DA:2108,1
DA:2109,1
DA:2110,1
DA:2111,1
DA:2112,1
DA:2113,1
DA:2114,1
DA:2115,1
DA:2118,1
DA:2119,1
DA:2120,1
DA:2121,1
DA:2122,1
DA:2123,1
DA:2124,1
DA:2125,1
DA:2126,1
DA:2127,1
DA:2128,1
DA:2129,1
DA:2130,1
DA:2131,1
DA:2132,1
DA:2133,1
DA:2134,1
DA:2135,1
DA:2138,1
DA:2139,1
DA:2140,1
DA:2141,1
DA:2142,1
DA:2143,1
DA:2144,1
DA:2145,1
DA:2146,1
DA:2147,1
DA:2148,1
DA:2149,1
DA:2150,1
DA:2151,1
DA:2152,1
DA:2153,1
DA:2154,1
DA:2155,1
DA:2156,1
DA:2157,1
DA:2158,1
DA:2159,1
DA:2160,1
DA:2161,1
DA:2162,1
DA:2163,1
DA:2166,1
DA:2167,1
DA:2168,1
DA:2169,1
DA:2170,1
DA:2171,1
DA:2172,1
DA:2173,1
DA:2174,1
DA:2175,1
DA:2176,1
DA:2177,1
DA:2178,1
DA:2179,1
DA:2180,1
DA:2181,1
DA:2182,1
DA:2183,1
DA:2184,1
DA:2185,1
DA:2186,1
DA:2187,1
DA:2188,1
DA:2189,1
DA:2190,1
DA:2191,1
DA:2192,1
DA:2193,1
DA:2196,1
DA:2197,1
DA:2198,1
DA:2199,1
DA:2200,1
DA:2201,1
DA:2202,1
DA:2203,1
DA:2204,1
DA:2207,1
DA:2208,1
DA:2209,1
DA:2210,1
DA:2211,1
DA:2212,1
DA:2213,1
DA:2214,1
DA:2215,1
DA:2216,1
DA:2219,1
DA:2220,1
DA:2221,1
DA:2222,1
DA:2223,1
DA:2224,1
DA:2225,1
DA:2226,1
DA:2227,1
DA:2228,1
DA:2231,1
DA:2232,1
DA:2233,1
DA:2234,1
DA:2235,1
DA:2236,1
DA:2237,1
DA:2238,1
DA:2239,1
DA:2242,1
DA:2243,1
DA:2244,1
DA:2245,1
DA:2246,1
DA:2247,1
DA:2248,1
DA:2249,1
DA:2250,1
DA:2251,1
DA:2254,1
DA:2255,1
DA:2256,1
DA:2257,1
DA:2258,1
DA:2259,1
DA:2260,1
DA:2261,1
DA:2262,1
DA:2263,1
DA:2266,1
DA:2267,1
DA:2268,1
DA:2269,1
DA:2270,1
DA:2271,1
DA:2272,1
DA:2273,1
DA:2274,1
DA:2275,1
DA:2278,1
DA:2279,1
DA:2280,1
DA:2281,1
DA:2282,1
DA:2283,1
DA:2284,1
DA:2285,1
DA:2286,1
DA:2287,1
DA:2290,1
DA:2291,1
DA:2292,1
DA:2293,1
DA:2294,1
DA:2295,1
DA:2296,1
DA:2297,1
DA:2298,1
DA:2299,1
DA:2302,1
DA:2303,1
DA:2304,1
DA:2305,1
DA:2306,1
DA:2307,1
DA:2308,1
DA:2309,1
DA:2310,1
DA:2311,1
DA:2314,1
DA:2315,1
DA:2316,1
DA:2317,1
DA:2318,1
DA:2319,1
DA:2320,1
DA:2321,1
DA:2322,1
DA:2323,1
DA:2326,1
DA:2327,1
DA:2328,1
DA:2329,1
DA:2330,1
DA:2331,1
DA:2332,1
DA:2333,1
DA:2334,1
DA:2335,1
DA:2338,1
DA:2339,1
DA:2340,1
DA:2341,1
DA:2342,1
DA:2343,1
DA:2344,1
DA:2345,1
DA:2346,1
DA:2347,1
DA:2348,1
DA:2349,1
DA:2350,1
DA:2351,1
DA:2352,1
DA:2353,1
DA:2354,1
DA:2355,1
DA:2356,1
DA:2357,1
DA:2358,1
DA:2359,1
DA:2360,1
DA:2361,1
DA:2362,1
DA:2363,1
DA:2364,1
DA:2365,1
DA:2366,1
DA:2367,1
DA:2368,1
DA:2369,1
DA:2370,1
DA:2371,1
DA:2372,1
DA:2373,1
DA:2374,1
DA:2377,1
DA:2378,1
DA:2379,1
DA:2380,1
DA:2381,1
DA:2382,1
DA:2383,1
DA:2384,1
DA:2385,1
DA:2386,1
DA:2387,1
DA:2388,1
DA:2389,1
DA:2390,1
DA:2391,1
DA:2392,1
DA:2393,1
DA:2394,1
DA:2395,1
DA:2396,1
DA:2397,1
DA:2398,1
DA:2399,1
DA:2400,1
DA:2401,1
DA:2402,1
DA:2403,1
DA:2404,1
DA:2405,1
DA:2406,1
DA:2407,1
DA:2408,1
DA:2409,1
DA:2410,1
DA:2411,1
DA:2412,1
DA:2413,1
DA:2414,1
DA:2417,1
DA:2418,1
DA:2419,1
DA:2420,1
DA:2421,1
DA:2422,1
DA:2423,1
DA:2424,1
DA:2425,1
DA:2426,1
DA:2427,1
DA:2428,1
DA:2429,1
DA:2430,1
DA:2431,1
DA:2432,1
DA:2433,1
DA:2434,1
DA:2435,1
DA:2436,1
DA:2437,1
DA:2438,1
DA:2439,1
DA:2440,1
DA:2441,1
DA:2442,1
DA:2443,1
DA:2444,1
DA:2445,1
DA:2446,1
DA:2449,1
DA:2450,1
DA:2451,1
DA:2452,1
DA:2453,1
DA:2454,1
DA:2455,1
DA:2456,1
DA:2457,1
DA:2458,1
DA:2459,1
DA:2460,1
DA:2461,1
DA:2462,1
DA:2463,1
DA:2464,1
DA:2465,1
DA:2466,1
DA:2467,1
DA:2468,1
DA:2469,1
DA:2470,1
DA:2473,1
DA:2476,1
DA:2477,1
DA:2479,1
DA:2480,1
DA:2481,1
DA:2482,1
DA:2483,1
DA:2484,1
DA:2485,1
DA:2486,1
DA:2487,1
DA:2488,1
DA:2489,1
DA:2490,1
DA:2491,1
DA:2492,1
DA:2493,1
DA:2494,1
DA:2495,1
DA:2496,1
DA:2497,1
DA:2498,1
DA:2499,1
DA:2501,1
DA:2502,1
DA:2503,1
DA:2505,1
DA:2506,1
DA:2509,1
DA:2510,1
DA:2511,1
DA:2514,1
DA:2518,1
DA:2520,1
DA:2521,1
DA:2522,1
DA:2523,1
DA:2524,1
DA:2525,1
DA:2526,1
DA:2527,1
DA:2528,1
DA:2529,1
DA:2530,1
DA:2531,1
DA:2532,1
DA:2533,1
DA:2534,1
DA:2535,1
DA:2536,1
DA:2537,1
DA:2538,1
DA:2539,1
DA:2540,1
DA:2542,1
DA:2543,1
DA:2544,1
DA:2545,1
DA:2546,1
DA:2547,1
DA:2550,1
DA:2554,1
DA:2555,1
DA:2556,1
DA:2557,1
DA:2558,1
DA:2559,1
DA:2560,1
DA:2561,1
DA:2562,1
DA:2563,1
DA:2564,1
DA:2565,1
DA:2566,1
DA:2567,1
DA:2568,1
DA:2569,1
DA:2570,1
DA:2571,1
DA:2572,1
DA:2573,1
DA:2574,1
DA:2575,1
DA:2578,1
DA:2580,1
DA:2581,1
DA:2582,1
DA:2583,1
DA:2584,1
DA:2585,1
DA:2586,1
DA:2587,1
DA:2588,1
DA:2589,1
DA:2590,1
DA:2591,1
DA:2592,1
DA:2593,1
DA:2594,1
DA:2595,1
DA:2596,1
DA:2597,1
DA:2598,1
DA:2599,1
DA:2600,1
DA:2603,1
DA:2604,1
DA:2605,1
DA:2606,1
DA:2607,1
DA:2608,1
DA:2609,1
DA:2610,1
DA:2611,1
DA:2612,1
DA:2613,1
DA:2614,1
DA:2615,1
DA:2616,1
DA:2618,1
DA:2621,1
DA:2622,1
DA:2623,1
DA:2624,1
DA:2625,1
DA:2626,1
DA:2627,1
DA:2628,1
DA:2629,1
DA:2630,1
DA:2631,1
DA:2632,1
DA:2633,1
DA:2634,1
DA:2635,1
DA:2636,1
DA:2637,1
DA:2638,1
DA:2639,1
DA:2640,1
DA:2641,1
DA:2642,1
DA:2645,1
DA:2646,1
DA:2647,1
DA:2648,1
DA:2649,1
DA:2650,1
DA:2651,1
DA:2653,0
DA:2656,0
DA:2659,0
DA:2661,1
DA:2664,1
DA:2665,1
DA:2666,1
DA:2667,1
DA:2668,1
DA:2669,1
DA:2670,1
DA:2671,1
DA:2672,1
DA:2673,1
DA:2674,1
DA:2675,1
DA:2676,1
DA:2677,1
DA:2678,1
DA:2679,1
DA:2680,1
DA:2681,1
DA:2682,1
DA:2683,1
DA:2684,1
DA:2685,1
DA:2686,1
DA:2687,1
DA:2688,1
DA:2689,1
DA:2690,1
DA:2691,1
DA:2692,1
DA:2693,1
DA:2694,1
DA:2695,1
DA:2696,1
DA:2697,1
DA:2699,0
DA:2702,0
DA:2704,1
DA:2707,1
DA:2708,1
DA:2709,1
DA:2710,1
DA:2711,1
DA:2712,1
DA:2713,1
DA:2714,1
DA:2715,1
DA:2716,1
DA:2717,1
DA:2718,1
DA:2719,1
DA:2720,1
DA:2721,1
DA:2722,1
DA:2723,1
DA:2724,1
DA:2725,1
DA:2726,1
DA:2727,1
DA:2728,1
DA:2729,1
DA:2730,1
DA:2731,1
DA:2732,1
DA:2733,1
DA:2734,1
DA:2735,1
DA:2736,1
DA:2737,1
DA:2738,1
DA:2739,1
DA:2740,1
DA:2741,1
DA:2742,1
DA:2743,1
DA:2744,1
DA:2745,1
DA:2746,1
DA:2747,1
DA:2748,1
DA:2749,1
DA:2750,1
DA:2752,0
DA:2755,0
DA:2758,0
DA:2760,1
DA:2763,1
DA:2764,1
DA:2765,1
DA:2766,1
DA:2767,1
DA:2768,1
DA:2769,1
DA:2770,1
DA:2771,1
DA:2772,1
DA:2773,1
DA:2774,1
DA:2775,1
DA:2776,1
DA:2777,1
DA:2778,1
DA:2779,1
DA:2780,1
DA:2781,1
DA:2782,1
DA:2783,1
DA:2784,1
DA:2785,1
DA:2786,1
DA:2787,1
DA:2788,1
DA:2789,1
DA:2790,1
DA:2791,1
DA:2792,1
DA:2793,1
DA:2794,1
DA:2795,1
DA:2796,1
DA:2797,1
DA:2798,1
DA:2800,0
DA:2803,0
DA:2806,0
DA:2808,1
DA:2811,1
DA:2812,1
DA:2815,1
DA:2816,1
DA:2817,1
DA:2818,1
DA:2821,1
DA:2822,1
DA:2824,1
DA:2825,1
DA:2827,0
DA:2829,1
DA:2832,1
DA:2833,1
DA:2835,1
DA:2836,1
DA:2837,1
DA:2838,1
DA:2839,1
DA:2840,1
DA:2841,1
DA:2842,1
DA:2844,1
DA:2845,1
DA:2846,1
DA:2847,1
DA:2848,1
DA:2850,0
DA:2853,0
DA:2855,1
DA:2858,1
DA:2859,1
DA:2861,1
DA:2862,1
DA:2863,1
DA:2864,1
DA:2865,1
DA:2866,1
DA:2867,1
DA:2868,1
DA:2870,1
DA:2871,1
DA:2873,1
DA:2874,1
DA:2875,1
DA:2877,0
DA:2880,0
DA:2882,1
BRF:0
BRH:0
LF:2186
LH:2117
end_of_record
SF:/app/src/semantic/declarations.rs
FN:225,_RNCNvNtNtCs4a0SCptkpqe_6glossa8semantic12declarations18analyze_trait_impl0B7_
FN:249,_RNCNvNtNtCs4a0SCptkpqe_6glossa8semantic12declarations18analyze_trait_impls0_0B7_
FN:231,_RNCNvNtNtCs4a0SCptkpqe_6glossa8semantic12declarations18analyze_trait_impls_0B7_
FN:546,_RNCNvNtNtCs4a0SCptkpqe_6glossa8semantic12declarations24analyze_test_declaration0B7_
FN:147,_RNCNvNtNtCs4a0SCptkpqe_6glossa8semantic12declarations24analyze_trait_definition0B7_
FN:373,_RNCNvNtNtCs4a0SCptkpqe_6glossa8semantic12declarations25parse_function_definition0B7_
FN:442,_RNCNvNtNtCs4a0SCptkpqe_6glossa8semantic12declarations31extract_function_name_from_expr0B7_
FN:303,_RNvNtNtCs4a0SCptkpqe_6glossa8semantic12declarations17resolve_type_name
FN:213,_RNvNtNtCs4a0SCptkpqe_6glossa8semantic12declarations18analyze_trait_impl
FN:89,_RNvNtNtCs4a0SCptkpqe_6glossa8semantic12declarations20check_recursive_type
FN:35,_RNvNtNtCs4a0SCptkpqe_6glossa8semantic12declarations23analyze_type_definition
FN:508,_RNvNtNtCs4a0SCptkpqe_6glossa8semantic12declarations23collect_words_from_expr
FN:539,_RNvNtNtCs4a0SCptkpqe_6glossa8semantic12declarations24analyze_test_declaration
FN:114,_RNvNtNtCs4a0SCptkpqe_6glossa8semantic12declarations24analyze_trait_definition
FN:343,_RNvNtNtCs4a0SCptkpqe_6glossa8semantic12declarations25parse_function_definition
FN:527,_RNvNtNtCs4a0SCptkpqe_6glossa8semantic12declarations27infer_return_type_from_body
FN:514,_RNvNtNtCs4a0SCptkpqe_6glossa8semantic12declarations28collect_words_from_expr_into
FN:447,_RNvNtNtCs4a0SCptkpqe_6glossa8semantic12declarations28extract_parameters_from_expr
FN:414,_RNvNtNtCs4a0SCptkpqe_6glossa8semantic12declarations31extract_function_name_from_expr
FN:225,_RNCNvNtNtCs14PW5HJOtOs_6glossa8semantic12declarations18analyze_trait_impl0B7_
FN:249,_RNCNvNtNtCs14PW5HJOtOs_6glossa8semantic12declarations18analyze_trait_impls0_0B7_
FN:231,_RNCNvNtNtCs14PW5HJOtOs_6glossa8semantic12declarations18analyze_trait_impls_0B7_
FN:546,_RNCNvNtNtCs14PW5HJOtOs_6glossa8semantic12declarations24analyze_test_declaration0B7_
FN:147,_RNCNvNtNtCs14PW5HJOtOs_6glossa8semantic12declarations24analyze_trait_definition0B7_
FN:373,_RNCNvNtNtCs14PW5HJOtOs_6glossa8semantic12declarations25parse_function_definition0B7_
FN:442,_RNCNvNtNtCs14PW5HJOtOs_6glossa8semantic12declarations31extract_function_name_from_expr0B7_
FN:567,_RNvNtNtNtCs14PW5HJOtOs_6glossa8semantic12declarations5testss_25test_check_recursive_type
FN:303,_RNvNtNtCs14PW5HJOtOs_6glossa8semantic12declarations17resolve_type_name
FN:213,_RNvNtNtCs14PW5HJOtOs_6glossa8semantic12declarations18analyze_trait_impl
FN:89,_RNvNtNtCs14PW5HJOtOs_6glossa8semantic12declarations20check_recursive_type
FN:35,_RNvNtNtCs14PW5HJOtOs_6glossa8semantic12declarations23analyze_type_definition
FN:508,_RNvNtNtCs14PW5HJOtOs_6glossa8semantic12declarations23collect_words_from_expr
FN:539,_RNvNtNtCs14PW5HJOtOs_6glossa8semantic12declarations24analyze_test_declaration
FN:114,_RNvNtNtCs14PW5HJOtOs_6glossa8semantic12declarations24analyze_trait_definition
FN:343,_RNvNtNtCs14PW5HJOtOs_6glossa8semantic12declarations25parse_function_definition
FN:527,_RNvNtNtCs14PW5HJOtOs_6glossa8semantic12declarations27infer_return_type_from_body
FN:514,_RNvNtNtCs14PW5HJOtOs_6glossa8semantic12declarations28collect_words_from_expr_into
FN:447,_RNvNtNtCs14PW5HJOtOs_6glossa8semantic12declarations28extract_parameters_from_expr
FN:414,_RNvNtNtCs14PW5HJOtOs_6glossa8semantic12declarations31extract_function_name_from_expr
FNDA:1,_RNCNvNtNtCs4a0SCptkpqe_6glossa8semantic12declarations18analyze_trait_impl0B7_
FNDA:18,_RNCNvNtNtCs4a0SCptkpqe_6glossa8semantic12declarations18analyze_trait_impls0_0B7_
FNDA:1,_RNCNvNtNtCs4a0SCptkpqe_6glossa8semantic12declarations18analyze_trait_impls_0B7_
FNDA:9,_RNCNvNtNtCs4a0SCptkpqe_6glossa8semantic12declarations24analyze_test_declaration0B7_
FNDA:6,_RNCNvNtNtCs4a0SCptkpqe_6glossa8semantic12declarations24analyze_trait_definition0B7_
FNDA:18,_RNCNvNtNtCs4a0SCptkpqe_6glossa8semantic12declarations25parse_function_definition0B7_
FNDA:0,_RNCNvNtNtCs4a0SCptkpqe_6glossa8semantic12declarations31extract_function_name_from_expr0B7_
FNDA:42,_RNvNtNtCs4a0SCptkpqe_6glossa8semantic12declarations17resolve_type_name
FNDA:20,_RNvNtNtCs4a0SCptkpqe_6glossa8semantic12declarations18analyze_trait_impl
FNDA:37,_RNvNtNtCs4a0SCptkpqe_6glossa8semantic12declarations20check_recursive_type
FNDA:37,_RNvNtNtCs4a0SCptkpqe_6glossa8semantic12declarations23analyze_type_definition
FNDA:36,_RNvNtNtCs4a0SCptkpqe_6glossa8semantic12declarations23collect_words_from_expr
FNDA:9,_RNvNtNtCs4a0SCptkpqe_6glossa8semantic12declarations24analyze_test_declaration
FNDA:27,_RNvNtNtCs4a0SCptkpqe_6glossa8semantic12declarations24analyze_trait_definition
FNDA:18,_RNvNtNtCs4a0SCptkpqe_6glossa8semantic12declarations25parse_function_definition
FNDA:42,_RNvNtNtCs4a0SCptkpqe_6glossa8semantic12declarations27infer_return_type_from_body
FNDA:164,_RNvNtNtCs4a0SCptkpqe_6glossa8semantic12declarations28collect_words_from_expr_into
FNDA:18,_RNvNtNtCs4a0SCptkpqe_6glossa8semantic12declarations28extract_parameters_from_expr
FNDA:18,_RNvNtNtCs4a0SCptkpqe_6glossa8semantic12declarations31extract_function_name_from_expr
FNDA:0,_RNCNvNtNtCs14PW5HJOtOs_6glossa8semantic12declarations18analyze_trait_impl0B7_
FNDA:0,_RNCNvNtNtCs14PW5HJOtOs_6glossa8semantic12declarations18analyze_trait_impls0_0B7_
FNDA:0,_RNCNvNtNtCs14PW5HJOtOs_6glossa8semantic12declarations18analyze_trait_impls_0B7_
FNDA:0,_RNCNvNtNtCs14PW5HJOtOs_6glossa8semantic12declarations24analyze_test_declaration0B7_
FNDA:0,_RNCNvNtNtCs14PW5HJOtOs_6glossa8semantic12declarations24analyze_trait_definition0B7_
FNDA:0,_RNCNvNtNtCs14PW5HJOtOs_6glossa8semantic12declarations25parse_function_definition0B7_
FNDA:0,_RNCNvNtNtCs14PW5HJOtOs_6glossa8semantic12declarations31extract_function_name_from_expr0B7_
FNDA:1,_RNvNtNtNtCs14PW5HJOtOs_6glossa8semantic12declarations5testss_25test_check_recursive_type
FNDA:0,_RNvNtNtCs14PW5HJOtOs_6glossa8semantic12declarations17resolve_type_name
FNDA:0,_RNvNtNtCs14PW5HJOtOs_6glossa8semantic12declarations18analyze_trait_impl
FNDA:17,_RNvNtNtCs14PW5HJOtOs_6glossa8semantic12declarations20check_recursive_type
FNDA:0,_RNvNtNtCs14PW5HJOtOs_6glossa8semantic12declarations23analyze_type_definition
FNDA:0,_RNvNtNtCs14PW5HJOtOs_6glossa8semantic12declarations23collect_words_from_expr
FNDA:0,_RNvNtNtCs14PW5HJOtOs_6glossa8semantic12declarations24analyze_test_declaration
FNDA:0,_RNvNtNtCs14PW5HJOtOs_6glossa8semantic12declarations24analyze_trait_definition
FNDA:0,_RNvNtNtCs14PW5HJOtOs_6glossa8semantic12declarations25parse_function_definition
FNDA:0,_RNvNtNtCs14PW5HJOtOs_6glossa8semantic12declarations27infer_return_type_from_body
FNDA:0,_RNvNtNtCs14PW5HJOtOs_6glossa8semantic12declarations28collect_words_from_expr_into
FNDA:0,_RNvNtNtCs14PW5HJOtOs_6glossa8semantic12declarations28extract_parameters_from_expr
FNDA:0,_RNvNtNtCs14PW5HJOtOs_6glossa8semantic12declarations31extract_function_name_from_expr
FNF:20
FNH:19
DA:35,37
DA:36,37
DA:37,37
DA:38,37
DA:40,37
DA:43,37
DA:44,37
DA:45,37
DA:46,37
DA:47,37
DA:48,37
DA:49,37
DA:53,37
DA:54,39
DA:55,39
DA:56,39
DA:59,39
DA:62,37
DA:63,1
DA:64,1
DA:65,1
DA:66,1
DA:67,36
DA:69,36
DA:73,34
DA:74,34
DA:75,34
DA:76,34
DA:77,34
DA:80,34
DA:82,34
DA:83,34
DA:84,34
DA:85,34
DA:86,37
DA:89,54
DA:90,54
DA:91,10
DA:92,2
DA:93,3
DA:94,3
DA:97,39
DA:99,54
DA:114,27
DA:115,27
DA:116,27
DA:117,27
DA:119,27
DA:122,27
DA:123,1
DA:124,1
DA:125,1
DA:126,1
DA:127,26
DA:130,26
DA:132,30
DA:133,30
DA:136,30
DA:137,34
DA:138,34
DA:139,34
DA:140,34
DA:141,34
DA:142,34
DA:144,30
DA:146,6
DA:147,6
DA:148,6
DA:150,6
DA:151,6
DA:152,6
DA:154,6
DA:155,6
DA:157,6
DA:158,6
DA:159,6
DA:161,0
DA:164,6
DA:165,6
DA:167,0
DA:170,6
DA:171,6
DA:172,6
DA:173,6
DA:174,6
DA:175,6
DA:176,24
DA:177,24
DA:178,24
DA:179,24
DA:180,24
DA:181,24
DA:182,24
DA:183,24
DA:187,26
DA:188,26
DA:189,26
DA:190,26
DA:193,26
DA:195,26
DA:196,26
DA:197,26
DA:198,26
DA:199,27
DA:213,20
DA:214,20
DA:215,20
DA:216,20
DA:218,20
DA:219,20
DA:222,20
DA:223,20
DA:224,20
DA:225,20
DA:228,19
DA:229,19
DA:230,19
DA:231,19
DA:234,18
DA:235,18
DA:237,18
DA:238,18
DA:241,18
DA:242,21
DA:243,21
DA:244,21
DA:245,21
DA:246,21
DA:249,18
DA:250,18
DA:251,18
DA:254,21
DA:255,21
DA:256,21
DA:259,18
DA:260,18
DA:262,18
DA:263,18
DA:265,18
DA:267,18
DA:268,18
DA:269,18
DA:270,18
DA:271,18
DA:272,18
DA:273,18
DA:277,21
DA:278,21
DA:279,1
DA:280,1
DA:281,1
DA:282,1
DA:283,20
DA:287,17
DA:288,17
DA:289,17
DA:290,17
DA:293,17
DA:295,17
DA:296,17
DA:297,17
DA:298,17
DA:299,17
DA:300,20
DA:303,42
DA:304,42
DA:306,42
DA:308,5
DA:310,3
DA:315,3
DA:316,1
DA:318,2
DA:319,2
DA:320,2
DA:321,2
DA:325,42
DA:343,18
DA:344,18
DA:345,18
DA:346,18
DA:351,18
DA:352,0
DA:353,18
DA:355,18
DA:358,18
DA:359,0
DA:360,0
DA:361,0
DA:362,18
DA:365,18
DA:366,18
DA:369,18
DA:373,18
DA:374,18
DA:375,18
DA:376,12
DA:377,12
DA:378,12
DA:381,18
DA:384,19
DA:386,19
DA:387,19
DA:388,19
DA:390,19
DA:391,19
DA:392,19
DA:393,19
DA:394,19
DA:397,19
DA:399,18
DA:400,18
DA:403,18
DA:405,18
DA:406,18
DA:407,18
DA:408,18
DA:409,18
DA:410,18
DA:411,18
DA:414,18
DA:416,18
DA:418,18
DA:420,36
DA:421,36
DA:424,36
DA:425,18
DA:426,18
DA:428,0
DA:430,18
DA:433,18
DA:434,18
DA:435,18
DA:436,18
DA:437,18
DA:438,18
DA:439,18
DA:442,0
DA:443,18
DA:447,18
DA:448,18
DA:449,18
DA:450,18
DA:451,18
DA:454,18
DA:457,18
DA:458,36
DA:459,36
DA:460,36
DA:461,18
DA:462,18
DA:463,18
DA:466,18
DA:467,18
DA:469,31
DA:470,13
DA:471,13
DA:474,13
DA:475,12
DA:478,12
DA:479,12
DA:480,12
DA:483,12
DA:484,12
DA:485,5
DA:486,5
DA:487,5
DA:489,3
DA:491,3
DA:492,3
DA:493,2
DA:494,7
DA:496,12
DA:497,12
DA:498,0
DA:499,1
DA:501,13
DA:504,18
DA:505,18
DA:508,36
DA:509,36
DA:510,36
DA:511,36
DA:512,36
DA:514,164
DA:515,164
DA:516,128
DA:517,36
DA:518,128
DA:519,128
DA:520,128
DA:522,0
DA:524,164
DA:527,42
DA:528,43
DA:529,43
DA:530,25
DA:532,25
DA:533,18
DA:535,17
DA:536,42
DA:539,9
DA:540,9
DA:541,9
DA:542,9
DA:543,9
DA:546,9
DA:548,9
DA:550,18
DA:551,18
DA:553,8
DA:554,9
DA:556,8
DA:557,8
DA:558,8
DA:559,8
DA:560,9
DA:567,1
DA:568,1
DA:571,1
DA:572,1
DA:573,1
DA:574,1
DA:575,1
DA:576,1
DA:579,1
DA:580,1
DA:581,1
DA:582,1
DA:583,1
DA:584,1
DA:587,1
DA:588,1
DA:591,1
DA:592,1
DA:595,1
DA:596,1
DA:599,1
DA:600,1
DA:603,1
DA:604,1
DA:607,1
DA:608,1
DA:611,1
DA:612,1
DA:615,1
DA:616,1
DA:617,1
BRF:0
BRH:0
LF:358
LH:344
end_of_record
SF:/app/src/semantic/expressions.rs
FN:156,_RNCNvNtNtCs4a0SCptkpqe_6glossa8semantic11expressions13analyze_array0B7_
FN:230,_RNCNvNtNtCs4a0SCptkpqe_6glossa8semantic11expressions14analyze_phrase0B7_
FN:449,_RNCNvNtNtCs4a0SCptkpqe_6glossa8semantic11expressions21contains_verb_in_expr0B7_
FN:100,_RNvNtNtCs4a0SCptkpqe_6glossa8semantic11expressions12analyze_word
FN:144,_RNvNtNtCs4a0SCptkpqe_6glossa8semantic11expressions13analyze_array
FN:286,_RNvNtNtCs4a0SCptkpqe_6glossa8semantic11expressions13analyze_binop
FN:253,_RNvNtNtCs4a0SCptkpqe_6glossa8semantic11expressions13analyze_block
FN:207,_RNvNtNtCs4a0SCptkpqe_6glossa8semantic11expressions14analyze_phrase
FN:762,_RNvNtNtCs4a0SCptkpqe_6glossa8semantic11expressions14feed_word_expr
FN:367,_RNvNtNtCs4a0SCptkpqe_6glossa8semantic11expressions14get_first_word
FN:126,_RNvNtNtCs4a0SCptkpqe_6glossa8semantic11expressions15analyze_literal
FN:315,_RNvNtNtCs4a0SCptkpqe_6glossa8semantic11expressions15analyze_unaryop
FN:650,_RNvNtNtCs4a0SCptkpqe_6glossa8semantic11expressions15literal_to_type
FN:745,_RNvNtNtCs4a0SCptkpqe_6glossa8semantic11expressions16infer_binop_type
FN:662,_RNvNtNtCs4a0SCptkpqe_6glossa8semantic11expressions17build_binary_expr
FN:473,_RNvNtNtCs4a0SCptkpqe_6glossa8semantic11expressions19feed_expr_recursive
FN:165,_RNvNtNtCs4a0SCptkpqe_6glossa8semantic11expressions20analyze_index_access
FN:53,_RNvNtNtCs4a0SCptkpqe_6glossa8semantic11expressions21analyze_argument_expr
FN:446,_RNvNtNtCs4a0SCptkpqe_6glossa8semantic11expressions21contains_verb_in_expr
FN:183,_RNvNtNtCs4a0SCptkpqe_6glossa8semantic11expressions23analyze_property_access
FN:632,_RNvNtNtCs4a0SCptkpqe_6glossa8semantic11expressions24literal_to_analyzed_expr
FN:584,_RNvNtNtCs4a0SCptkpqe_6glossa8semantic11expressions26check_cloning_depth_safety
FN:60,_RNvNtNtCs4a0SCptkpqe_6glossa8semantic11expressions31analyze_argument_expr_recursive
FN:412,_RNvNtNtCs4a0SCptkpqe_6glossa8semantic11expressions33contains_function_definition_verb
FN:465,_RNvNtNtCs4a0SCptkpqe_6glossa8semantic11expressions35feed_expr_to_assembler_with_context
FN:689,_RNvNtNtCs4a0SCptkpqe_6glossa8semantic11expressions39build_expressions_from_literals_and_ops
FN:1429,_RNvNtNtNtCs14PW5HJOtOs_6glossa8semantic11expressions16regression_testss_32test_dropped_operator_regression
FN:156,_RNCNvNtNtCs14PW5HJOtOs_6glossa8semantic11expressions13analyze_array0B7_
FN:230,_RNCNvNtNtCs14PW5HJOtOs_6glossa8semantic11expressions14analyze_phrase0B7_
FN:449,_RNCNvNtNtCs14PW5HJOtOs_6glossa8semantic11expressions21contains_verb_in_expr0B7_
FN:1394,_RNvNtNtNtCs14PW5HJOtOs_6glossa8semantic11expressions5testss_21test_dropped_operator
FN:1232,_RNvNtNtNtCs14PW5HJOtOs_6glossa8semantic11expressions5testss_29test_vso_ambiguity_resolution
FN:1313,_RNvNtNtNtCs14PW5HJOtOs_6glossa8semantic11expressions5testss_36test_phrase_errors_on_multiple_terms
FN:883,_RNvNtNtNtCs14PW5HJOtOs_6glossa8semantic11expressions5testss_40test_analyze_argument_expr_handles_array
FN:918,_RNvNtNtNtCs14PW5HJOtOs_6glossa8semantic11expressions5testss_40test_analyze_argument_expr_handles_binop
FN:1173,_RNvNtNtNtCs14PW5HJOtOs_6glossa8semantic11expressions5testss_40test_analyze_argument_expr_handles_block
FN:1377,_RNvNtNtNtCs14PW5HJOtOs_6glossa8semantic11expressions5testss_40test_recursion_limit_expression_analysis
FN:836,_RNvNtNtNtCs14PW5HJOtOs_6glossa8semantic11expressions5testss_41test_analyze_argument_expr_handles_unwrap
FN:1327,_RNvNtNtNtCs14PW5HJOtOs_6glossa8semantic11expressions5testss_41test_build_expressions_preserves_literals
FN:1278,_RNvNtNtNtCs14PW5HJOtOs_6glossa8semantic11expressions5testss_42test_backtracking_failure_propagates_error
FN:1348,_RNvNtNtNtCs14PW5HJOtOs_6glossa8semantic11expressions5testss_43test_dropped_operator_insufficient_literals
FN:854,_RNvNtNtNtCs14PW5HJOtOs_6glossa8semantic11expressions5testss_44test_build_expressions_insufficient_literals
FN:901,_RNvNtNtNtCs14PW5HJOtOs_6glossa8semantic11expressions5testss_47test_analyze_argument_expr_handles_index_access
FN:1194,_RNvNtNtNtCs14PW5HJOtOs_6glossa8semantic11expressions5testss_48test_analyze_argument_expr_errors_on_empty_block
FN:1129,_RNvNtNtNtCs14PW5HJOtOs_6glossa8semantic11expressions5testss_48test_analyze_argument_expr_handles_function_call
FN:1028,_RNvNtNtNtCs14PW5HJOtOs_6glossa8semantic11expressions5testss_49test_analyze_argument_expr_errors_on_empty_phrase
FN:997,_RNvNtNtNtCs14PW5HJOtOs_6glossa8semantic11expressions5testss_50test_analyze_argument_expr_handles_property_access
FN:1114,_RNvNtNtNtCs14PW5HJOtOs_6glossa8semantic11expressions5testss_51test_analyze_argument_expr_handles_phrase_recursion
FN:1037,_RNvNtNtNtCs14PW5HJOtOs_6glossa8semantic11expressions5testss_52test_analyze_argument_expr_propagates_error_in_array
FN:1068,_RNvNtNtNtCs14PW5HJOtOs_6glossa8semantic11expressions5testss_52test_analyze_argument_expr_propagates_error_in_binop
FN:1015,_RNvNtNtNtCs14PW5HJOtOs_6glossa8semantic11expressions5testss_53test_analyze_argument_expr_errors_on_invalid_property
FN:1090,_RNvNtNtNtCs14PW5HJOtOs_6glossa8semantic11expressions5testss_55test_analyze_argument_expr_propagates_error_in_unary_op
FN:1047,_RNvNtNtNtCs14PW5HJOtOs_6glossa8semantic11expressions5testss_59test_analyze_argument_expr_propagates_error_in_index_access
FN:1216,_RNvNtNtNtCs14PW5HJOtOs_6glossa8semantic11expressions5testss_60test_analyze_argument_expr_errors_on_block_with_empty_clause
FN:1202,_RNvNtNtNtCs14PW5HJOtOs_6glossa8semantic11expressions5testss_60test_analyze_argument_expr_errors_on_invalid_block_structure
FN:1158,_RNvNtNtNtCs14PW5HJOtOs_6glossa8semantic11expressions5testss_60test_analyze_argument_expr_propagates_error_in_function_args
FN:1102,_RNvNtNtNtCs14PW5HJOtOs_6glossa8semantic11expressions5testss_61test_analyze_argument_expr_propagates_error_in_property_owner
FN:100,_RNvNtNtCs14PW5HJOtOs_6glossa8semantic11expressions12analyze_word
FN:144,_RNvNtNtCs14PW5HJOtOs_6glossa8semantic11expressions13analyze_array
FN:286,_RNvNtNtCs14PW5HJOtOs_6glossa8semantic11expressions13analyze_binop
FN:253,_RNvNtNtCs14PW5HJOtOs_6glossa8semantic11expressions13analyze_block
FN:207,_RNvNtNtCs14PW5HJOtOs_6glossa8semantic11expressions14analyze_phrase
FN:762,_RNvNtNtCs14PW5HJOtOs_6glossa8semantic11expressions14feed_word_expr
FN:367,_RNvNtNtCs14PW5HJOtOs_6glossa8semantic11expressions14get_first_word
FN:126,_RNvNtNtCs14PW5HJOtOs_6glossa8semantic11expressions15analyze_literal
FN:315,_RNvNtNtCs14PW5HJOtOs_6glossa8semantic11expressions15analyze_unaryop
FN:650,_RNvNtNtCs14PW5HJOtOs_6glossa8semantic11expressions15literal_to_type
FN:745,_RNvNtNtCs14PW5HJOtOs_6glossa8semantic11expressions16infer_binop_type
FN:662,_RNvNtNtCs14PW5HJOtOs_6glossa8semantic11expressions17build_binary_expr
FN:473,_RNvNtNtCs14PW5HJOtOs_6glossa8semantic11expressions19feed_expr_recursive
FN:165,_RNvNtNtCs14PW5HJOtOs_6glossa8semantic11expressions20analyze_index_access
FN:53,_RNvNtNtCs14PW5HJOtOs_6glossa8semantic11expressions21analyze_argument_expr
FN:446,_RNvNtNtCs14PW5HJOtOs_6glossa8semantic11expressions21contains_verb_in_expr
FN:183,_RNvNtNtCs14PW5HJOtOs_6glossa8semantic11expressions23analyze_property_access
FN:632,_RNvNtNtCs14PW5HJOtOs_6glossa8semantic11expressions24literal_to_analyzed_expr
FN:584,_RNvNtNtCs14PW5HJOtOs_6glossa8semantic11expressions26check_cloning_depth_safety
FN:60,_RNvNtNtCs14PW5HJOtOs_6glossa8semantic11expressions31analyze_argument_expr_recursive
FN:412,_RNvNtNtCs14PW5HJOtOs_6glossa8semantic11expressions33contains_function_definition_verb
FN:465,_RNvNtNtCs14PW5HJOtOs_6glossa8semantic11expressions35feed_expr_to_assembler_with_context
FN:689,_RNvNtNtCs14PW5HJOtOs_6glossa8semantic11expressions39build_expressions_from_literals_and_ops
FNDA:0,_RNCNvNtNtCs4a0SCptkpqe_6glossa8semantic11expressions13analyze_array0B7_
FNDA:2,_RNCNvNtNtCs4a0SCptkpqe_6glossa8semantic11expressions14analyze_phrase0B7_
FNDA:2028769,_RNCNvNtNtCs4a0SCptkpqe_6glossa8semantic11expressions21contains_verb_in_expr0B7_
FNDA:15,_RNvNtNtCs4a0SCptkpqe_6glossa8semantic11expressions12analyze_word
FNDA:0,_RNvNtNtCs4a0SCptkpqe_6glossa8semantic11expressions13analyze_array
FNDA:0,_RNvNtNtCs4a0SCptkpqe_6glossa8semantic11expressions13analyze_binop
FNDA:2,_RNvNtNtCs4a0SCptkpqe_6glossa8semantic11expressions13analyze_block
FNDA:3,_RNvNtNtCs4a0SCptkpqe_6glossa8semantic11expressions14analyze_phrase
FNDA:4546,_RNvNtNtCs4a0SCptkpqe_6glossa8semantic11expressions14feed_word_expr
FNDA:781,_RNvNtNtCs4a0SCptkpqe_6glossa8semantic11expressions14get_first_word
FNDA:119,_RNvNtNtCs4a0SCptkpqe_6glossa8semantic11expressions15analyze_literal
FNDA:0,_RNvNtNtCs4a0SCptkpqe_6glossa8semantic11expressions15analyze_unaryop
FNDA:79,_RNvNtNtCs4a0SCptkpqe_6glossa8semantic11expressions15literal_to_type
FNDA:26,_RNvNtNtCs4a0SCptkpqe_6glossa8semantic11expressions16infer_binop_type
FNDA:15,_RNvNtNtCs4a0SCptkpqe_6glossa8semantic11expressions17build_binary_expr
FNDA:9696,_RNvNtNtCs4a0SCptkpqe_6glossa8semantic11expressions19feed_expr_recursive
FNDA:0,_RNvNtNtCs4a0SCptkpqe_6glossa8semantic11expressions20analyze_index_access
FNDA:136,_RNvNtNtCs4a0SCptkpqe_6glossa8semantic11expressions21analyze_argument_expr
FNDA:2033611,_RNvNtNtCs4a0SCptkpqe_6glossa8semantic11expressions21contains_verb_in_expr
FNDA:0,_RNvNtNtCs4a0SCptkpqe_6glossa8semantic11expressions23analyze_property_access
FNDA:770,_RNvNtNtCs4a0SCptkpqe_6glossa8semantic11expressions24literal_to_analyzed_expr
FNDA:3,_RNvNtNtCs4a0SCptkpqe_6glossa8semantic11expressions26check_cloning_depth_safety
FNDA:139,_RNvNtNtCs4a0SCptkpqe_6glossa8semantic11expressions31analyze_argument_expr_recursive
FNDA:799,_RNvNtNtCs4a0SCptkpqe_6glossa8semantic11expressions33contains_function_definition_verb
FNDA:5180,_RNvNtNtCs4a0SCptkpqe_6glossa8semantic11expressions35feed_expr_to_assembler_with_context
FNDA:528,_RNvNtNtCs4a0SCptkpqe_6glossa8semantic11expressions39build_expressions_from_literals_and_ops
FNDA:1,_RNvNtNtNtCs14PW5HJOtOs_6glossa8semantic11expressions16regression_testss_32test_dropped_operator_regression
FNDA:1,_RNCNvNtNtCs14PW5HJOtOs_6glossa8semantic11expressions13analyze_array0B7_
FNDA:1,_RNCNvNtNtCs14PW5HJOtOs_6glossa8semantic11expressions14analyze_phrase0B7_
FNDA:5401,_RNCNvNtNtCs14PW5HJOtOs_6glossa8semantic11expressions21contains_verb_in_expr0B7_
FNDA:1,_RNvNtNtNtCs14PW5HJOtOs_6glossa8semantic11expressions5testss_21test_dropped_operator
FNDA:1,_RNvNtNtNtCs14PW5HJOtOs_6glossa8semantic11expressions5testss_29test_vso_ambiguity_resolution
FNDA:1,_RNvNtNtNtCs14PW5HJOtOs_6glossa8semantic11expressions5testss_36test_phrase_errors_on_multiple_terms
FNDA:1,_RNvNtNtNtCs14PW5HJOtOs_6glossa8semantic11expressions5testss_40test_analyze_argument_expr_handles_array
FNDA:1,_RNvNtNtNtCs14PW5HJOtOs_6glossa8semantic11expressions5testss_40test_analyze_argument_expr_handles_binop
FNDA:1,_RNvNtNtNtCs14PW5HJOtOs_6glossa8semantic11expressions5testss_40test_analyze_argument_expr_handles_block
FNDA:1,_RNvNtNtNtCs14PW5HJOtOs_6glossa8semantic11expressions5testss_40test_recursion_limit_expression_analysis
FNDA:1,_RNvNtNtNtCs14PW5HJOtOs_6glossa8semantic11expressions5testss_41test_analyze_argument_expr_handles_unwrap
FNDA:1,_RNvNtNtNtCs14PW5HJOtOs_6glossa8semantic11expressions5testss_41test_build_expressions_preserves_literals
FNDA:1,_RNvNtNtNtCs14PW5HJOtOs_6glossa8semantic11expressions5testss_42test_backtracking_failure_propagates_error
FNDA:1,_RNvNtNtNtCs14PW5HJOtOs_6glossa8semantic11expressions5testss_43test_dropped_operator_insufficient_literals
FNDA:1,_RNvNtNtNtCs14PW5HJOtOs_6glossa8semantic11expressions5testss_44test_build_expressions_insufficient_literals
FNDA:1,_RNvNtNtNtCs14PW5HJOtOs_6glossa8semantic11expressions5testss_47test_analyze_argument_expr_handles_index_access
FNDA:1,_RNvNtNtNtCs14PW5HJOtOs_6glossa8semantic11expressions5testss_48test_analyze_argument_expr_errors_on_empty_block
FNDA:1,_RNvNtNtNtCs14PW5HJOtOs_6glossa8semantic11expressions5testss_48test_analyze_argument_expr_handles_function_call
FNDA:1,_RNvNtNtNtCs14PW5HJOtOs_6glossa8semantic11expressions5testss_49test_analyze_argument_expr_errors_on_empty_phrase
FNDA:1,_RNvNtNtNtCs14PW5HJOtOs_6glossa8semantic11expressions5testss_50test_analyze_argument_expr_handles_property_access
FNDA:1,_RNvNtNtNtCs14PW5HJOtOs_6glossa8semantic11expressions5testss_51test_analyze_argument_expr_handles_phrase_recursion
FNDA:1,_RNvNtNtNtCs14PW5HJOtOs_6glossa8semantic11expressions5testss_52test_analyze_argument_expr_propagates_error_in_array
FNDA:1,_RNvNtNtNtCs14PW5HJOtOs_6glossa8semantic11expressions5testss_52test_analyze_argument_expr_propagates_error_in_binop
FNDA:1,_RNvNtNtNtCs14PW5HJOtOs_6glossa8semantic11expressions5testss_53test_analyze_argument_expr_errors_on_invalid_property
FNDA:1,_RNvNtNtNtCs14PW5HJOtOs_6glossa8semantic11expressions5testss_55test_analyze_argument_expr_propagates_error_in_unary_op
FNDA:1,_RNvNtNtNtCs14PW5HJOtOs_6glossa8semantic11expressions5testss_59test_analyze_argument_expr_propagates_error_in_index_access
FNDA:1,_RNvNtNtNtCs14PW5HJOtOs_6glossa8semantic11expressions5testss_60test_analyze_argument_expr_errors_on_block_with_empty_clause
FNDA:1,_RNvNtNtNtCs14PW5HJOtOs_6glossa8semantic11expressions5testss_60test_analyze_argument_expr_errors_on_invalid_block_structure
FNDA:1,_RNvNtNtNtCs14PW5HJOtOs_6glossa8semantic11expressions5testss_60test_analyze_argument_expr_propagates_error_in_function_args
FNDA:1,_RNvNtNtNtCs14PW5HJOtOs_6glossa8semantic11expressions5testss_61test_analyze_argument_expr_propagates_error_in_property_owner
FNDA:5,_RNvNtNtCs14PW5HJOtOs_6glossa8semantic11expressions12analyze_word
FNDA:5,_RNvNtNtCs14PW5HJOtOs_6glossa8semantic11expressions13analyze_array
FNDA:15,_RNvNtNtCs14PW5HJOtOs_6glossa8semantic11expressions13analyze_binop
FNDA:5,_RNvNtNtCs14PW5HJOtOs_6glossa8semantic11expressions13analyze_block
FNDA:66,_RNvNtNtCs14PW5HJOtOs_6glossa8semantic11expressions14analyze_phrase
FNDA:4072,_RNvNtNtCs14PW5HJOtOs_6glossa8semantic11expressions14feed_word_expr
FNDA:1378,_RNvNtNtCs14PW5HJOtOs_6glossa8semantic11expressions14get_first_word
FNDA:44,_RNvNtNtCs14PW5HJOtOs_6glossa8semantic11expressions15analyze_literal
FNDA:2,_RNvNtNtCs14PW5HJOtOs_6glossa8semantic11expressions15analyze_unaryop
FNDA:1347,_RNvNtNtCs14PW5HJOtOs_6glossa8semantic11expressions15literal_to_type
FNDA:23,_RNvNtNtCs14PW5HJOtOs_6glossa8semantic11expressions16infer_binop_type
FNDA:22,_RNvNtNtCs14PW5HJOtOs_6glossa8semantic11expressions17build_binary_expr
FNDA:6803,_RNvNtNtCs14PW5HJOtOs_6glossa8semantic11expressions19feed_expr_recursive
FNDA:3,_RNvNtNtCs14PW5HJOtOs_6glossa8semantic11expressions20analyze_index_access
FNDA:47,_RNvNtNtCs14PW5HJOtOs_6glossa8semantic11expressions21analyze_argument_expr
FNDA:6781,_RNvNtNtCs14PW5HJOtOs_6glossa8semantic11expressions21contains_verb_in_expr
FNDA:3,_RNvNtNtCs14PW5HJOtOs_6glossa8semantic11expressions23analyze_property_access
FNDA:2729,_RNvNtNtCs14PW5HJOtOs_6glossa8semantic11expressions24literal_to_analyzed_expr
FNDA:565,_RNvNtNtCs14PW5HJOtOs_6glossa8semantic11expressions26check_cloning_depth_safety
FNDA:149,_RNvNtNtCs14PW5HJOtOs_6glossa8semantic11expressions31analyze_argument_expr_recursive
FNDA:1373,_RNvNtNtCs14PW5HJOtOs_6glossa8semantic11expressions33contains_function_definition_verb
FNDA:1392,_RNvNtNtCs14PW5HJOtOs_6glossa8semantic11expressions35feed_expr_to_assembler_with_context
FNDA:39,_RNvNtNtCs14PW5HJOtOs_6glossa8semantic11expressions39build_expressions_from_literals_and_ops
FNF:54
FNH:54
DA:53,183
DA:54,183
DA:55,183
DA:56,183
DA:57,183
DA:58,183
DA:60,288
DA:61,288
DA:62,288
DA:63,288
DA:64,288
DA:65,288
DA:66,1
DA:67,1
DA:68,1
DA:69,287
DA:71,287
DA:72,20
DA:75,163
DA:78,5
DA:80,3
DA:82,69
DA:84,7
DA:86,15
DA:88,2
DA:90,3
DA:91,3
DA:94,0
DA:95,0
DA:96,0
DA:98,288
DA:100,20
DA:101,20
DA:104,20
DA:105,1
DA:106,1
DA:107,1
DA:108,1
DA:109,19
DA:112,19
DA:113,19
DA:114,19
DA:115,19
DA:116,19
DA:117,0
DA:120,0
DA:121,0
DA:122,0
DA:123,0
DA:124,20
DA:126,163
DA:127,163
DA:128,159
DA:129,159
DA:130,159
DA:131,159
DA:132,3
DA:133,3
DA:134,3
DA:135,3
DA:136,1
DA:137,1
DA:138,1
DA:139,1
DA:140,0
DA:142,163
DA:144,5
DA:145,5
DA:146,5
DA:147,5
DA:148,5
DA:149,5
DA:150,5
DA:151,4
DA:154,4
DA:155,4
DA:156,4
DA:157,4
DA:159,4
DA:160,4
DA:161,4
DA:162,4
DA:163,5
DA:165,3
DA:166,3
DA:167,3
DA:168,3
DA:169,3
DA:170,3
DA:171,3
DA:172,2
DA:174,1
DA:175,1
DA:176,1
DA:177,1
DA:178,1
DA:179,1
DA:180,1
DA:181,3
DA:183,3
DA:184,3
DA:185,3
DA:186,3
DA:187,3
DA:188,3
DA:193,3
DA:194,2
DA:195,1
DA:196,1
DA:197,1
DA:198,1
DA:199,1
DA:200,1
DA:201,1
DA:203,1
DA:205,3
DA:207,69
DA:208,69
DA:209,69
DA:210,69
DA:211,69
DA:213,69
DA:214,9
DA:215,60
DA:218,60
DA:219,4
DA:221,4
DA:223,4
DA:224,5
DA:225,5
DA:228,3
DA:229,3
DA:230,3
DA:231,3
DA:233,3
DA:234,3
DA:235,3
DA:236,3
DA:237,3
DA:238,3
DA:239,3
DA:240,0
DA:241,56
DA:245,56
DA:246,2
DA:247,54
DA:250,54
DA:251,69
DA:253,7
DA:254,7
DA:255,7
DA:256,7
DA:257,7
DA:261,7
DA:262,2
DA:263,2
DA:264,2
DA:265,5
DA:267,5
DA:268,5
DA:269,5
DA:270,1
DA:271,1
DA:272,1
DA:273,4
DA:275,4
DA:276,4
DA:277,1
DA:278,1
DA:279,1
DA:280,3
DA:282,3
DA:283,3
DA:284,7
DA:286,15
DA:287,15
DA:288,15
DA:289,15
DA:290,15
DA:291,15
DA:292,15
DA:293,15
DA:294,14
DA:296,13
DA:297,1
DA:298,1
DA:299,1
DA:300,1
DA:301,1
DA:302,1
DA:303,1
DA:304,1
DA:305,1
DA:306,1
DA:307,1
DA:308,1
DA:309,1
DA:312,13
DA:313,15
DA:315,2
DA:316,2
DA:317,2
DA:318,2
DA:319,2
DA:320,2
DA:321,2
DA:323,2
DA:324,1
DA:325,1
DA:326,1
DA:327,1
DA:330,0
DA:331,0
DA:332,0
DA:334,2
DA:367,2159
DA:368,2159
DA:369,2159
DA:371,2158
DA:372,2031
DA:373,2031
DA:375,1956
DA:376,75
DA:377,127
DA:378,17
DA:379,110
DA:380,1
DA:381,186
DA:382,2159
DA:412,2172
DA:413,4211
DA:414,6222
DA:415,6222
DA:416,18
DA:417,6204
DA:420,2154
DA:421,2172
DA:446,2040392
DA:447,2040392
DA:448,1009163
DA:449,2034170
DA:450,1027146
DA:452,2040392
DA:465,6572
DA:466,6572
DA:467,6572
DA:468,6572
DA:469,6572
DA:470,6572
DA:471,6572
DA:473,16499
DA:474,16499
DA:475,16499
DA:476,16499
DA:477,16499
DA:478,16499
DA:479,16499
DA:480,0
DA:481,0
DA:482,0
DA:483,16499
DA:485,16499
DA:486,182
DA:487,182
DA:489,4511
DA:490,4511
DA:492,6
DA:493,6
DA:495,8618
DA:496,8618
DA:498,2326
DA:501,10182
DA:502,10182
DA:505,260
DA:506,260
DA:507,0
DA:509,9922
DA:520,12
DA:522,3
DA:524,1
DA:526,1
DA:527,1
DA:530,1
DA:532,1
DA:533,0
DA:534,1
DA:537,1
DA:538,1
DA:541,1
DA:543,1
DA:544,1
DA:546,1
DA:547,0
DA:548,1
DA:549,1
DA:551,1
DA:553,1
DA:554,1
DA:556,266
DA:558,266
DA:560,265
DA:563,1
DA:566,260
DA:569,260
DA:571,312
DA:573,312
DA:575,3
DA:577,3
DA:580,16469
DA:581,16499
DA:584,568
DA:585,568
DA:586,9
DA:587,9
DA:588,9
DA:589,559
DA:591,559
DA:592,12
DA:593,12
DA:594,3
DA:596,97
DA:597,148
DA:598,102
DA:601,98
DA:602,98
DA:603,48
DA:605,98
DA:606,98
DA:607,48
DA:609,49
DA:610,98
DA:612,49
DA:613,49
DA:614,49
DA:621,0
DA:623,56
DA:625,109
DA:626,568
DA:632,3499
DA:633,3499
DA:634,197
DA:635,197
DA:636,197
DA:637,197
DA:638,3294
DA:639,3294
DA:640,3294
DA:641,3294
DA:642,8
DA:643,8
DA:644,8
DA:645,8
DA:647,3499
DA:650,1426
DA:651,1426
DA:652,3
DA:653,1423
DA:654,0
DA:656,1426
DA:662,37
DA:663,37
DA:664,37
DA:665,37
DA:666,37
DA:667,37
DA:668,37
DA:669,37
DA:670,37
DA:671,37
DA:672,37
DA:673,37
DA:674,37
DA:675,37
DA:676,37
DA:689,567
DA:690,567
DA:691,567
DA:692,567
DA:694,567
DA:695,550
DA:696,17
DA:701,17
DA:702,5
DA:703,5
DA:704,5
DA:705,5
DA:706,5
DA:707,5
DA:708,12
DA:711,12
DA:713,12
DA:714,12
DA:715,12
DA:716,12
DA:717,12
DA:718,12
DA:719,12
DA:720,12
DA:721,12
DA:722,12
DA:723,12
DA:724,12
DA:725,12
DA:727,12
DA:731,12
DA:733,12
DA:734,1
DA:735,1
DA:737,12
DA:738,567
DA:745,49
DA:748,49
DA:751,20
DA:755,25
DA:758,4
DA:760,49
DA:762,8618
DA:763,8618
DA:764,8618
DA:765,8618
DA:766,8618
DA:769,8618
DA:770,8618
DA:771,6
DA:773,6
DA:774,8612
DA:779,8612
DA:780,8612
DA:782,8612
DA:783,3345
DA:784,3345
DA:785,325
DA:786,324
DA:787,3020
DA:788,5267
DA:791,8287
DA:795,8287
DA:800,8287
DA:801,8287
DA:803,8322
DA:804,8322
DA:806,8277
DA:807,8277
DA:809,45
DA:810,45
DA:811,45
DA:812,45
DA:816,8287
DA:817,10
DA:818,10
DA:820,0
DA:822,8277
DA:825,8277
DA:827,8277
DA:828,8618
DA:836,1
DA:837,1
DA:838,1
DA:839,1
DA:840,1
DA:842,1
DA:843,1
DA:845,1
DA:846,1
DA:847,1
DA:848,1
DA:849,0
DA:851,1
DA:854,1
DA:860,1
DA:861,1
DA:862,1
DA:863,1
DA:866,1
DA:868,1
DA:869,1
DA:874,1
DA:875,1
DA:876,1
DA:880,1
DA:883,1
DA:884,1
DA:885,1
DA:886,1
DA:888,1
DA:889,1
DA:890,1
DA:891,1
DA:892,1
DA:896,0
DA:898,1
DA:901,1
DA:902,1
DA:903,1
DA:904,1
DA:905,1
DA:906,1
DA:907,1
DA:909,1
DA:910,1
DA:911,1
DA:913,0
DA:915,1
DA:918,1
DA:919,1
DA:920,1
DA:921,1
DA:922,1
DA:923,1
DA:924,1
DA:925,1
DA:926,1
DA:927,1
DA:928,1
DA:929,1
DA:930,1
DA:931,1
DA:932,1
DA:933,1
DA:934,1
DA:935,1
DA:936,1
DA:937,1
DA:938,1
DA:939,1
DA:940,1
DA:941,1
DA:942,1
DA:943,1
DA:944,1
DA:945,1
DA:946,1
DA:947,1
DA:948,1
DA:949,1
DA:950,1
DA:951,1
DA:952,1
DA:953,1
DA:954,1
DA:955,1
DA:956,1
DA:957,1
DA:958,1
DA:959,1
DA:960,1
DA:961,1
DA:962,1
DA:963,1
DA:964,1
DA:965,1
DA:966,1
DA:967,1
DA:968,1
DA:969,1
DA:970,1
DA:971,1
DA:972,1
DA:975,13
DA:976,13
DA:977,13
DA:978,13
DA:979,13
DA:980,13
DA:981,13
DA:983,13
DA:984,13
DA:985,13
DA:991,0
DA:994,1
DA:997,1
DA:998,1
DA:999,1
DA:1000,1
DA:1001,1
DA:1002,1
DA:1003,1
DA:1004,1
DA:1006,1
DA:1007,1
DA:1008,1
DA:1010,0
DA:1012,1
DA:1015,1
DA:1016,1
DA:1017,1
DA:1018,1
DA:1019,1
DA:1020,1
DA:1021,1
DA:1022,1
DA:1024,1
DA:1025,1
DA:1028,1
DA:1029,1
DA:1030,1
DA:1031,1
DA:1033,1
DA:1034,1
DA:1037,1
DA:1039,1
DA:1040,1
DA:1041,1
DA:1043,1
DA:1044,1
DA:1047,1
DA:1049,1
DA:1050,1
DA:1051,1
DA:1052,1
DA:1053,1
DA:1054,1
DA:1056,1
DA:1059,1
DA:1060,1
DA:1061,1
DA:1062,1
DA:1063,1
DA:1064,1
DA:1065,1
DA:1068,1
DA:1070,1
DA:1071,1
DA:1072,1
DA:1073,1
DA:1074,1
DA:1075,1
DA:1076,1
DA:1077,1
DA:1080,1
DA:1081,1
DA:1082,1
DA:1083,1
DA:1084,1
DA:1085,1
DA:1086,1
DA:1087,1
DA:1090,1
DA:1092,1
DA:1093,1
DA:1094,1
DA:1095,1
DA:1096,1
DA:1097,1
DA:1098,1
DA:1099,1
DA:1102,1
DA:1104,1
DA:1105,1
DA:1106,1
DA:1107,1
DA:1108,1
DA:1109,1
DA:1110,1
DA:1111,1
DA:1114,1
DA:1117,1
DA:1118,1
DA:1119,1
DA:1120,1
DA:1122,1
DA:1123,1
DA:1124,0
DA:1126,1
DA:1129,1
DA:1131,1
DA:1132,1
DA:1134,1
DA:1135,1
DA:1139,1
DA:1140,1
DA:1141,1
DA:1142,1
DA:1143,1
DA:1145,1
DA:1147,1
DA:1148,1
DA:1149,1
DA:1150,1
DA:1151,1
DA:1153,0
DA:1155,1
DA:1158,1
DA:1159,1
DA:1160,1
DA:1163,1
DA:1164,1
DA:1165,1
DA:1166,1
DA:1168,1
DA:1169,1
DA:1170,1
DA:1173,1
DA:1176,1
DA:1177,1
DA:1178,1
DA:1179,1
DA:1180,1
DA:1181,1
DA:1182,1
DA:1183,1
DA:1184,1
DA:1185,1
DA:1187,1
DA:1188,1
DA:1189,0
DA:1191,1
DA:1194,1
DA:1195,1
DA:1196,1
DA:1197,1
DA:1198,1
DA:1199,1
DA:1202,1
DA:1204,1
DA:1205,1
DA:1206,1
DA:1207,1
DA:1208,1
DA:1209,1
DA:1210,1
DA:1211,1
DA:1212,1
DA:1213,1
DA:1216,1
DA:1218,1
DA:1219,1
DA:1220,1
DA:1221,1
DA:1222,1
DA:1223,1
DA:1224,1
DA:1225,1
DA:1226,1
DA:1227,1
DA:1228,1
DA:1229,1
DA:1232,1
DA:1244,1
DA:1245,1
DA:1248,1
DA:1249,1
DA:1252,1
DA:1253,1
DA:1256,1
DA:1257,1
DA:1260,1
DA:1263,1
DA:1264,1
DA:1266,1
DA:1267,1
DA:1270,1
DA:1271,1
DA:1275,1
DA:1278,1
DA:1287,1
DA:1288,1
DA:1291,1
DA:1292,1
DA:1295,1
DA:1296,1
DA:1298,1
DA:1299,1
DA:1302,1
DA:1305,1
DA:1306,1
DA:1310,1
DA:1313,1
DA:1314,1
DA:1315,1
DA:1316,1
DA:1319,1
DA:1320,1
DA:1324,1
DA:1327,1
DA:1328,1
DA:1329,1
DA:1331,1
DA:1333,1
DA:1334,1
DA:1340,1
DA:1341,1
DA:1343,0
DA:1345,1
DA:1348,1
DA:1354,1
DA:1355,1
DA:1356,1
DA:1357,1
DA:1360,1
DA:1362,1
DA:1363,1
DA:1368,1
DA:1369,1
DA:1370,1
DA:1374,1
DA:1377,1
DA:1380,1
DA:1381,52
DA:1382,52
DA:1383,52
DA:1385,1
DA:1386,1
DA:1388,1
DA:1389,1
DA:1390,1
DA:1391,1
DA:1394,1
DA:1400,1
DA:1401,1
DA:1402,1
DA:1403,1
DA:1406,1
DA:1408,1
DA:1409,1
DA:1414,1
DA:1415,1
DA:1416,1
DA:1420,1
DA:1429,1
DA:1435,1
DA:1436,1
DA:1438,1
DA:1440,1
DA:1441,1
DA:1446,1
DA:1447,1
DA:1448,1
DA:1452,1
BRF:0
BRH:0
LF:832
LH:797
end_of_record
SF:/app/src/semantic/mod.rs
FN:98,_RNvNtCs4a0SCptkpqe_6glossa8semantic18assemble_statement
FN:98,_RNvNtCs14PW5HJOtOs_6glossa8semantic18assemble_statement
FN:124,_RNvNtNtCs14PW5HJOtOs_6glossa8semantic5testss_18test_analyze_hello
FN:136,_RNvNtNtCs14PW5HJOtOs_6glossa8semantic5testss_20test_analyze_binding
FN:150,_RNvNtNtCs14PW5HJOtOs_6glossa8semantic5testss_25test_analyze_variable_use
FN:175,_RNvNtNtCs14PW5HJOtOs_6glossa8semantic5testss_27test_analyze_number_literal
FN:163,_RNvNtNtCs14PW5HJOtOs_6glossa8semantic5testss_27test_analyze_string_literal
FNDA:823,_RNvNtCs4a0SCptkpqe_6glossa8semantic18assemble_statement
FNDA:1375,_RNvNtCs14PW5HJOtOs_6glossa8semantic18assemble_statement
FNDA:1,_RNvNtNtCs14PW5HJOtOs_6glossa8semantic5testss_18test_analyze_hello
FNDA:1,_RNvNtNtCs14PW5HJOtOs_6glossa8semantic5testss_20test_analyze_binding
FNDA:1,_RNvNtNtCs14PW5HJOtOs_6glossa8semantic5testss_25test_analyze_variable_use
FNDA:1,_RNvNtNtCs14PW5HJOtOs_6glossa8semantic5testss_27test_analyze_number_literal
FNDA:1,_RNvNtNtCs14PW5HJOtOs_6glossa8semantic5testss_27test_analyze_string_literal
FNF:6
FNH:6
DA:98,2198
DA:99,2198
DA:100,2198
DA:101,2198
DA:104,2198
DA:108,2200
DA:109,6556
DA:110,6556
DA:115,2182
DA:116,2198
DA:124,1
DA:125,1
DA:126,1
DA:128,1
DA:129,1
DA:130,1
DA:133,1
DA:136,1
DA:137,1
DA:138,1
DA:140,1
DA:141,1
DA:142,1
DA:146,1
DA:147,1
DA:150,1
DA:151,1
DA:152,1
DA:154,1
DA:156,1
DA:157,1
DA:160,1
DA:163,1
DA:164,1
DA:165,1
DA:167,1
DA:168,1
DA:170,0
DA:172,1
DA:175,1
DA:176,1
DA:177,1
DA:179,1
DA:180,1
DA:182,0
DA:184,1
BRF:0
BRH:0
LF:46
LH:44
end_of_record
SF:/app/src/semantic/model.rs
FN:284,_RNvXNtNtCs4a0SCptkpqe_6glossa8semantic5modelNtB2_17AnalyzedStatementNtNtCs4kUJL3MZFFz_4core3fmt5Debug3fmt
FN:472,_RNvXs0_NtNtCs4a0SCptkpqe_6glossa8semantic5modelNtB5_12AnalyzedExprNtNtCs4kUJL3MZFFz_4core3fmt5Debug3fmt
FN:714,_RNvXs1_NtNtCs4a0SCptkpqe_6glossa8semantic5modelNtB5_16AnalyzedExprKindNtNtCs4kUJL3MZFFz_4core3fmt5Debug3fmt
FN:868,_RNvXs2_NtNtCs4a0SCptkpqe_6glossa8semantic5modelNtB5_8TraitDefNtNtCs4kUJL3MZFFz_4core3fmt5Debug3fmt
FN:899,_RNvXs3_NtNtCs4a0SCptkpqe_6glossa8semantic5modelNtB5_9TraitImplNtNtCs4kUJL3MZFFz_4core3fmt5Debug3fmt
FN:426,_RNvXs_NtNtCs4a0SCptkpqe_6glossa8semantic5modelNtB4_14AnalyzedMethodNtNtCs4kUJL3MZFFz_4core3fmt5Debug3fmt
FN:285,_RNCNvXNtNtCs4a0SCptkpqe_6glossa8semantic5modelNtB4_17AnalyzedStatementNtNtCs4kUJL3MZFFz_4core3fmt5Debug3fmt0B8_
FN:473,_RNCNvXs0_NtNtCs4a0SCptkpqe_6glossa8semantic5modelNtB7_12AnalyzedExprNtNtCs4kUJL3MZFFz_4core3fmt5Debug3fmt0Bb_
FN:715,_RNCNvXs1_NtNtCs4a0SCptkpqe_6glossa8semantic5modelNtB7_16AnalyzedExprKindNtNtCs4kUJL3MZFFz_4core3fmt5Debug3fmt0Bb_
FN:869,_RNCNvXs2_NtNtCs4a0SCptkpqe_6glossa8semantic5modelNtB7_8TraitDefNtNtCs4kUJL3MZFFz_4core3fmt5Debug3fmt0Bb_
FN:900,_RNCNvXs3_NtNtCs4a0SCptkpqe_6glossa8semantic5modelNtB7_9TraitImplNtNtCs4kUJL3MZFFz_4core3fmt5Debug3fmt0Bb_
FN:427,_RNCNvXs_NtNtCs4a0SCptkpqe_6glossa8semantic5modelNtB6_14AnalyzedMethodNtNtCs4kUJL3MZFFz_4core3fmt5Debug3fmt0Ba_
FN:869,_RNCNvXs2_NtNtCs14PW5HJOtOs_6glossa8semantic5modelNtB7_8TraitDefNtNtCs4kUJL3MZFFz_4core3fmt5Debug3fmt0Bb_
FN:900,_RNCNvXs3_NtNtCs14PW5HJOtOs_6glossa8semantic5modelNtB7_9TraitImplNtNtCs4kUJL3MZFFz_4core3fmt5Debug3fmt0Bb_
FN:868,_RNvXs2_NtNtCs14PW5HJOtOs_6glossa8semantic5modelNtB5_8TraitDefNtNtCs4kUJL3MZFFz_4core3fmt5Debug3fmt
FN:899,_RNvXs3_NtNtCs14PW5HJOtOs_6glossa8semantic5modelNtB5_9TraitImplNtNtCs4kUJL3MZFFz_4core3fmt5Debug3fmt
FN:285,_RNCNvXNtNtCs14PW5HJOtOs_6glossa8semantic5modelNtB4_17AnalyzedStatementNtNtCs4kUJL3MZFFz_4core3fmt5Debug3fmt0B8_
FN:473,_RNCNvXs0_NtNtCs14PW5HJOtOs_6glossa8semantic5modelNtB7_12AnalyzedExprNtNtCs4kUJL3MZFFz_4core3fmt5Debug3fmt0Bb_
FN:715,_RNCNvXs1_NtNtCs14PW5HJOtOs_6glossa8semantic5modelNtB7_16AnalyzedExprKindNtNtCs4kUJL3MZFFz_4core3fmt5Debug3fmt0Bb_
FN:427,_RNCNvXs_NtNtCs14PW5HJOtOs_6glossa8semantic5modelNtB6_14AnalyzedMethodNtNtCs4kUJL3MZFFz_4core3fmt5Debug3fmt0Ba_
FN:284,_RNvXNtNtCs14PW5HJOtOs_6glossa8semantic5modelNtB2_17AnalyzedStatementNtNtCs4kUJL3MZFFz_4core3fmt5Debug3fmt
FN:472,_RNvXs0_NtNtCs14PW5HJOtOs_6glossa8semantic5modelNtB5_12AnalyzedExprNtNtCs4kUJL3MZFFz_4core3fmt5Debug3fmt
FN:714,_RNvXs1_NtNtCs14PW5HJOtOs_6glossa8semantic5modelNtB5_16AnalyzedExprKindNtNtCs4kUJL3MZFFz_4core3fmt5Debug3fmt
FN:426,_RNvXs_NtNtCs14PW5HJOtOs_6glossa8semantic5modelNtB4_14AnalyzedMethodNtNtCs4kUJL3MZFFz_4core3fmt5Debug3fmt
FNDA:20,_RNvXNtNtCs4a0SCptkpqe_6glossa8semantic5modelNtB2_17AnalyzedStatementNtNtCs4kUJL3MZFFz_4core3fmt5Debug3fmt
FNDA:130,_RNvXs0_NtNtCs4a0SCptkpqe_6glossa8semantic5modelNtB5_12AnalyzedExprNtNtCs4kUJL3MZFFz_4core3fmt5Debug3fmt
FNDA:157,_RNvXs1_NtNtCs4a0SCptkpqe_6glossa8semantic5modelNtB5_16AnalyzedExprKindNtNtCs4kUJL3MZFFz_4core3fmt5Debug3fmt
FNDA:1,_RNvXs2_NtNtCs4a0SCptkpqe_6glossa8semantic5modelNtB5_8TraitDefNtNtCs4kUJL3MZFFz_4core3fmt5Debug3fmt
FNDA:1,_RNvXs3_NtNtCs4a0SCptkpqe_6glossa8semantic5modelNtB5_9TraitImplNtNtCs4kUJL3MZFFz_4core3fmt5Debug3fmt
FNDA:1,_RNvXs_NtNtCs4a0SCptkpqe_6glossa8semantic5modelNtB4_14AnalyzedMethodNtNtCs4kUJL3MZFFz_4core3fmt5Debug3fmt
FNDA:20,_RNCNvXNtNtCs4a0SCptkpqe_6glossa8semantic5modelNtB4_17AnalyzedStatementNtNtCs4kUJL3MZFFz_4core3fmt5Debug3fmt0B8_
FNDA:130,_RNCNvXs0_NtNtCs4a0SCptkpqe_6glossa8semantic5modelNtB7_12AnalyzedExprNtNtCs4kUJL3MZFFz_4core3fmt5Debug3fmt0Bb_
FNDA:157,_RNCNvXs1_NtNtCs4a0SCptkpqe_6glossa8semantic5modelNtB7_16AnalyzedExprKindNtNtCs4kUJL3MZFFz_4core3fmt5Debug3fmt0Bb_
FNDA:1,_RNCNvXs2_NtNtCs4a0SCptkpqe_6glossa8semantic5modelNtB7_8TraitDefNtNtCs4kUJL3MZFFz_4core3fmt5Debug3fmt0Bb_
FNDA:1,_RNCNvXs3_NtNtCs4a0SCptkpqe_6glossa8semantic5modelNtB7_9TraitImplNtNtCs4kUJL3MZFFz_4core3fmt5Debug3fmt0Bb_
FNDA:1,_RNCNvXs_NtNtCs4a0SCptkpqe_6glossa8semantic5modelNtB6_14AnalyzedMethodNtNtCs4kUJL3MZFFz_4core3fmt5Debug3fmt0Ba_
FNDA:0,_RNCNvXs2_NtNtCs14PW5HJOtOs_6glossa8semantic5modelNtB7_8TraitDefNtNtCs4kUJL3MZFFz_4core3fmt5Debug3fmt0Bb_
FNDA:0,_RNCNvXs3_NtNtCs14PW5HJOtOs_6glossa8semantic5modelNtB7_9TraitImplNtNtCs4kUJL3MZFFz_4core3fmt5Debug3fmt0Bb_
FNDA:0,_RNvXs2_NtNtCs14PW5HJOtOs_6glossa8semantic5modelNtB5_8TraitDefNtNtCs4kUJL3MZFFz_4core3fmt5Debug3fmt
FNDA:0,_RNvXs3_NtNtCs14PW5HJOtOs_6glossa8semantic5modelNtB5_9TraitImplNtNtCs4kUJL3MZFFz_4core3fmt5Debug3fmt
FNDA:0,_RNCNvXNtNtCs14PW5HJOtOs_6glossa8semantic5modelNtB4_17AnalyzedStatementNtNtCs4kUJL3MZFFz_4core3fmt5Debug3fmt0B8_
FNDA:0,_RNCNvXs0_NtNtCs14PW5HJOtOs_6glossa8semantic5modelNtB7_12AnalyzedExprNtNtCs4kUJL3MZFFz_4core3fmt5Debug3fmt0Bb_
FNDA:0,_RNCNvXs1_NtNtCs14PW5HJOtOs_6glossa8semantic5modelNtB7_16AnalyzedExprKindNtNtCs4kUJL3MZFFz_4core3fmt5Debug3fmt0Bb_
FNDA:0,_RNCNvXs_NtNtCs14PW5HJOtOs_6glossa8semantic5modelNtB6_14AnalyzedMethodNtNtCs4kUJL3MZFFz_4core3fmt5Debug3fmt0Ba_
FNDA:0,_RNvXNtNtCs14PW5HJOtOs_6glossa8semantic5modelNtB2_17AnalyzedStatementNtNtCs4kUJL3MZFFz_4core3fmt5Debug3fmt
FNDA:0,_RNvXs0_NtNtCs14PW5HJOtOs_6glossa8semantic5modelNtB5_12AnalyzedExprNtNtCs4kUJL3MZFFz_4core3fmt5Debug3fmt
FNDA:0,_RNvXs1_NtNtCs14PW5HJOtOs_6glossa8semantic5modelNtB5_16AnalyzedExprKindNtNtCs4kUJL3MZFFz_4core3fmt5Debug3fmt
FNDA:0,_RNvXs_NtNtCs14PW5HJOtOs_6glossa8semantic5modelNtB4_14AnalyzedMethodNtNtCs4kUJL3MZFFz_4core3fmt5Debug3fmt
FNF:12
FNH:12
DA:284,20
DA:285,20
DA:287,3
DA:288,3
DA:289,3
DA:290,3
DA:291,3
DA:292,3
DA:293,3
DA:294,3
DA:295,3
DA:296,1
DA:297,1
DA:298,1
DA:299,1
DA:300,1
DA:301,1
DA:302,1
DA:303,1
DA:305,1
DA:307,1
DA:308,1
DA:309,1
DA:310,1
DA:311,1
DA:312,1
DA:313,1
DA:314,1
DA:315,1
DA:316,1
DA:317,1
DA:318,1
DA:319,1
DA:320,1
DA:322,1
DA:323,1
DA:324,1
DA:325,1
DA:326,1
DA:327,1
DA:328,1
DA:329,1
DA:330,1
DA:331,1
DA:332,1
DA:333,1
DA:334,1
DA:335,1
DA:336,1
DA:337,1
DA:338,1
DA:339,1
DA:342,1
DA:343,1
DA:344,1
DA:345,1
DA:346,1
DA:347,1
DA:348,1
DA:349,1
DA:350,1
DA:351,1
DA:352,1
DA:353,2
DA:354,2
DA:355,2
DA:356,2
DA:357,2
DA:358,1
DA:359,1
DA:360,1
DA:361,1
DA:362,1
DA:364,1
DA:365,1
DA:366,1
DA:367,1
DA:368,1
DA:369,1
DA:370,1
DA:371,1
DA:372,1
DA:373,1
DA:374,1
DA:375,1
DA:376,1
DA:377,1
DA:378,20
DA:379,20
DA:426,1
DA:427,1
DA:428,1
DA:429,1
DA:430,1
DA:431,1
DA:432,1
DA:433,1
DA:434,1
DA:435,1
DA:472,130
DA:473,130
DA:474,130
DA:475,130
DA:476,130
DA:477,130
DA:478,130
DA:479,130
DA:714,157
DA:715,157
DA:716,1
DA:717,3
DA:718,3
DA:719,3
DA:721,2
DA:722,1
DA:723,1
DA:724,1
DA:725,1
DA:726,1
DA:727,1
DA:728,1
DA:729,1
DA:730,1
DA:731,1
DA:732,1
DA:733,1
DA:734,1
DA:735,1
DA:736,1
DA:737,1
DA:738,1
DA:739,1
DA:740,1
DA:741,1
DA:742,1
DA:744,1
DA:745,1
DA:746,1
DA:747,1
DA:748,1
DA:749,1
DA:750,1
DA:751,1
DA:752,1
DA:753,1
DA:754,1
DA:755,27
DA:756,1
DA:757,1
DA:758,101
DA:759,1
DA:760,1
DA:761,1
DA:762,1
DA:763,1
DA:764,1
DA:765,1
DA:766,1
DA:767,1
DA:768,1
DA:769,1
DA:771,2
DA:772,2
DA:773,2
DA:774,2
DA:775,2
DA:776,2
DA:777,2
DA:778,2
DA:779,2
DA:781,2
DA:782,2
DA:783,2
DA:784,2
DA:785,2
DA:786,2
DA:787,2
DA:788,2
DA:789,2
DA:791,1
DA:792,1
DA:793,1
DA:794,1
DA:795,1
DA:796,1
DA:797,1
DA:798,1
DA:799,1
DA:800,1
DA:801,1
DA:802,1
DA:803,1
DA:804,1
DA:805,1
DA:806,1
DA:807,1
DA:808,1
DA:809,1
DA:810,1
DA:811,1
DA:812,1
DA:813,157
DA:814,157
DA:868,1
DA:869,1
DA:870,1
DA:871,1
DA:872,1
DA:873,1
DA:874,1
DA:875,1
DA:899,1
DA:900,1
DA:901,1
DA:902,1
DA:903,1
DA:904,1
DA:905,1
DA:906,1
BRF:0
BRH:0
LF:225
LH:225
end_of_record
SF:/app/src/semantic/patterns.rs
FN:476,_RNCNvNtNtCs4a0SCptkpqe_6glossa8semantic8patterns18extract_collection0B7_
FN:242,_RNCNvNtNtCs4a0SCptkpqe_6glossa8semantic8patterns30try_parse_struct_instantiation0B7_
FN:837,_RNvNtNtCs4a0SCptkpqe_6glossa8semantic8patterns12process_find
FN:269,_RNvNtNtCs4a0SCptkpqe_6glossa8semantic8patterns17parse_struct_args
FN:471,_RNvNtNtCs4a0SCptkpqe_6glossa8semantic8patterns18extract_collection
FN:537,_RNvNtNtCs4a0SCptkpqe_6glossa8semantic8patterns18process_adjectives
FN:761,_RNvNtNtCs4a0SCptkpqe_6glossa8semantic8patterns19process_participles
FN:511,_RNvNtNtCs4a0SCptkpqe_6glossa8semantic8patterns20get_quantifier_flags
FN:64,_RNvNtNtCs4a0SCptkpqe_6glossa8semantic8patterns21try_parse_method_call
FN:684,_RNvNtNtCs4a0SCptkpqe_6glossa8semantic8patterns22process_map_participle
FN:373,_RNvNtNtCs4a0SCptkpqe_6glossa8semantic8patterns23detect_iterator_pattern
FN:912,_RNvNtNtCs4a0SCptkpqe_6glossa8semantic8patterns23finalize_iterator_chain
FN:608,_RNvNtNtCs4a0SCptkpqe_6glossa8semantic8patterns23process_fold_participle
FN:932,_RNvNtNtCs4a0SCptkpqe_6glossa8semantic8patterns24extract_comparison_value
FN:1007,_RNvNtNtCs4a0SCptkpqe_6glossa8semantic8patterns27create_comparison_predicate
FN:793,_RNvNtNtCs4a0SCptkpqe_6glossa8semantic8patterns28process_explicit_quantifiers
FN:146,_RNvNtNtCs4a0SCptkpqe_6glossa8semantic8patterns30try_parse_struct_instantiation
FN:476,_RNCNvNtNtCs14PW5HJOtOs_6glossa8semantic8patterns18extract_collection0B7_
FN:242,_RNCNvNtNtCs14PW5HJOtOs_6glossa8semantic8patterns30try_parse_struct_instantiation0B7_
FN:1073,_RNvNtNtNtCs14PW5HJOtOs_6glossa8semantic8patterns5testss_35test_extract_comparison_value_lemma
FN:1211,_RNvNtNtNtCs14PW5HJOtOs_6glossa8semantic8patterns5testss_38test_extract_comparison_value_fallback
FN:1182,_RNvNtNtNtCs14PW5HJOtOs_6glossa8semantic8patterns5testss_38test_extract_comparison_value_original
FN:1157,_RNvNtNtNtCs14PW5HJOtOs_6glossa8semantic8patterns5testss_38test_extract_comparison_value_stripped
FN:1239,_RNvNtNtNtCs14PW5HJOtOs_6glossa8semantic8patterns5testss_47test_try_parse_struct_instantiation_empty_terms
FN:1101,_RNvNtNtNtCs14PW5HJOtOs_6glossa8semantic8patterns5testss_48test_extract_comparison_value_stripped_suffix_es
FN:1129,_RNvNtNtNtCs14PW5HJOtOs_6glossa8semantic8patterns5testss_48test_extract_comparison_value_stripped_suffix_on
FN:1260,_RNvNtNtNtCs14PW5HJOtOs_6glossa8semantic8patterns5testss_51test_try_parse_struct_instantiation_non_struct_type
FN:1043,_RNvNtNtNtCs14PW5HJOtOs_6glossa8semantic8patterns5testss_52test_process_fold_participle_unsupported_op_fallback
FN:1294,_RNvNtNtNtCs14PW5HJOtOs_6glossa8semantic8patterns14coverage_testss_32test_detect_iterator_pattern_any
FN:1371,_RNvNtNtNtCs14PW5HJOtOs_6glossa8semantic8patterns14coverage_testss_33test_detect_iterator_pattern_find
FN:1432,_RNvNtNtNtCs14PW5HJOtOs_6glossa8semantic8patterns14coverage_testss_35test_detect_iterator_pattern_filter
FN:1512,_RNvNtNtNtCs14PW5HJOtOs_6glossa8semantic8patterns14coverage_testss_39test_parse_struct_args_unsupported_type
FN:1524,_RNvNtNtNtCs14PW5HJOtOs_6glossa8semantic8patterns14coverage_testss_39test_process_find_no_predicate_coverage
FN:837,_RNvNtNtCs14PW5HJOtOs_6glossa8semantic8patterns12process_find
FN:269,_RNvNtNtCs14PW5HJOtOs_6glossa8semantic8patterns17parse_struct_args
FN:471,_RNvNtNtCs14PW5HJOtOs_6glossa8semantic8patterns18extract_collection
FN:537,_RNvNtNtCs14PW5HJOtOs_6glossa8semantic8patterns18process_adjectives
FN:761,_RNvNtNtCs14PW5HJOtOs_6glossa8semantic8patterns19process_participles
FN:511,_RNvNtNtCs14PW5HJOtOs_6glossa8semantic8patterns20get_quantifier_flags
FN:64,_RNvNtNtCs14PW5HJOtOs_6glossa8semantic8patterns21try_parse_method_call
FN:684,_RNvNtNtCs14PW5HJOtOs_6glossa8semantic8patterns22process_map_participle
FN:373,_RNvNtNtCs14PW5HJOtOs_6glossa8semantic8patterns23detect_iterator_pattern
FN:912,_RNvNtNtCs14PW5HJOtOs_6glossa8semantic8patterns23finalize_iterator_chain
FN:608,_RNvNtNtCs14PW5HJOtOs_6glossa8semantic8patterns23process_fold_participle
FN:932,_RNvNtNtCs14PW5HJOtOs_6glossa8semantic8patterns24extract_comparison_value
FN:1007,_RNvNtNtCs14PW5HJOtOs_6glossa8semantic8patterns27create_comparison_predicate
FN:793,_RNvNtNtCs14PW5HJOtOs_6glossa8semantic8patterns28process_explicit_quantifiers
FN:146,_RNvNtNtCs14PW5HJOtOs_6glossa8semantic8patterns30try_parse_struct_instantiation
FNDA:48,_RNCNvNtNtCs4a0SCptkpqe_6glossa8semantic8patterns18extract_collection0B7_
FNDA:23,_RNCNvNtNtCs4a0SCptkpqe_6glossa8semantic8patterns30try_parse_struct_instantiation0B7_
FNDA:6,_RNvNtNtCs4a0SCptkpqe_6glossa8semantic8patterns12process_find
FNDA:18,_RNvNtNtCs4a0SCptkpqe_6glossa8semantic8patterns17parse_struct_args
FNDA:279,_RNvNtNtCs4a0SCptkpqe_6glossa8semantic8patterns18extract_collection
FNDA:166,_RNvNtNtCs4a0SCptkpqe_6glossa8semantic8patterns18process_adjectives
FNDA:166,_RNvNtNtCs4a0SCptkpqe_6glossa8semantic8patterns19process_participles
FNDA:166,_RNvNtNtCs4a0SCptkpqe_6glossa8semantic8patterns20get_quantifier_flags
FNDA:701,_RNvNtNtCs4a0SCptkpqe_6glossa8semantic8patterns21try_parse_method_call
FNDA:8,_RNvNtNtCs4a0SCptkpqe_6glossa8semantic8patterns22process_map_participle
FNDA:301,_RNvNtNtCs4a0SCptkpqe_6glossa8semantic8patterns23detect_iterator_pattern
FNDA:12,_RNvNtNtCs4a0SCptkpqe_6glossa8semantic8patterns23finalize_iterator_chain
FNDA:4,_RNvNtNtCs4a0SCptkpqe_6glossa8semantic8patterns23process_fold_participle
FNDA:22,_RNvNtNtCs4a0SCptkpqe_6glossa8semantic8patterns24extract_comparison_value
FNDA:22,_RNvNtNtCs4a0SCptkpqe_6glossa8semantic8patterns27create_comparison_predicate
FNDA:166,_RNvNtNtCs4a0SCptkpqe_6glossa8semantic8patterns28process_explicit_quantifiers
FNDA:729,_RNvNtNtCs4a0SCptkpqe_6glossa8semantic8patterns30try_parse_struct_instantiation
FNDA:0,_RNCNvNtNtCs14PW5HJOtOs_6glossa8semantic8patterns18extract_collection0B7_
FNDA:0,_RNCNvNtNtCs14PW5HJOtOs_6glossa8semantic8patterns30try_parse_struct_instantiation0B7_
FNDA:1,_RNvNtNtNtCs14PW5HJOtOs_6glossa8semantic8patterns5testss_35test_extract_comparison_value_lemma
FNDA:1,_RNvNtNtNtCs14PW5HJOtOs_6glossa8semantic8patterns5testss_38test_extract_comparison_value_fallback
FNDA:1,_RNvNtNtNtCs14PW5HJOtOs_6glossa8semantic8patterns5testss_38test_extract_comparison_value_original
FNDA:1,_RNvNtNtNtCs14PW5HJOtOs_6glossa8semantic8patterns5testss_38test_extract_comparison_value_stripped
FNDA:1,_RNvNtNtNtCs14PW5HJOtOs_6glossa8semantic8patterns5testss_47test_try_parse_struct_instantiation_empty_terms
FNDA:1,_RNvNtNtNtCs14PW5HJOtOs_6glossa8semantic8patterns5testss_48test_extract_comparison_value_stripped_suffix_es
FNDA:1,_RNvNtNtNtCs14PW5HJOtOs_6glossa8semantic8patterns5testss_48test_extract_comparison_value_stripped_suffix_on
FNDA:1,_RNvNtNtNtCs14PW5HJOtOs_6glossa8semantic8patterns5testss_51test_try_parse_struct_instantiation_non_struct_type
FNDA:1,_RNvNtNtNtCs14PW5HJOtOs_6glossa8semantic8patterns5testss_52test_process_fold_participle_unsupported_op_fallback
FNDA:1,_RNvNtNtNtCs14PW5HJOtOs_6glossa8semantic8patterns14coverage_testss_32test_detect_iterator_pattern_any
FNDA:1,_RNvNtNtNtCs14PW5HJOtOs_6glossa8semantic8patterns14coverage_testss_33test_detect_iterator_pattern_find
FNDA:1,_RNvNtNtNtCs14PW5HJOtOs_6glossa8semantic8patterns14coverage_testss_35test_detect_iterator_pattern_filter
FNDA:1,_RNvNtNtNtCs14PW5HJOtOs_6glossa8semantic8patterns14coverage_testss_39test_parse_struct_args_unsupported_type
FNDA:1,_RNvNtNtNtCs14PW5HJOtOs_6glossa8semantic8patterns14coverage_testss_39test_process_find_no_predicate_coverage
FNDA:2,_RNvNtNtCs14PW5HJOtOs_6glossa8semantic8patterns12process_find
FNDA:1,_RNvNtNtCs14PW5HJOtOs_6glossa8semantic8patterns17parse_struct_args
FNDA:30,_RNvNtNtCs14PW5HJOtOs_6glossa8semantic8patterns18extract_collection
FNDA:8,_RNvNtNtCs14PW5HJOtOs_6glossa8semantic8patterns18process_adjectives
FNDA:8,_RNvNtNtCs14PW5HJOtOs_6glossa8semantic8patterns19process_participles
FNDA:8,_RNvNtNtCs14PW5HJOtOs_6glossa8semantic8patterns20get_quantifier_flags
FNDA:1365,_RNvNtNtCs14PW5HJOtOs_6glossa8semantic8patterns21try_parse_method_call
FNDA:0,_RNvNtNtCs14PW5HJOtOs_6glossa8semantic8patterns22process_map_participle
FNDA:32,_RNvNtNtCs14PW5HJOtOs_6glossa8semantic8patterns23detect_iterator_pattern
FNDA:1,_RNvNtNtCs14PW5HJOtOs_6glossa8semantic8patterns23finalize_iterator_chain
FNDA:1,_RNvNtNtCs14PW5HJOtOs_6glossa8semantic8patterns23process_fold_participle
FNDA:9,_RNvNtNtCs14PW5HJOtOs_6glossa8semantic8patterns24extract_comparison_value
FNDA:3,_RNvNtNtCs14PW5HJOtOs_6glossa8semantic8patterns27create_comparison_predicate
FNDA:8,_RNvNtNtCs14PW5HJOtOs_6glossa8semantic8patterns28process_explicit_quantifiers
FNDA:1367,_RNvNtNtCs14PW5HJOtOs_6glossa8semantic8patterns30try_parse_struct_instantiation
FNF:31
FNH:31
DA:64,2066
DA:65,2066
DA:66,2066
DA:67,2066
DA:69,2066
DA:70,0
DA:74,2066
DA:75,2
DA:76,2064
DA:79,2064
DA:80,115
DA:83,1949
DA:84,1841
DA:85,108
DA:88,108
DA:89,46
DA:92,62
DA:93,62
DA:96,62
DA:97,61
DA:101,1
DA:102,1
DA:104,0
DA:109,1
DA:110,0
DA:111,1
DA:113,1
DA:114,1
DA:115,1
DA:116,1
DA:118,1
DA:119,1
DA:120,1
DA:121,1
DA:122,1
DA:123,1
DA:124,1
DA:125,1
DA:127,1
DA:128,2066
DA:146,2096
DA:147,2096
DA:148,2096
DA:149,2096
DA:151,2096
DA:152,0
DA:156,2096
DA:157,2
DA:158,2094
DA:160,2094
DA:161,2094
DA:162,0
DA:163,2094
DA:166,2094
DA:167,115
DA:170,1979
DA:171,491
DA:172,1488
DA:175,1488
DA:176,22
DA:178,1466
DA:179,1330
DA:181,136
DA:182,17
DA:184,119
DA:185,1
DA:190,118
DA:191,36
DA:192,82
DA:195,82
DA:197,82
DA:198,53
DA:199,29
DA:202,29
DA:203,29
DA:206,9
DA:207,29
DA:209,9
DA:210,9
DA:211,9
DA:212,9
DA:213,9
DA:214,9
DA:217,9
DA:219,9
DA:220,9
DA:221,9
DA:222,9
DA:223,9
DA:224,20
DA:227,20
DA:230,2
DA:235,18
DA:236,18
DA:237,18
DA:239,0
DA:242,23
DA:245,18
DA:246,0
DA:250,18
DA:251,18
DA:252,18
DA:253,18
DA:254,18
DA:255,18
DA:256,18
DA:257,18
DA:260,18
DA:262,18
DA:263,18
DA:264,18
DA:265,18
DA:266,18
DA:267,2096
DA:269,19
DA:270,19
DA:271,19
DA:272,19
DA:273,19
DA:274,19
DA:275,24
DA:276,24
DA:277,24
DA:279,0
DA:282,24
DA:283,18
DA:285,18
DA:287,0
DA:288,0
DA:289,0
DA:290,0
DA:291,17
DA:292,18
DA:295,17
DA:296,17
DA:297,17
DA:298,17
DA:301,1
DA:302,1
DA:303,1
DA:304,1
DA:305,1
DA:306,1
DA:307,1
DA:308,1
DA:311,2
DA:312,2
DA:313,2
DA:314,2
DA:315,2
DA:317,2
DA:319,1
DA:320,1
DA:321,1
DA:322,1
DA:323,1
DA:324,1
DA:325,1
DA:326,1
DA:328,1
DA:331,2
DA:332,2
DA:333,2
DA:334,2
DA:335,1
DA:336,1
DA:337,1
DA:338,1
DA:339,1
DA:341,23
DA:343,18
DA:344,19
DA:373,333
DA:374,333
DA:375,333
DA:376,333
DA:378,333
DA:379,333
DA:380,0
DA:384,333
DA:385,333
DA:386,333
DA:388,333
DA:389,24
DA:390,309
DA:393,309
DA:394,174
DA:395,135
DA:399,174
DA:403,174
DA:404,174
DA:405,174
DA:406,174
DA:407,174
DA:408,174
DA:409,174
DA:410,174
DA:413,174
DA:416,174
DA:417,11
DA:418,163
DA:421,174
DA:422,174
DA:423,8
DA:424,166
DA:427,174
DA:428,174
DA:429,174
DA:430,8
DA:431,166
DA:434,166
DA:435,7
DA:441,7
DA:442,7
DA:443,159
DA:446,159
DA:447,4
DA:448,155
DA:452,155
DA:453,1
DA:454,154
DA:458,154
DA:459,13
DA:460,13
DA:462,141
DA:464,333
DA:471,309
DA:472,309
DA:474,15
DA:475,15
DA:476,48
DA:477,48
DA:478,48
DA:479,48
DA:480,48
DA:481,0
DA:482,0
DA:483,0
DA:484,0
DA:485,48
DA:486,15
DA:488,15
DA:489,15
DA:490,15
DA:491,15
DA:492,294
DA:494,159
DA:495,159
DA:496,159
DA:498,159
DA:499,159
DA:500,159
DA:501,159
DA:503,0
DA:506,135
DA:508,309
DA:511,174
DA:512,174
DA:513,174
DA:515,174
DA:516,162
DA:517,162
DA:518,162
DA:519,162
DA:522,174
DA:523,10
DA:524,10
DA:525,6
DA:526,6
DA:527,10
DA:528,0
DA:529,10
DA:532,174
DA:533,174
DA:537,174
DA:538,174
DA:539,174
DA:540,174
DA:541,174
DA:542,174
DA:543,174
DA:546,174
DA:547,163
DA:548,11
DA:550,11
DA:552,11
DA:555,11
DA:556,11
DA:557,11
DA:558,11
DA:561,11
DA:564,11
DA:565,10
DA:567,1
DA:571,11
DA:574,11
DA:575,0
DA:576,11
DA:577,1
DA:579,10
DA:583,11
DA:584,11
DA:585,11
DA:586,11
DA:587,11
DA:588,11
DA:589,11
DA:590,11
DA:591,11
DA:592,11
DA:593,11
DA:594,11
DA:595,11
DA:596,1
DA:598,10
DA:601,11
DA:602,11
DA:603,0
DA:605,11
DA:606,174
DA:608,5
DA:609,5
DA:610,5
DA:611,5
DA:612,5
DA:614,5
DA:616,5
DA:617,3
DA:618,1
DA:619,1
DA:623,4
DA:624,0
DA:626,1
DA:627,3
DA:631,4
DA:632,4
DA:633,4
DA:634,4
DA:635,4
DA:636,4
DA:637,4
DA:638,4
DA:639,4
DA:640,4
DA:641,4
DA:642,4
DA:643,4
DA:644,4
DA:646,4
DA:647,4
DA:648,4
DA:649,4
DA:650,4
DA:651,4
DA:652,4
DA:653,4
DA:654,4
DA:655,4
DA:656,4
DA:658,4
DA:659,4
DA:660,4
DA:661,4
DA:663,4
DA:664,4
DA:665,4
DA:666,4
DA:667,4
DA:668,4
DA:669,4
DA:670,4
DA:671,4
DA:672,4
DA:673,4
DA:674,4
DA:675,4
DA:676,4
DA:677,4
DA:679,4
DA:681,1
DA:682,5
DA:684,8
DA:685,8
DA:686,8
DA:687,8
DA:688,8
DA:691,8
DA:692,4
DA:695,5
DA:697,4
DA:698,4
DA:699,4
DA:700,4
DA:701,4
DA:702,4
DA:703,4
DA:704,4
DA:705,4
DA:706,4
DA:707,4
DA:708,4
DA:709,4
DA:710,4
DA:713,1
DA:714,1
DA:715,1
DA:716,1
DA:719,5
DA:720,0
DA:723,1
DA:724,4
DA:727,5
DA:728,5
DA:729,5
DA:730,5
DA:731,5
DA:732,5
DA:733,5
DA:734,5
DA:735,5
DA:736,5
DA:737,5
DA:739,5
DA:740,5
DA:741,5
DA:742,5
DA:743,5
DA:744,5
DA:745,5
DA:746,5
DA:747,5
DA:748,5
DA:749,5
DA:750,5
DA:751,5
DA:752,5
DA:753,5
DA:754,5
DA:755,3
DA:756,3
DA:757,8
DA:761,174
DA:762,174
DA:763,174
DA:764,174
DA:765,174
DA:766,174
DA:768,174
DA:769,12
DA:772,12
DA:773,4
DA:774,4
DA:775,4
DA:776,4
DA:777,8
DA:780,12
DA:781,4
DA:782,8
DA:784,8
DA:785,5
DA:786,5
DA:788,174
DA:789,174
DA:793,174
DA:794,174
DA:795,174
DA:796,174
DA:797,174
DA:798,174
DA:799,174
DA:800,174
DA:801,166
DA:802,8
DA:805,8
DA:806,0
DA:807,8
DA:810,8
DA:811,8
DA:813,8
DA:815,8
DA:816,8
DA:817,8
DA:818,8
DA:819,8
DA:820,8
DA:821,8
DA:822,8
DA:823,8
DA:824,8
DA:825,8
DA:826,8
DA:827,8
DA:828,8
DA:829,8
DA:830,8
DA:831,0
DA:833,0
DA:834,174
DA:837,8
DA:839,8
DA:841,8
DA:843,6
DA:844,0
DA:845,6
DA:848,6
DA:849,6
DA:851,6
DA:852,6
DA:853,6
DA:854,6
DA:855,6
DA:856,6
DA:857,6
DA:858,6
DA:859,6
DA:860,6
DA:861,6
DA:862,6
DA:863,6
DA:864,6
DA:865,6
DA:866,6
DA:867,6
DA:868,0
DA:870,2
DA:873,8
DA:874,2
DA:875,2
DA:876,2
DA:877,2
DA:878,2
DA:879,2
DA:880,2
DA:881,2
DA:882,2
DA:883,2
DA:884,2
DA:885,2
DA:886,2
DA:887,2
DA:888,2
DA:889,2
DA:890,2
DA:891,2
DA:892,2
DA:893,2
DA:894,2
DA:895,2
DA:896,2
DA:897,2
DA:898,2
DA:899,2
DA:900,2
DA:901,2
DA:902,2
DA:903,2
DA:904,2
DA:905,2
DA:906,2
DA:907,2
DA:908,6
DA:909,8
DA:912,13
DA:914,13
DA:915,13
DA:916,13
DA:917,13
DA:918,13
DA:919,13
DA:920,13
DA:921,13
DA:922,13
DA:923,13
DA:924,13
DA:925,13
DA:926,13
DA:927,13
DA:928,13
DA:929,13
DA:932,31
DA:933,31
DA:935,17
DA:936,17
DA:937,7
DA:938,7
DA:939,7
DA:940,7
DA:941,10
DA:944,10
DA:945,10
DA:947,7
DA:948,3
DA:950,1
DA:951,2
DA:953,1
DA:956,1
DA:960,10
DA:961,9
DA:962,9
DA:963,9
DA:964,9
DA:965,1
DA:968,1
DA:969,0
DA:970,0
DA:971,0
DA:972,0
DA:973,1
DA:977,1
DA:978,1
DA:980,0
DA:983,1
DA:984,1
DA:985,1
DA:986,1
DA:987,14
DA:989,7
DA:990,7
DA:991,0
DA:993,7
DA:994,7
DA:995,7
DA:996,7
DA:999,7
DA:1000,7
DA:1001,7
DA:1002,7
DA:1004,31
DA:1007,25
DA:1008,25
DA:1009,25
DA:1010,25
DA:1011,25
DA:1012,25
DA:1013,25
DA:1014,25
DA:1015,25
DA:1016,25
DA:1017,25
DA:1018,25
DA:1019,25
DA:1020,25
DA:1021,25
DA:1023,25
DA:1024,25
DA:1025,25
DA:1026,25
DA:1027,25
DA:1028,25
DA:1029,25
DA:1030,25
DA:1031,25
DA:1032,25
DA:1033,25
DA:1034,25
DA:1043,1
DA:1044,1
DA:1045,1
DA:1046,1
DA:1047,1
DA:1048,1
DA:1049,1
DA:1050,1
DA:1051,1
DA:1052,1
DA:1053,1
DA:1055,1
DA:1056,1
DA:1057,1
DA:1058,1
DA:1060,1
DA:1061,1
DA:1062,1
DA:1063,1
DA:1065,1
DA:1066,1
DA:1067,1
DA:1070,1
DA:1073,1
DA:1074,1
DA:1075,1
DA:1078,1
DA:1079,1
DA:1081,1
DA:1082,1
DA:1083,1
DA:1084,1
DA:1085,1
DA:1086,1
DA:1087,1
DA:1088,1
DA:1089,1
DA:1090,1
DA:1092,1
DA:1093,1
DA:1094,1
DA:1096,0
DA:1098,1
DA:1101,1
DA:1102,1
DA:1103,1
DA:1105,1
DA:1106,1
DA:1107,1
DA:1108,1
DA:1109,1
DA:1110,1
DA:1111,1
DA:1112,1
DA:1113,1
DA:1114,1
DA:1116,1
DA:1117,1
DA:1118,1
DA:1124,0
DA:1126,1
DA:1129,1
DA:1130,1
DA:1131,1
DA:1133,1
DA:1134,1
DA:1135,1
DA:1136,1
DA:1137,1
DA:1138,1
DA:1139,1
DA:1140,1
DA:1141,1
DA:1142,1
DA:1144,1
DA:1145,1
DA:1146,1
DA:1152,0
DA:1154,1
DA:1157,1
DA:1158,1
DA:1159,1
DA:1162,1
DA:1163,1
DA:1164,1
DA:1165,1
DA:1166,1
DA:1167,1
DA:1168,1
DA:1169,1
DA:1170,1
DA:1171,1
DA:1173,1
DA:1174,1
DA:1175,1
DA:1177,0
DA:1179,1
DA:1182,1
DA:1183,1
DA:1185,1
DA:1187,1
DA:1188,1
DA:1189,1
DA:1190,1
DA:1191,1
DA:1192,1
DA:1193,1
DA:1194,1
DA:1195,1
DA:1196,1
DA:1198,1
DA:1199,1
DA:1200,1
DA:1206,0
DA:1208,1
DA:1211,1
DA:1212,1
DA:1215,1
DA:1216,1
DA:1217,1
DA:1218,1
DA:1219,1
DA:1220,1
DA:1221,1
DA:1222,1
DA:1223,1
DA:1224,1
DA:1226,1
DA:1227,1
DA:1228,1
DA:1234,0
DA:1236,1
DA:1239,1
DA:1240,1
DA:1241,1
DA:1242,1
DA:1243,1
DA:1244,1
DA:1245,1
DA:1246,1
DA:1247,1
DA:1248,1
DA:1249,1
DA:1250,1
DA:1251,1
DA:1252,1
DA:1254,1
DA:1255,1
DA:1256,1
DA:1257,1
DA:1260,1
DA:1261,1
DA:1263,1
DA:1265,1
DA:1266,1
DA:1267,1
DA:1268,1
DA:1269,1
DA:1270,1
DA:1271,1
DA:1272,1
DA:1273,1
DA:1274,1
DA:1275,1
DA:1276,1
DA:1277,1
DA:1279,1
DA:1285,1
DA:1286,1
DA:1294,1
DA:1296,1
DA:1297,1
DA:1299,1
DA:1300,1
DA:1301,1
DA:1302,1
DA:1303,1
DA:1304,1
DA:1305,1
DA:1306,1
DA:1307,1
DA:1308,1
DA:1309,1
DA:1310,1
DA:1316,1
DA:1317,1
DA:1318,1
DA:1319,1
DA:1320,1
DA:1321,1
DA:1322,1
DA:1323,1
DA:1324,1
DA:1327,1
DA:1328,1
DA:1331,1
DA:1332,1
DA:1333,1
DA:1334,1
DA:1335,1
DA:1336,1
DA:1337,1
DA:1338,1
DA:1339,1
DA:1342,1
DA:1343,1
DA:1344,1
DA:1345,1
DA:1346,1
DA:1347,1
DA:1348,1
DA:1349,1
DA:1350,1
DA:1351,1
DA:1353,1
DA:1354,1
DA:1355,1
DA:1356,1
DA:1358,1
DA:1360,1
DA:1361,1
DA:1362,1
DA:1366,0
DA:1368,1
DA:1371,1
DA:1373,1
DA:1374,1
DA:1376,1
DA:1377,1
DA:1378,1
DA:1379,1
DA:1380,1
DA:1381,1
DA:1382,1
DA:1383,1
DA:1384,1
DA:1385,1
DA:1386,1
DA:1387,1
DA:1390,1
DA:1391,1
DA:1394,1
DA:1395,1
DA:1396,1
DA:1397,1
DA:1398,1
DA:1399,1
DA:1400,1
DA:1401,1
DA:1402,1
DA:1405,1
DA:1406,1
DA:1407,1
DA:1408,1
DA:1409,1
DA:1410,1
DA:1411,1
DA:1412,1
DA:1413,1
DA:1414,1
DA:1416,1
DA:1417,1
DA:1418,1
DA:1419,1
DA:1421,1
DA:1423,1
DA:1424,1
DA:1425,1
DA:1427,0
DA:1429,1
DA:1432,1
DA:1434,1
DA:1435,1
DA:1437,1
DA:1438,1
DA:1439,1
DA:1440,1
DA:1441,1
DA:1442,1
DA:1443,1
DA:1444,1
DA:1445,1
DA:1446,1
DA:1447,1
DA:1448,1
DA:1451,1
DA:1452,1
DA:1453,1
DA:1454,1
DA:1455,1
DA:1456,1
DA:1457,1
DA:1458,1
DA:1459,1
DA:1462,1
DA:1463,1
DA:1464,1
DA:1465,1
DA:1466,1
DA:1467,1
DA:1468,1
DA:1469,1
DA:1470,1
DA:1473,1
DA:1474,1
DA:1475,1
DA:1476,1
DA:1477,1
DA:1478,1
DA:1479,1
DA:1480,1
DA:1481,1
DA:1482,1
DA:1484,1
DA:1485,1
DA:1486,1
DA:1487,1
DA:1489,1
DA:1492,1
DA:1493,1
DA:1495,1
DA:1498,1
DA:1500,1
DA:1502,1
DA:1504,0
DA:1507,0
DA:1509,1
DA:1512,1
DA:1513,1
DA:1514,1
DA:1517,1
DA:1519,1
DA:1520,1
DA:1521,1
DA:1524,1
DA:1525,1
DA:1526,1
DA:1527,1
DA:1528,1
DA:1529,1
DA:1530,1
DA:1533,1
DA:1536,1
DA:1537,1
DA:1538,1
DA:1540,0
DA:1542,1
BRF:0
BRH:0
LF:1004
LH:944
end_of_record
SF:/app/src/semantic/resolver.rs
FN:531,_RNCNvMs_NtNtCs4a0SCptkpqe_6glossa8semantic8resolverNtB6_5Scope15unused_bindings0Ba_
FN:532,_RNCNvMs_NtNtCs4a0SCptkpqe_6glossa8semantic8resolverNtB6_5Scope15unused_bindingss_0Ba_
FN:590,_RNCNvMs_NtNtCs4a0SCptkpqe_6glossa8semantic8resolverNtB6_5Scope6traits0Ba_
FN:347,_RINvMs_NtNtCs4a0SCptkpqe_6glossa8semantic8resolverNtB5_5Scope10define_mutNtCs36B3dAHZGhW_8smol_str7SmolStrEB9_
FN:347,_RINvMs_NtNtCs4a0SCptkpqe_6glossa8semantic8resolverNtB5_5Scope10define_mutNtNtCsauO83Ko6oyK_5alloc6string6StringEB9_
FN:162,_RINvMs_NtNtCs4a0SCptkpqe_6glossa8semantic8resolverNtB5_5Scope10with_scopeNCNvNtB7_12control_flow20parse_for_range_loop0INtNtCs4kUJL3MZFFz_4core6result6ResultINtNtCsauO83Ko6oyK_5alloc3vec3VecNtNtB7_5model17AnalyzedStatementENtNtB9_6errors11GlossaErrorEEB9_
FN:162,_RINvMs_NtNtCs4a0SCptkpqe_6glossa8semantic8resolverNtB5_5Scope10with_scopeNCNvNtB7_12control_flow24parse_for_iteration_loops_0INtNtCs4kUJL3MZFFz_4core6result6ResultINtNtCsauO83Ko6oyK_5alloc3vec3VecNtNtB7_5model17AnalyzedStatementENtNtB9_6errors11GlossaErrorEEB9_
FN:162,_RINvMs_NtNtCs4a0SCptkpqe_6glossa8semantic8resolverNtB5_5Scope10with_scopeNCNvNtB7_12declarations18analyze_trait_impls0_0INtNtCs4kUJL3MZFFz_4core6result6ResultINtNtCsauO83Ko6oyK_5alloc3vec3VecNtNtB7_5model17AnalyzedStatementENtNtB9_6errors11GlossaErrorEEB9_
FN:162,_RINvMs_NtNtCs4a0SCptkpqe_6glossa8semantic8resolverNtB5_5Scope10with_scopeNCNvNtB7_12declarations24analyze_test_declaration0INtNtCs4kUJL3MZFFz_4core6result6ResultINtNtCsauO83Ko6oyK_5alloc3vec3VecNtNtB7_5model17AnalyzedStatementENtNtB9_6errors11GlossaErrorEEB9_
FN:162,_RINvMs_NtNtCs4a0SCptkpqe_6glossa8semantic8resolverNtB5_5Scope10with_scopeNCNvNtB7_12declarations24analyze_trait_definition0INtNtCs4kUJL3MZFFz_4core6result6ResultINtNtCsauO83Ko6oyK_5alloc3vec3VecNtNtB7_5model17AnalyzedStatementENtNtB9_6errors11GlossaErrorEEB9_
FN:162,_RINvMs_NtNtCs4a0SCptkpqe_6glossa8semantic8resolverNtB5_5Scope10with_scopeNCNvNtB7_12declarations25parse_function_definition0INtNtCs4kUJL3MZFFz_4core6result6ResultINtNtCsauO83Ko6oyK_5alloc3vec3VecNtNtB7_5model17AnalyzedStatementENtNtB9_6errors11GlossaErrorEEB9_
FN:162,_RINvMs_NtNtCs4a0SCptkpqe_6glossa8semantic8resolverNtB5_5Scope10with_scopeNCNvNtB7_8analyzer27analyze_statement_recursives_0INtNtCs4kUJL3MZFFz_4core6result6ResultINtNtCsauO83Ko6oyK_5alloc3vec3VecNtNtB7_5model17AnalyzedStatementENtNtB9_6errors11GlossaErrorEEB9_
FN:219,_RINvMs_NtNtCs4a0SCptkpqe_6glossa8semantic8resolverNtB5_5Scope11define_typeNtCs36B3dAHZGhW_8smol_str7SmolStrEB9_
FN:234,_RINvMs_NtNtCs4a0SCptkpqe_6glossa8semantic8resolverNtB5_5Scope12define_traitNtCs36B3dAHZGhW_8smol_str7SmolStrEB9_
FN:186,_RINvMs_NtNtCs4a0SCptkpqe_6glossa8semantic8resolverNtB5_5Scope15define_functionNtCs36B3dAHZGhW_8smol_str7SmolStrEB9_
FN:330,_RINvMs_NtNtCs4a0SCptkpqe_6glossa8semantic8resolverNtB5_5Scope6defineNtCs36B3dAHZGhW_8smol_str7SmolStrEB9_
FN:330,_RINvMs_NtNtCs4a0SCptkpqe_6glossa8semantic8resolverNtB5_5Scope6defineNtNtCsauO83Ko6oyK_5alloc6string6StringEB9_
FN:319,_RNCNvMs_NtNtCs4a0SCptkpqe_6glossa8semantic8resolverNtB6_5Scope10has_method0Ba_
FN:435,_RNCNvMs_NtNtCs4a0SCptkpqe_6glossa8semantic8resolverNtB6_5Scope18is_defined_locally0Ba_
FN:570,_RNCNvMs_NtNtCs4a0SCptkpqe_6glossa8semantic8resolverNtB6_5Scope5types0Ba_
FN:480,_RNCNvMs_NtNtCs4a0SCptkpqe_6glossa8semantic8resolverNtB6_5Scope8bindings0Ba_
FN:551,_RNCNvMs_NtNtCs4a0SCptkpqe_6glossa8semantic8resolverNtB6_5Scope9functions0Ba_
FN:57,_RNvMNtNtCs4a0SCptkpqe_6glossa8semantic8resolverNtB2_10ScopeLevel3new
FN:309,_RNvMs_NtNtCs4a0SCptkpqe_6glossa8semantic8resolverNtB4_5Scope10has_method
FN:455,_RNvMs_NtNtCs4a0SCptkpqe_6glossa8semantic8resolverNtB4_5Scope10is_defined
FN:204,_RNvMs_NtNtCs4a0SCptkpqe_6glossa8semantic8resolverNtB4_5Scope11is_function
FN:224,_RNvMs_NtNtCs4a0SCptkpqe_6glossa8semantic8resolverNtB4_5Scope11lookup_type
FN:243,_RNvMs_NtNtCs4a0SCptkpqe_6glossa8semantic8resolverNtB4_5Scope12lookup_trait
FN:179,_RNvMs_NtNtCs4a0SCptkpqe_6glossa8semantic8resolverNtB4_5Scope13current_level
FN:408,_RNvMs_NtNtCs4a0SCptkpqe_6glossa8semantic8resolverNtB4_5Scope14lookup_binding
FN:209,_RNvMs_NtNtCs4a0SCptkpqe_6glossa8semantic8resolverNtB4_5Scope15lookup_function
FN:361,_RNvMs_NtNtCs4a0SCptkpqe_6glossa8semantic8resolverNtB4_5Scope15lookup_variable
FN:528,_RNvMs_NtNtCs4a0SCptkpqe_6glossa8semantic8resolverNtB4_5Scope15unused_bindings
FN:258,_RNvMs_NtNtCs4a0SCptkpqe_6glossa8semantic8resolverNtB4_5Scope17lookup_trait_impl
FN:432,_RNvMs_NtNtCs4a0SCptkpqe_6glossa8semantic8resolverNtB4_5Scope18is_defined_locally
FN:253,_RNvMs_NtNtCs4a0SCptkpqe_6glossa8semantic8resolverNtB4_5Scope19register_trait_impl
FN:127,_RNvMs_NtNtCs4a0SCptkpqe_6glossa8semantic8resolverNtB4_5Scope3new
FN:173,_RNvMs_NtNtCs4a0SCptkpqe_6glossa8semantic8resolverNtB4_5Scope4exit
FN:134,_RNvMs_NtNtCs4a0SCptkpqe_6glossa8semantic8resolverNtB4_5Scope5enter
FN:569,_RNvMs_NtNtCs4a0SCptkpqe_6glossa8semantic8resolverNtB4_5Scope5types
FN:387,_RNvMs_NtNtCs4a0SCptkpqe_6glossa8semantic8resolverNtB4_5Scope6lookup
FN:589,_RNvMs_NtNtCs4a0SCptkpqe_6glossa8semantic8resolverNtB4_5Scope6traits
FN:479,_RNvMs_NtNtCs4a0SCptkpqe_6glossa8semantic8resolverNtB4_5Scope8bindings
FN:550,_RNvMs_NtNtCs4a0SCptkpqe_6glossa8semantic8resolverNtB4_5Scope9functions
FN:500,_RNvMs_NtNtCs4a0SCptkpqe_6glossa8semantic8resolverNtB4_5Scope9mark_used
FN:595,_RNvXs0_NtNtCs4a0SCptkpqe_6glossa8semantic8resolverNtB5_5ScopeNtNtCs4kUJL3MZFFz_4core7default7Default7default
FN:435,_RNCNvMs_NtNtCs14PW5HJOtOs_6glossa8semantic8resolverNtB6_5Scope18is_defined_locally0Ba_
FN:258,_RNvMs_NtNtCs14PW5HJOtOs_6glossa8semantic8resolverNtB4_5Scope17lookup_trait_impl
FN:432,_RNvMs_NtNtCs14PW5HJOtOs_6glossa8semantic8resolverNtB4_5Scope18is_defined_locally
FN:595,_RNvXs0_NtNtCs14PW5HJOtOs_6glossa8semantic8resolverNtB5_5ScopeNtNtCs4kUJL3MZFFz_4core7default7Default7default
FN:693,_RNvNtNtNtCs14PW5HJOtOs_6glossa8semantic8resolver5testss_14test_mark_used
FN:671,_RNvNtNtNtCs14PW5HJOtOs_6glossa8semantic8resolver5testss_20test_enter_shadowing
FN:684,_RNvNtNtNtCs14PW5HJOtOs_6glossa8semantic8resolver5testss_20test_mutable_binding
FN:708,_RNvNtNtNtCs14PW5HJOtOs_6glossa8semantic8resolver5testss_20test_unused_bindings
FN:656,_RNvNtNtNtCs14PW5HJOtOs_6glossa8semantic8resolver5testss_21test_enter_exit_scope
FN:626,_RNvNtNtNtCs14PW5HJOtOs_6glossa8semantic8resolver5testss_24test_child_scope_shadows
FN:817,_RNvNtNtNtCs14PW5HJOtOs_6glossa8semantic8resolver5testss_24test_scope_type_coverage
FN:615,_RNvNtNtNtCs14PW5HJOtOs_6glossa8semantic8resolver5testss_25test_child_scope_inherits
FN:779,_RNvNtNtNtCs14PW5HJOtOs_6glossa8semantic8resolver5testss_25test_scope_trait_coverage
FN:760,_RNvNtNtNtCs14PW5HJOtOs_6glossa8semantic8resolver5testss_27test_shadowing_across_types
FN:605,_RNvNtNtNtCs14PW5HJOtOs_6glossa8semantic8resolver5testss_28test_scope_define_and_lookup
FN:798,_RNvNtNtNtCs14PW5HJOtOs_6glossa8semantic8resolver5testss_28test_scope_function_coverage
FN:731,_RNvNtNtNtCs14PW5HJOtOs_6glossa8semantic8resolver5testss_29test_lookup_binding_immutable
FN:754,_RNvNtNtNtCs14PW5HJOtOs_6glossa8semantic8resolver5testss_29test_lookup_binding_not_found
FN:742,_RNvNtNtNtCs14PW5HJOtOs_6glossa8semantic8resolver5testss_32test_lookup_binding_parent_scope
FN:637,_RNvNtNtNtCs14PW5HJOtOs_6glossa8semantic8resolver5testss_36test_scope_exit_underflow_protection
FN:831,_RNvNtNtNtCs14PW5HJOtOs_6glossa8semantic8resolver5testss_37test_scope_mixed_namespace_collisions
FN:720,_RNvNtNtNtCs14PW5HJOtOs_6glossa8semantic8resolver5testss_40test_lookup_binding_returns_full_binding
FN:57,_RNvMNtNtCs14PW5HJOtOs_6glossa8semantic8resolverNtB2_10ScopeLevel3new
FN:309,_RNvMs_NtNtCs14PW5HJOtOs_6glossa8semantic8resolverNtB4_5Scope10has_method
FN:455,_RNvMs_NtNtCs14PW5HJOtOs_6glossa8semantic8resolverNtB4_5Scope10is_defined
FN:204,_RNvMs_NtNtCs14PW5HJOtOs_6glossa8semantic8resolverNtB4_5Scope11is_function
FN:224,_RNvMs_NtNtCs14PW5HJOtOs_6glossa8semantic8resolverNtB4_5Scope11lookup_type
FN:243,_RNvMs_NtNtCs14PW5HJOtOs_6glossa8semantic8resolverNtB4_5Scope12lookup_trait
FN:179,_RNvMs_NtNtCs14PW5HJOtOs_6glossa8semantic8resolverNtB4_5Scope13current_level
FN:408,_RNvMs_NtNtCs14PW5HJOtOs_6glossa8semantic8resolverNtB4_5Scope14lookup_binding
FN:209,_RNvMs_NtNtCs14PW5HJOtOs_6glossa8semantic8resolverNtB4_5Scope15lookup_function
FN:361,_RNvMs_NtNtCs14PW5HJOtOs_6glossa8semantic8resolverNtB4_5Scope15lookup_variable
FN:528,_RNvMs_NtNtCs14PW5HJOtOs_6glossa8semantic8resolverNtB4_5Scope15unused_bindings
FN:253,_RNvMs_NtNtCs14PW5HJOtOs_6glossa8semantic8resolverNtB4_5Scope19register_trait_impl
FN:127,_RNvMs_NtNtCs14PW5HJOtOs_6glossa8semantic8resolverNtB4_5Scope3new
FN:173,_RNvMs_NtNtCs14PW5HJOtOs_6glossa8semantic8resolverNtB4_5Scope4exit
FN:134,_RNvMs_NtNtCs14PW5HJOtOs_6glossa8semantic8resolverNtB4_5Scope5enter
FN:569,_RNvMs_NtNtCs14PW5HJOtOs_6glossa8semantic8resolverNtB4_5Scope5types
FN:387,_RNvMs_NtNtCs14PW5HJOtOs_6glossa8semantic8resolverNtB4_5Scope6lookup
FN:589,_RNvMs_NtNtCs14PW5HJOtOs_6glossa8semantic8resolverNtB4_5Scope6traits
FN:479,_RNvMs_NtNtCs14PW5HJOtOs_6glossa8semantic8resolverNtB4_5Scope8bindings
FN:550,_RNvMs_NtNtCs14PW5HJOtOs_6glossa8semantic8resolverNtB4_5Scope9functions
FN:500,_RNvMs_NtNtCs14PW5HJOtOs_6glossa8semantic8resolverNtB4_5Scope9mark_used
FN:630,_RNCNvNtNtNtCs14PW5HJOtOs_6glossa8semantic8resolver5testss_24test_child_scope_shadows0B9_
FN:824,_RNCNvNtNtNtCs14PW5HJOtOs_6glossa8semantic8resolver5testss_24test_scope_type_coverage0B9_
FN:619,_RNCNvNtNtNtCs14PW5HJOtOs_6glossa8semantic8resolver5testss_25test_child_scope_inherits0B9_
FN:791,_RNCNvNtNtNtCs14PW5HJOtOs_6glossa8semantic8resolver5testss_25test_scope_trait_coverage0B9_
FN:810,_RNCNvNtNtNtCs14PW5HJOtOs_6glossa8semantic8resolver5testss_28test_scope_function_coverage0B9_
FN:746,_RNCNvNtNtNtCs14PW5HJOtOs_6glossa8semantic8resolver5testss_32test_lookup_binding_parent_scope0B9_
FN:347,_RINvMs_NtNtCs14PW5HJOtOs_6glossa8semantic8resolverNtB5_5Scope10define_mutNtCs36B3dAHZGhW_8smol_str7SmolStrEB9_
FN:347,_RINvMs_NtNtCs14PW5HJOtOs_6glossa8semantic8resolverNtB5_5Scope10define_mutNtNtCsauO83Ko6oyK_5alloc6string6StringEB9_
FN:347,_RINvMs_NtNtCs14PW5HJOtOs_6glossa8semantic8resolverNtB5_5Scope10define_mutReEB9_
FN:162,_RINvMs_NtNtCs14PW5HJOtOs_6glossa8semantic8resolverNtB5_5Scope10with_scopeNCNvNtB5_5testss_24test_child_scope_shadows0uEB9_
FN:162,_RINvMs_NtNtCs14PW5HJOtOs_6glossa8semantic8resolverNtB5_5Scope10with_scopeNCNvNtB5_5testss_25test_child_scope_inherits0uEB9_
FN:162,_RINvMs_NtNtCs14PW5HJOtOs_6glossa8semantic8resolverNtB5_5Scope10with_scopeNCNvNtB5_5testss_32test_lookup_binding_parent_scope0uEB9_
FN:162,_RINvMs_NtNtCs14PW5HJOtOs_6glossa8semantic8resolverNtB5_5Scope10with_scopeNCNvNtB7_12control_flow20parse_for_range_loop0INtNtCs4kUJL3MZFFz_4core6result6ResultINtNtCsauO83Ko6oyK_5alloc3vec3VecNtNtB7_5model17AnalyzedStatementENtNtB9_6errors11GlossaErrorEEB9_
FN:162,_RINvMs_NtNtCs14PW5HJOtOs_6glossa8semantic8resolverNtB5_5Scope10with_scopeNCNvNtB7_12control_flow24parse_for_iteration_loops_0INtNtCs4kUJL3MZFFz_4core6result6ResultINtNtCsauO83Ko6oyK_5alloc3vec3VecNtNtB7_5model17AnalyzedStatementENtNtB9_6errors11GlossaErrorEEB9_
FN:162,_RINvMs_NtNtCs14PW5HJOtOs_6glossa8semantic8resolverNtB5_5Scope10with_scopeNCNvNtB7_12declarations18analyze_trait_impls0_0INtNtCs4kUJL3MZFFz_4core6result6ResultINtNtCsauO83Ko6oyK_5alloc3vec3VecNtNtB7_5model17AnalyzedStatementENtNtB9_6errors11GlossaErrorEEB9_
FN:162,_RINvMs_NtNtCs14PW5HJOtOs_6glossa8semantic8resolverNtB5_5Scope10with_scopeNCNvNtB7_12declarations24analyze_test_declaration0INtNtCs4kUJL3MZFFz_4core6result6ResultINtNtCsauO83Ko6oyK_5alloc3vec3VecNtNtB7_5model17AnalyzedStatementENtNtB9_6errors11GlossaErrorEEB9_
FN:162,_RINvMs_NtNtCs14PW5HJOtOs_6glossa8semantic8resolverNtB5_5Scope10with_scopeNCNvNtB7_12declarations24analyze_trait_definition0INtNtCs4kUJL3MZFFz_4core6result6ResultINtNtCsauO83Ko6oyK_5alloc3vec3VecNtNtB7_5model17AnalyzedStatementENtNtB9_6errors11GlossaErrorEEB9_
FN:162,_RINvMs_NtNtCs14PW5HJOtOs_6glossa8semantic8resolverNtB5_5Scope10with_scopeNCNvNtB7_12declarations25parse_function_definition0INtNtCs4kUJL3MZFFz_4core6result6ResultINtNtCsauO83Ko6oyK_5alloc3vec3VecNtNtB7_5model17AnalyzedStatementENtNtB9_6errors11GlossaErrorEEB9_
FN:162,_RINvMs_NtNtCs14PW5HJOtOs_6glossa8semantic8resolverNtB5_5Scope10with_scopeNCNvNtB7_8analyzer27analyze_statement_recursives_0INtNtCs4kUJL3MZFFz_4core6result6ResultINtNtCsauO83Ko6oyK_5alloc3vec3VecNtNtB7_5model17AnalyzedStatementENtNtB9_6errors11GlossaErrorEEB9_
FN:219,_RINvMs_NtNtCs14PW5HJOtOs_6glossa8semantic8resolverNtB5_5Scope11define_typeNtCs36B3dAHZGhW_8smol_str7SmolStrEB9_
FN:219,_RINvMs_NtNtCs14PW5HJOtOs_6glossa8semantic8resolverNtB5_5Scope11define_typeNtNtCsauO83Ko6oyK_5alloc6string6StringEB9_
FN:219,_RINvMs_NtNtCs14PW5HJOtOs_6glossa8semantic8resolverNtB5_5Scope11define_typeReEB9_
FN:234,_RINvMs_NtNtCs14PW5HJOtOs_6glossa8semantic8resolverNtB5_5Scope12define_traitNtCs36B3dAHZGhW_8smol_str7SmolStrEB9_
FN:234,_RINvMs_NtNtCs14PW5HJOtOs_6glossa8semantic8resolverNtB5_5Scope12define_traitNtNtCsauO83Ko6oyK_5alloc6string6StringEB9_
FN:186,_RINvMs_NtNtCs14PW5HJOtOs_6glossa8semantic8resolverNtB5_5Scope15define_functionNtCs36B3dAHZGhW_8smol_str7SmolStrEB9_
FN:186,_RINvMs_NtNtCs14PW5HJOtOs_6glossa8semantic8resolverNtB5_5Scope15define_functionNtNtCsauO83Ko6oyK_5alloc6string6StringEB9_
FN:186,_RINvMs_NtNtCs14PW5HJOtOs_6glossa8semantic8resolverNtB5_5Scope15define_functionReEB9_
FN:330,_RINvMs_NtNtCs14PW5HJOtOs_6glossa8semantic8resolverNtB5_5Scope6defineNtCs36B3dAHZGhW_8smol_str7SmolStrEB9_
FN:330,_RINvMs_NtNtCs14PW5HJOtOs_6glossa8semantic8resolverNtB5_5Scope6defineNtNtCsauO83Ko6oyK_5alloc6string6StringEB9_
FN:330,_RINvMs_NtNtCs14PW5HJOtOs_6glossa8semantic8resolverNtB5_5Scope6defineReEB9_
FN:319,_RNCNvMs_NtNtCs14PW5HJOtOs_6glossa8semantic8resolverNtB6_5Scope10has_method0Ba_
FN:531,_RNCNvMs_NtNtCs14PW5HJOtOs_6glossa8semantic8resolverNtB6_5Scope15unused_bindings0Ba_
FN:532,_RNCNvMs_NtNtCs14PW5HJOtOs_6glossa8semantic8resolverNtB6_5Scope15unused_bindingss_0Ba_
FN:570,_RNCNvMs_NtNtCs14PW5HJOtOs_6glossa8semantic8resolverNtB6_5Scope5types0Ba_
FN:590,_RNCNvMs_NtNtCs14PW5HJOtOs_6glossa8semantic8resolverNtB6_5Scope6traits0Ba_
FN:480,_RNCNvMs_NtNtCs14PW5HJOtOs_6glossa8semantic8resolverNtB6_5Scope8bindings0Ba_
FN:551,_RNCNvMs_NtNtCs14PW5HJOtOs_6glossa8semantic8resolverNtB6_5Scope9functions0Ba_
FN:330,_RINvMs_NtNtCs4a0SCptkpqe_6glossa8semantic8resolverNtB5_5Scope6defineReECsiXBycVmUcyn_19sentry_codegen_perf
FNDA:0,_RNCNvMs_NtNtCs4a0SCptkpqe_6glossa8semantic8resolverNtB6_5Scope15unused_bindings0Ba_
FNDA:0,_RNCNvMs_NtNtCs4a0SCptkpqe_6glossa8semantic8resolverNtB6_5Scope15unused_bindingss_0Ba_
FNDA:0,_RNCNvMs_NtNtCs4a0SCptkpqe_6glossa8semantic8resolverNtB6_5Scope6traits0Ba_
FNDA:9,_RINvMs_NtNtCs4a0SCptkpqe_6glossa8semantic8resolverNtB5_5Scope10define_mutNtCs36B3dAHZGhW_8smol_str7SmolStrEB9_
FNDA:6,_RINvMs_NtNtCs4a0SCptkpqe_6glossa8semantic8resolverNtB5_5Scope10define_mutNtNtCsauO83Ko6oyK_5alloc6string6StringEB9_
FNDA:6,_RINvMs_NtNtCs4a0SCptkpqe_6glossa8semantic8resolverNtB5_5Scope10with_scopeNCNvNtB7_12control_flow20parse_for_range_loop0INtNtCs4kUJL3MZFFz_4core6result6ResultINtNtCsauO83Ko6oyK_5alloc3vec3VecNtNtB7_5model17AnalyzedStatementENtNtB9_6errors11GlossaErrorEEB9_
FNDA:3,_RINvMs_NtNtCs4a0SCptkpqe_6glossa8semantic8resolverNtB5_5Scope10with_scopeNCNvNtB7_12control_flow24parse_for_iteration_loops_0INtNtCs4kUJL3MZFFz_4core6result6ResultINtNtCsauO83Ko6oyK_5alloc3vec3VecNtNtB7_5model17AnalyzedStatementENtNtB9_6errors11GlossaErrorEEB9_
FNDA:18,_RINvMs_NtNtCs4a0SCptkpqe_6glossa8semantic8resolverNtB5_5Scope10with_scopeNCNvNtB7_12declarations18analyze_trait_impls0_0INtNtCs4kUJL3MZFFz_4core6result6ResultINtNtCsauO83Ko6oyK_5alloc3vec3VecNtNtB7_5model17AnalyzedStatementENtNtB9_6errors11GlossaErrorEEB9_
FNDA:9,_RINvMs_NtNtCs4a0SCptkpqe_6glossa8semantic8resolverNtB5_5Scope10with_scopeNCNvNtB7_12declarations24analyze_test_declaration0INtNtCs4kUJL3MZFFz_4core6result6ResultINtNtCsauO83Ko6oyK_5alloc3vec3VecNtNtB7_5model17AnalyzedStatementENtNtB9_6errors11GlossaErrorEEB9_
FNDA:6,_RINvMs_NtNtCs4a0SCptkpqe_6glossa8semantic8resolverNtB5_5Scope10with_scopeNCNvNtB7_12declarations24analyze_trait_definition0INtNtCs4kUJL3MZFFz_4core6result6ResultINtNtCsauO83Ko6oyK_5alloc3vec3VecNtNtB7_5model17AnalyzedStatementENtNtB9_6errors11GlossaErrorEEB9_
FNDA:18,_RINvMs_NtNtCs4a0SCptkpqe_6glossa8semantic8resolverNtB5_5Scope10with_scopeNCNvNtB7_12declarations25parse_function_definition0INtNtCs4kUJL3MZFFz_4core6result6ResultINtNtCsauO83Ko6oyK_5alloc3vec3VecNtNtB7_5model17AnalyzedStatementENtNtB9_6errors11GlossaErrorEEB9_
FNDA:3,_RINvMs_NtNtCs4a0SCptkpqe_6glossa8semantic8resolverNtB5_5Scope10with_scopeNCNvNtB7_8analyzer27analyze_statement_recursives_0INtNtCs4kUJL3MZFFz_4core6result6ResultINtNtCsauO83Ko6oyK_5alloc3vec3VecNtNtB7_5model17AnalyzedStatementENtNtB9_6errors11GlossaErrorEEB9_
FNDA:71,_RINvMs_NtNtCs4a0SCptkpqe_6glossa8semantic8resolverNtB5_5Scope11define_typeNtCs36B3dAHZGhW_8smol_str7SmolStrEB9_
FNDA:26,_RINvMs_NtNtCs4a0SCptkpqe_6glossa8semantic8resolverNtB5_5Scope12define_traitNtCs36B3dAHZGhW_8smol_str7SmolStrEB9_
FNDA:18,_RINvMs_NtNtCs4a0SCptkpqe_6glossa8semantic8resolverNtB5_5Scope15define_functionNtCs36B3dAHZGhW_8smol_str7SmolStrEB9_
FNDA:69,_RINvMs_NtNtCs4a0SCptkpqe_6glossa8semantic8resolverNtB5_5Scope6defineNtCs36B3dAHZGhW_8smol_str7SmolStrEB9_
FNDA:198,_RINvMs_NtNtCs4a0SCptkpqe_6glossa8semantic8resolverNtB5_5Scope6defineNtNtCsauO83Ko6oyK_5alloc6string6StringEB9_
FNDA:1,_RNCNvMs_NtNtCs4a0SCptkpqe_6glossa8semantic8resolverNtB6_5Scope10has_method0Ba_
FNDA:0,_RNCNvMs_NtNtCs4a0SCptkpqe_6glossa8semantic8resolverNtB6_5Scope18is_defined_locally0Ba_
FNDA:0,_RNCNvMs_NtNtCs4a0SCptkpqe_6glossa8semantic8resolverNtB6_5Scope5types0Ba_
FNDA:0,_RNCNvMs_NtNtCs4a0SCptkpqe_6glossa8semantic8resolverNtB6_5Scope8bindings0Ba_
FNDA:0,_RNCNvMs_NtNtCs4a0SCptkpqe_6glossa8semantic8resolverNtB6_5Scope9functions0Ba_
FNDA:607,_RNvMNtNtCs4a0SCptkpqe_6glossa8semantic8resolverNtB2_10ScopeLevel3new
FNDA:1,_RNvMs_NtNtCs4a0SCptkpqe_6glossa8semantic8resolverNtB4_5Scope10has_method
FNDA:15,_RNvMs_NtNtCs4a0SCptkpqe_6glossa8semantic8resolverNtB4_5Scope10is_defined
FNDA:67,_RNvMs_NtNtCs4a0SCptkpqe_6glossa8semantic8resolverNtB4_5Scope11is_function
FNDA:48,_RNvMs_NtNtCs4a0SCptkpqe_6glossa8semantic8resolverNtB4_5Scope11lookup_type
FNDA:55,_RNvMs_NtNtCs4a0SCptkpqe_6glossa8semantic8resolverNtB4_5Scope12lookup_trait
FNDA:415,_RNvMs_NtNtCs4a0SCptkpqe_6glossa8semantic8resolverNtB4_5Scope13current_level
FNDA:7,_RNvMs_NtNtCs4a0SCptkpqe_6glossa8semantic8resolverNtB4_5Scope14lookup_binding
FNDA:77,_RNvMs_NtNtCs4a0SCptkpqe_6glossa8semantic8resolverNtB4_5Scope15lookup_function
FNDA:275,_RNvMs_NtNtCs4a0SCptkpqe_6glossa8semantic8resolverNtB4_5Scope15lookup_variable
FNDA:0,_RNvMs_NtNtCs4a0SCptkpqe_6glossa8semantic8resolverNtB4_5Scope15unused_bindings
FNDA:0,_RNvMs_NtNtCs4a0SCptkpqe_6glossa8semantic8resolverNtB4_5Scope17lookup_trait_impl
FNDA:0,_RNvMs_NtNtCs4a0SCptkpqe_6glossa8semantic8resolverNtB4_5Scope18is_defined_locally
FNDA:17,_RNvMs_NtNtCs4a0SCptkpqe_6glossa8semantic8resolverNtB4_5Scope19register_trait_impl
FNDA:544,_RNvMs_NtNtCs4a0SCptkpqe_6glossa8semantic8resolverNtB4_5Scope3new
FNDA:63,_RNvMs_NtNtCs4a0SCptkpqe_6glossa8semantic8resolverNtB4_5Scope4exit
FNDA:63,_RNvMs_NtNtCs4a0SCptkpqe_6glossa8semantic8resolverNtB4_5Scope5enter
FNDA:0,_RNvMs_NtNtCs4a0SCptkpqe_6glossa8semantic8resolverNtB4_5Scope5types
FNDA:253,_RNvMs_NtNtCs4a0SCptkpqe_6glossa8semantic8resolverNtB4_5Scope6lookup
FNDA:0,_RNvMs_NtNtCs4a0SCptkpqe_6glossa8semantic8resolverNtB4_5Scope6traits
FNDA:0,_RNvMs_NtNtCs4a0SCptkpqe_6glossa8semantic8resolverNtB4_5Scope8bindings
FNDA:0,_RNvMs_NtNtCs4a0SCptkpqe_6glossa8semantic8resolverNtB4_5Scope9functions
FNDA:4,_RNvMs_NtNtCs4a0SCptkpqe_6glossa8semantic8resolverNtB4_5Scope9mark_used
FNDA:1,_RNvXs0_NtNtCs4a0SCptkpqe_6glossa8semantic8resolverNtB5_5ScopeNtNtCs4kUJL3MZFFz_4core7default7Default7default
FNDA:0,_RNCNvMs_NtNtCs14PW5HJOtOs_6glossa8semantic8resolverNtB6_5Scope18is_defined_locally0Ba_
FNDA:0,_RNvMs_NtNtCs14PW5HJOtOs_6glossa8semantic8resolverNtB4_5Scope17lookup_trait_impl
FNDA:0,_RNvMs_NtNtCs14PW5HJOtOs_6glossa8semantic8resolverNtB4_5Scope18is_defined_locally
FNDA:0,_RNvXs0_NtNtCs14PW5HJOtOs_6glossa8semantic8resolverNtB5_5ScopeNtNtCs4kUJL3MZFFz_4core7default7Default7default
FNDA:1,_RNvNtNtNtCs14PW5HJOtOs_6glossa8semantic8resolver5testss_14test_mark_used
FNDA:1,_RNvNtNtNtCs14PW5HJOtOs_6glossa8semantic8resolver5testss_20test_enter_shadowing
FNDA:1,_RNvNtNtNtCs14PW5HJOtOs_6glossa8semantic8resolver5testss_20test_mutable_binding
FNDA:1,_RNvNtNtNtCs14PW5HJOtOs_6glossa8semantic8resolver5testss_20test_unused_bindings
FNDA:1,_RNvNtNtNtCs14PW5HJOtOs_6glossa8semantic8resolver5testss_21test_enter_exit_scope
FNDA:1,_RNvNtNtNtCs14PW5HJOtOs_6glossa8semantic8resolver5testss_24test_child_scope_shadows
FNDA:1,_RNvNtNtNtCs14PW5HJOtOs_6glossa8semantic8resolver5testss_24test_scope_type_coverage
FNDA:1,_RNvNtNtNtCs14PW5HJOtOs_6glossa8semantic8resolver5testss_25test_child_scope_inherits
FNDA:1,_RNvNtNtNtCs14PW5HJOtOs_6glossa8semantic8resolver5testss_25test_scope_trait_coverage
FNDA:1,_RNvNtNtNtCs14PW5HJOtOs_6glossa8semantic8resolver5testss_27test_shadowing_across_types
FNDA:1,_RNvNtNtNtCs14PW5HJOtOs_6glossa8semantic8resolver5testss_28test_scope_define_and_lookup
FNDA:1,_RNvNtNtNtCs14PW5HJOtOs_6glossa8semantic8resolver5testss_28test_scope_function_coverage
FNDA:1,_RNvNtNtNtCs14PW5HJOtOs_6glossa8semantic8resolver5testss_29test_lookup_binding_immutable
FNDA:1,_RNvNtNtNtCs14PW5HJOtOs_6glossa8semantic8resolver5testss_29test_lookup_binding_not_found
FNDA:1,_RNvNtNtNtCs14PW5HJOtOs_6glossa8semantic8resolver5testss_32test_lookup_binding_parent_scope
FNDA:1,_RNvNtNtNtCs14PW5HJOtOs_6glossa8semantic8resolver5testss_36test_scope_exit_underflow_protection
FNDA:1,_RNvNtNtNtCs14PW5HJOtOs_6glossa8semantic8resolver5testss_37test_scope_mixed_namespace_collisions
FNDA:1,_RNvNtNtNtCs14PW5HJOtOs_6glossa8semantic8resolver5testss_40test_lookup_binding_returns_full_binding
FNDA:272,_RNvMNtNtCs14PW5HJOtOs_6glossa8semantic8resolverNtB2_10ScopeLevel3new
FNDA:0,_RNvMs_NtNtCs14PW5HJOtOs_6glossa8semantic8resolverNtB4_5Scope10has_method
FNDA:38,_RNvMs_NtNtCs14PW5HJOtOs_6glossa8semantic8resolverNtB4_5Scope10is_defined
FNDA:9,_RNvMs_NtNtCs14PW5HJOtOs_6glossa8semantic8resolverNtB4_5Scope11is_function
FNDA:20,_RNvMs_NtNtCs14PW5HJOtOs_6glossa8semantic8resolverNtB4_5Scope11lookup_type
FNDA:16,_RNvMs_NtNtCs14PW5HJOtOs_6glossa8semantic8resolverNtB4_5Scope12lookup_trait
FNDA:1426,_RNvMs_NtNtCs14PW5HJOtOs_6glossa8semantic8resolverNtB4_5Scope13current_level
FNDA:10,_RNvMs_NtNtCs14PW5HJOtOs_6glossa8semantic8resolverNtB4_5Scope14lookup_binding
FNDA:28,_RNvMs_NtNtCs14PW5HJOtOs_6glossa8semantic8resolverNtB4_5Scope15lookup_function
FNDA:157,_RNvMs_NtNtCs14PW5HJOtOs_6glossa8semantic8resolverNtB4_5Scope15lookup_variable
FNDA:1,_RNvMs_NtNtCs14PW5HJOtOs_6glossa8semantic8resolverNtB4_5Scope15unused_bindings
FNDA:0,_RNvMs_NtNtCs14PW5HJOtOs_6glossa8semantic8resolverNtB4_5Scope19register_trait_impl
FNDA:267,_RNvMs_NtNtCs14PW5HJOtOs_6glossa8semantic8resolverNtB4_5Scope3new
FNDA:8,_RNvMs_NtNtCs14PW5HJOtOs_6glossa8semantic8resolverNtB4_5Scope4exit
FNDA:5,_RNvMs_NtNtCs14PW5HJOtOs_6glossa8semantic8resolverNtB4_5Scope5enter
FNDA:7,_RNvMs_NtNtCs14PW5HJOtOs_6glossa8semantic8resolverNtB4_5Scope5types
FNDA:109,_RNvMs_NtNtCs14PW5HJOtOs_6glossa8semantic8resolverNtB4_5Scope6lookup
FNDA:1,_RNvMs_NtNtCs14PW5HJOtOs_6glossa8semantic8resolverNtB4_5Scope6traits
FNDA:3,_RNvMs_NtNtCs14PW5HJOtOs_6glossa8semantic8resolverNtB4_5Scope8bindings
FNDA:9,_RNvMs_NtNtCs14PW5HJOtOs_6glossa8semantic8resolverNtB4_5Scope9functions
FNDA:2,_RNvMs_NtNtCs14PW5HJOtOs_6glossa8semantic8resolverNtB4_5Scope9mark_used
FNDA:1,_RNCNvNtNtNtCs14PW5HJOtOs_6glossa8semantic8resolver5testss_24test_child_scope_shadows0B9_
FNDA:1,_RNCNvNtNtNtCs14PW5HJOtOs_6glossa8semantic8resolver5testss_24test_scope_type_coverage0B9_
FNDA:1,_RNCNvNtNtNtCs14PW5HJOtOs_6glossa8semantic8resolver5testss_25test_child_scope_inherits0B9_
FNDA:1,_RNCNvNtNtNtCs14PW5HJOtOs_6glossa8semantic8resolver5testss_25test_scope_trait_coverage0B9_
FNDA:1,_RNCNvNtNtNtCs14PW5HJOtOs_6glossa8semantic8resolver5testss_28test_scope_function_coverage0B9_
FNDA:1,_RNCNvNtNtNtCs14PW5HJOtOs_6glossa8semantic8resolver5testss_32test_lookup_binding_parent_scope0B9_
FNDA:0,_RINvMs_NtNtCs14PW5HJOtOs_6glossa8semantic8resolverNtB5_5Scope10define_mutNtCs36B3dAHZGhW_8smol_str7SmolStrEB9_
FNDA:4,_RINvMs_NtNtCs14PW5HJOtOs_6glossa8semantic8resolverNtB5_5Scope10define_mutNtNtCsauO83Ko6oyK_5alloc6string6StringEB9_
FNDA:1,_RINvMs_NtNtCs14PW5HJOtOs_6glossa8semantic8resolverNtB5_5Scope10define_mutReEB9_
FNDA:1,_RINvMs_NtNtCs14PW5HJOtOs_6glossa8semantic8resolverNtB5_5Scope10with_scopeNCNvNtB5_5testss_24test_child_scope_shadows0uEB9_
FNDA:1,_RINvMs_NtNtCs14PW5HJOtOs_6glossa8semantic8resolverNtB5_5Scope10with_scopeNCNvNtB5_5testss_25test_child_scope_inherits0uEB9_
FNDA:1,_RINvMs_NtNtCs14PW5HJOtOs_6glossa8semantic8resolverNtB5_5Scope10with_scopeNCNvNtB5_5testss_32test_lookup_binding_parent_scope0uEB9_
FNDA:0,_RINvMs_NtNtCs14PW5HJOtOs_6glossa8semantic8resolverNtB5_5Scope10with_scopeNCNvNtB7_12control_flow20parse_for_range_loop0INtNtCs4kUJL3MZFFz_4core6result6ResultINtNtCsauO83Ko6oyK_5alloc3vec3VecNtNtB7_5model17AnalyzedStatementENtNtB9_6errors11GlossaErrorEEB9_
FNDA:0,_RINvMs_NtNtCs14PW5HJOtOs_6glossa8semantic8resolverNtB5_5Scope10with_scopeNCNvNtB7_12control_flow24parse_for_iteration_loops_0INtNtCs4kUJL3MZFFz_4core6result6ResultINtNtCsauO83Ko6oyK_5alloc3vec3VecNtNtB7_5model17AnalyzedStatementENtNtB9_6errors11GlossaErrorEEB9_
FNDA:0,_RINvMs_NtNtCs14PW5HJOtOs_6glossa8semantic8resolverNtB5_5Scope10with_scopeNCNvNtB7_12declarations18analyze_trait_impls0_0INtNtCs4kUJL3MZFFz_4core6result6ResultINtNtCsauO83Ko6oyK_5alloc3vec3VecNtNtB7_5model17AnalyzedStatementENtNtB9_6errors11GlossaErrorEEB9_
FNDA:0,_RINvMs_NtNtCs14PW5HJOtOs_6glossa8semantic8resolverNtB5_5Scope10with_scopeNCNvNtB7_12declarations24analyze_test_declaration0INtNtCs4kUJL3MZFFz_4core6result6ResultINtNtCsauO83Ko6oyK_5alloc3vec3VecNtNtB7_5model17AnalyzedStatementENtNtB9_6errors11GlossaErrorEEB9_
FNDA:0,_RINvMs_NtNtCs14PW5HJOtOs_6glossa8semantic8resolverNtB5_5Scope10with_scopeNCNvNtB7_12declarations24analyze_trait_definition0INtNtCs4kUJL3MZFFz_4core6result6ResultINtNtCsauO83Ko6oyK_5alloc3vec3VecNtNtB7_5model17AnalyzedStatementENtNtB9_6errors11GlossaErrorEEB9_
FNDA:0,_RINvMs_NtNtCs14PW5HJOtOs_6glossa8semantic8resolverNtB5_5Scope10with_scopeNCNvNtB7_12declarations25parse_function_definition0INtNtCs4kUJL3MZFFz_4core6result6ResultINtNtCsauO83Ko6oyK_5alloc3vec3VecNtNtB7_5model17AnalyzedStatementENtNtB9_6errors11GlossaErrorEEB9_
FNDA:0,_RINvMs_NtNtCs14PW5HJOtOs_6glossa8semantic8resolverNtB5_5Scope10with_scopeNCNvNtB7_8analyzer27analyze_statement_recursives_0INtNtCs4kUJL3MZFFz_4core6result6ResultINtNtCsauO83Ko6oyK_5alloc3vec3VecNtNtB7_5model17AnalyzedStatementENtNtB9_6errors11GlossaErrorEEB9_
FNDA:0,_RINvMs_NtNtCs14PW5HJOtOs_6glossa8semantic8resolverNtB5_5Scope11define_typeNtCs36B3dAHZGhW_8smol_str7SmolStrEB9_
FNDA:2,_RINvMs_NtNtCs14PW5HJOtOs_6glossa8semantic8resolverNtB5_5Scope11define_typeNtNtCsauO83Ko6oyK_5alloc6string6StringEB9_
FNDA:1,_RINvMs_NtNtCs14PW5HJOtOs_6glossa8semantic8resolverNtB5_5Scope11define_typeReEB9_
FNDA:0,_RINvMs_NtNtCs14PW5HJOtOs_6glossa8semantic8resolverNtB5_5Scope12define_traitNtCs36B3dAHZGhW_8smol_str7SmolStrEB9_
FNDA:1,_RINvMs_NtNtCs14PW5HJOtOs_6glossa8semantic8resolverNtB5_5Scope12define_traitNtNtCsauO83Ko6oyK_5alloc6string6StringEB9_
FNDA:0,_RINvMs_NtNtCs14PW5HJOtOs_6glossa8semantic8resolverNtB5_5Scope15define_functionNtCs36B3dAHZGhW_8smol_str7SmolStrEB9_
FNDA:2,_RINvMs_NtNtCs14PW5HJOtOs_6glossa8semantic8resolverNtB5_5Scope15define_functionNtNtCsauO83Ko6oyK_5alloc6string6StringEB9_
FNDA:7,_RINvMs_NtNtCs14PW5HJOtOs_6glossa8semantic8resolverNtB5_5Scope15define_functionReEB9_
FNDA:0,_RINvMs_NtNtCs14PW5HJOtOs_6glossa8semantic8resolverNtB5_5Scope6defineNtCs36B3dAHZGhW_8smol_str7SmolStrEB9_
FNDA:1364,_RINvMs_NtNtCs14PW5HJOtOs_6glossa8semantic8resolverNtB5_5Scope6defineNtNtCsauO83Ko6oyK_5alloc6string6StringEB9_
FNDA:44,_RINvMs_NtNtCs14PW5HJOtOs_6glossa8semantic8resolverNtB5_5Scope6defineReEB9_
FNDA:0,_RNCNvMs_NtNtCs14PW5HJOtOs_6glossa8semantic8resolverNtB6_5Scope10has_method0Ba_
FNDA:1,_RNCNvMs_NtNtCs14PW5HJOtOs_6glossa8semantic8resolverNtB6_5Scope15unused_bindings0Ba_
FNDA:2,_RNCNvMs_NtNtCs14PW5HJOtOs_6glossa8semantic8resolverNtB6_5Scope15unused_bindingss_0Ba_
FNDA:7,_RNCNvMs_NtNtCs14PW5HJOtOs_6glossa8semantic8resolverNtB6_5Scope5types0Ba_
FNDA:1,_RNCNvMs_NtNtCs14PW5HJOtOs_6glossa8semantic8resolverNtB6_5Scope6traits0Ba_
FNDA:3,_RNCNvMs_NtNtCs14PW5HJOtOs_6glossa8semantic8resolverNtB6_5Scope8bindings0Ba_
FNDA:9,_RNCNvMs_NtNtCs14PW5HJOtOs_6glossa8semantic8resolverNtB6_5Scope9functions0Ba_
FNDA:1,_RINvMs_NtNtCs4a0SCptkpqe_6glossa8semantic8resolverNtB5_5Scope6defineReECsiXBycVmUcyn_19sentry_codegen_perf
FNF:62
FNH:59
DA:57,879
DA:58,879
DA:59,879
DA:127,811
DA:128,811
DA:129,811
DA:130,811
DA:131,811
DA:134,68
DA:135,68
DA:136,68
DA:162,66
DA:163,66
DA:164,66
DA:166,66
DA:167,66
DA:168,66
DA:169,66
DA:170,66
DA:173,71
DA:174,71
DA:175,68
DA:176,68
DA:177,71
DA:179,1841
DA:180,1841
DA:181,1841
DA:182,1841
DA:183,1841
DA:186,27
DA:187,27
DA:188,27
DA:189,27
DA:190,27
DA:191,27
DA:192,27
DA:193,27
DA:194,27
DA:195,27
DA:196,27
DA:197,27
DA:198,27
DA:199,27
DA:201,27
DA:204,76
DA:205,76
DA:206,76
DA:209,105
DA:210,105
DA:211,105
DA:212,15
DA:213,90
DA:215,90
DA:216,105
DA:219,74
DA:220,74
DA:221,74
DA:224,68
DA:225,68
DA:226,68
DA:227,41
DA:228,27
DA:230,27
DA:231,68
DA:234,27
DA:235,27
DA:236,27
DA:237,27
DA:238,27
DA:239,27
DA:240,27
DA:243,71
DA:244,71
DA:245,71
DA:246,23
DA:247,48
DA:249,48
DA:250,71
DA:253,17
DA:254,17
DA:255,17
DA:258,0
DA:259,0
DA:260,0
DA:261,0
DA:262,0
DA:263,0
DA:264,0
DA:265,0
DA:266,0
DA:267,0
DA:270,0
DA:271,0
DA:309,1
DA:312,1
DA:313,1
DA:314,1
DA:315,0
DA:316,1
DA:318,1
DA:319,1
DA:320,1
DA:321,1
DA:322,0
DA:323,0
DA:326,0
DA:327,1
DA:330,1676
DA:331,1676
DA:332,1676
DA:333,1676
DA:334,1676
DA:335,1676
DA:336,1676
DA:337,1676
DA:338,1676
DA:339,1676
DA:341,1676
DA:347,20
DA:348,20
DA:349,20
DA:350,20
DA:351,20
DA:352,20
DA:353,20
DA:354,20
DA:355,20
DA:356,20
DA:358,20
DA:361,432
DA:362,459
DA:363,459
DA:364,242
DA:365,217
DA:367,190
DA:368,432
DA:387,362
DA:388,362
DA:389,362
DA:408,17
DA:409,17
DA:410,17
DA:432,0
DA:433,0
DA:434,0
DA:435,0
DA:436,0
DA:437,0
DA:455,53
DA:456,53
DA:457,24
DA:458,23
DA:459,22
DA:460,53
DA:479,3
DA:480,3
DA:481,3
DA:500,6
DA:501,7
DA:502,7
DA:503,6
DA:504,6
DA:505,1
DA:507,6
DA:528,1
DA:529,1
DA:530,1
DA:531,1
DA:532,2
DA:533,1
DA:550,9
DA:551,9
DA:552,9
DA:569,7
DA:570,7
DA:571,7
DA:589,1
DA:590,1
DA:591,1
DA:595,1
DA:596,1
DA:597,1
DA:605,1
DA:606,1
DA:607,1
DA:609,1
DA:610,1
DA:611,1
DA:612,1
DA:615,1
DA:616,1
DA:617,1
DA:619,1
DA:620,1
DA:621,1
DA:622,1
DA:623,1
DA:626,1
DA:627,1
DA:628,1
DA:630,1
DA:631,1
DA:632,1
DA:633,1
DA:634,1
DA:637,1
DA:638,1
DA:640,1
DA:643,1
DA:644,1
DA:645,1
DA:648,1
DA:651,1
DA:652,1
DA:653,1
DA:656,1
DA:657,1
DA:658,1
DA:660,1
DA:661,1
DA:662,1
DA:663,1
DA:665,1
DA:666,1
DA:667,1
DA:668,1
DA:671,1
DA:672,1
DA:673,1
DA:675,1
DA:676,1
DA:677,1
DA:679,1
DA:680,1
DA:681,1
DA:684,1
DA:685,1
DA:686,1
DA:688,1
DA:689,1
DA:690,1
DA:693,1
DA:694,1
DA:695,1
DA:698,1
DA:699,1
DA:702,1
DA:703,1
DA:704,1
DA:705,1
DA:708,1
DA:709,1
DA:710,1
DA:711,1
DA:712,1
DA:714,1
DA:715,1
DA:716,1
DA:717,1
DA:720,1
DA:721,1
DA:722,1
DA:724,1
DA:725,1
DA:726,1
DA:727,1
DA:728,1
DA:731,1
DA:732,1
DA:733,1
DA:735,1
DA:736,1
DA:737,1
DA:738,1
DA:739,1
DA:742,1
DA:743,1
DA:744,1
DA:746,1
DA:747,1
DA:748,1
DA:749,1
DA:750,1
DA:751,1
DA:754,1
DA:755,1
DA:756,1
DA:757,1
DA:760,1
DA:762,1
DA:763,1
DA:766,1
DA:769,1
DA:772,1
DA:775,1
DA:776,1
DA:779,1
DA:781,1
DA:782,1
DA:783,1
DA:784,1
DA:785,1
DA:786,1
DA:788,1
DA:790,1
DA:791,1
DA:794,1
DA:795,1
DA:798,1
DA:799,1
DA:800,1
DA:802,1
DA:803,1
DA:804,1
DA:805,1
DA:808,1
DA:809,1
DA:810,1
DA:813,1
DA:814,1
DA:817,1
DA:818,1
DA:819,1
DA:821,1
DA:823,1
DA:824,1
DA:827,1
DA:828,1
DA:831,1
DA:832,1
DA:833,1
DA:836,1
DA:839,1
DA:842,1
DA:845,1
DA:846,1
DA:847,1
BRF:0
BRH:0
LF:351
LH:328
end_of_record
SF:/app/src/semantic/types.rs
FN:142,_RNCNvXNtNtCs4a0SCptkpqe_6glossa8semantic5typesNtB4_10GlossaTypeNtNtCs4kUJL3MZFFz_4core3fmt5Debug3fmt0B8_
FN:234,_RNvMs0_NtNtCs4a0SCptkpqe_6glossa8semantic5typesNtB5_10GlossaType13is_compatible
FN:216,_RNvMs0_NtNtCs4a0SCptkpqe_6glossa8semantic5typesNtB5_10GlossaType8to_greek
FN:265,_RNvNtNtCs4a0SCptkpqe_6glossa8semantic5types22detect_collection_type
FN:141,_RNvXNtNtCs4a0SCptkpqe_6glossa8semantic5typesNtB2_10GlossaTypeNtNtCs4kUJL3MZFFz_4core3fmt5Debug3fmt
FN:187,_RNvXs_NtNtCs4a0SCptkpqe_6glossa8semantic5typesNtB4_10GlossaTypeNtNtCs4kUJL3MZFFz_4core3fmt7Display3fmt
FN:234,_RNvMs0_NtNtCs14PW5HJOtOs_6glossa8semantic5typesNtB5_10GlossaType13is_compatible
FN:216,_RNvMs0_NtNtCs14PW5HJOtOs_6glossa8semantic5typesNtB5_10GlossaType8to_greek
FN:265,_RNvNtNtCs14PW5HJOtOs_6glossa8semantic5types22detect_collection_type
FN:141,_RNvXNtNtCs14PW5HJOtOs_6glossa8semantic5typesNtB2_10GlossaTypeNtNtCs4kUJL3MZFFz_4core3fmt5Debug3fmt
FN:187,_RNvXs_NtNtCs14PW5HJOtOs_6glossa8semantic5typesNtB4_10GlossaTypeNtNtCs4kUJL3MZFFz_4core3fmt7Display3fmt
FN:142,_RNCNvXNtNtCs14PW5HJOtOs_6glossa8semantic5typesNtB4_10GlossaTypeNtNtCs4kUJL3MZFFz_4core3fmt5Debug3fmt0B8_
FN:421,_RNvNtNtNtCs14PW5HJOtOs_6glossa8semantic5types5testss_23test_display_formatting
FN:340,_RNvNtNtNtCs14PW5HJOtOs_6glossa8semantic5types5testss_23test_type_compatibility
FN:281,_RNvNtNtNtCs14PW5HJOtOs_6glossa8semantic5types5testss_23test_type_to_greek_full
FN:405,_RNvNtNtNtCs14PW5HJOtOs_6glossa8semantic5types5testss_32test_detect_collection_type_full
FN:328,_RNvNtNtNtCs14PW5HJOtOs_6glossa8semantic5types5testss_41test_format_function_type_multiple_params
FNDA:100157,_RNCNvXNtNtCs4a0SCptkpqe_6glossa8semantic5typesNtB4_10GlossaTypeNtNtCs4kUJL3MZFFz_4core3fmt5Debug3fmt0B8_
FNDA:5,_RNvMs0_NtNtCs4a0SCptkpqe_6glossa8semantic5typesNtB5_10GlossaType13is_compatible
FNDA:0,_RNvMs0_NtNtCs4a0SCptkpqe_6glossa8semantic5typesNtB5_10GlossaType8to_greek
FNDA:284,_RNvNtNtCs4a0SCptkpqe_6glossa8semantic5types22detect_collection_type
FNDA:100157,_RNvXNtNtCs4a0SCptkpqe_6glossa8semantic5typesNtB2_10GlossaTypeNtNtCs4kUJL3MZFFz_4core3fmt5Debug3fmt
FNDA:0,_RNvXs_NtNtCs4a0SCptkpqe_6glossa8semantic5typesNtB4_10GlossaTypeNtNtCs4kUJL3MZFFz_4core3fmt7Display3fmt
FNDA:26,_RNvMs0_NtNtCs14PW5HJOtOs_6glossa8semantic5typesNtB5_10GlossaType13is_compatible
FNDA:12,_RNvMs0_NtNtCs14PW5HJOtOs_6glossa8semantic5typesNtB5_10GlossaType8to_greek
FNDA:7,_RNvNtNtCs14PW5HJOtOs_6glossa8semantic5types22detect_collection_type
FNDA:0,_RNvXNtNtCs14PW5HJOtOs_6glossa8semantic5typesNtB2_10GlossaTypeNtNtCs4kUJL3MZFFz_4core3fmt5Debug3fmt
FNDA:35,_RNvXs_NtNtCs14PW5HJOtOs_6glossa8semantic5typesNtB4_10GlossaTypeNtNtCs4kUJL3MZFFz_4core3fmt7Display3fmt
FNDA:0,_RNCNvXNtNtCs14PW5HJOtOs_6glossa8semantic5typesNtB4_10GlossaTypeNtNtCs4kUJL3MZFFz_4core3fmt5Debug3fmt0B8_
FNDA:1,_RNvNtNtNtCs14PW5HJOtOs_6glossa8semantic5types5testss_23test_display_formatting
FNDA:1,_RNvNtNtNtCs14PW5HJOtOs_6glossa8semantic5types5testss_23test_type_compatibility
FNDA:1,_RNvNtNtNtCs14PW5HJOtOs_6glossa8semantic5types5testss_23test_type_to_greek_full
FNDA:1,_RNvNtNtNtCs14PW5HJOtOs_6glossa8semantic5types5testss_32test_detect_collection_type_full
FNDA:1,_RNvNtNtNtCs14PW5HJOtOs_6glossa8semantic5types5testss_41test_format_function_type_multiple_params
FNF:11
FNH:11
DA:141,100157
DA:142,100157
DA:143,50016
DA:144,3
DA:145,3
DA:146,1
DA:147,1
DA:148,1
DA:149,1
DA:150,1
DA:152,2
DA:153,2
DA:154,2
DA:155,2
DA:156,2
DA:157,2
DA:158,2
DA:159,2
DA:160,2
DA:161,50001
DA:162,50001
DA:163,50001
DA:164,50001
DA:165,50001
DA:166,1
DA:167,126
DA:168,100157
DA:169,100157
DA:187,35
DA:188,35
DA:189,12
DA:190,7
DA:191,4
DA:192,1
DA:193,1
DA:194,1
DA:195,1
DA:196,1
DA:197,1
DA:198,2
DA:199,2
DA:200,4
DA:201,4
DA:202,2
DA:203,2
DA:204,4
DA:206,2
DA:208,2
DA:209,2
DA:211,35
DA:216,12
DA:217,12
DA:218,1
DA:219,1
DA:220,1
DA:221,1
DA:222,1
DA:223,1
DA:224,1
DA:225,1
DA:226,1
DA:227,1
DA:228,1
DA:229,1
DA:231,12
DA:234,31
DA:235,31
DA:236,5
DA:237,2
DA:238,2
DA:239,2
DA:240,2
DA:242,3
DA:243,3
DA:244,3
DA:246,14
DA:248,31
DA:265,291
DA:266,291
DA:267,291
DA:268,284
DA:269,6
DA:270,6
DA:271,6
DA:272,278
DA:274,291
DA:281,1
DA:282,1
DA:283,1
DA:284,1
DA:285,1
DA:286,1
DA:289,1
DA:290,1
DA:293,1
DA:294,1
DA:297,1
DA:298,1
DA:301,1
DA:302,1
DA:303,1
DA:306,1
DA:307,1
DA:308,1
DA:309,1
DA:310,1
DA:311,1
DA:312,1
DA:313,1
DA:316,1
DA:317,1
DA:318,1
DA:319,1
DA:320,1
DA:321,1
DA:324,1
DA:325,1
DA:328,1
DA:329,1
DA:330,1
DA:331,1
DA:332,1
DA:333,1
DA:334,1
DA:337,1
DA:340,1
DA:341,1
DA:342,1
DA:343,1
DA:344,1
DA:346,1
DA:347,1
DA:348,1
DA:350,1
DA:351,1
DA:352,1
DA:355,1
DA:356,1
DA:357,1
DA:359,1
DA:360,1
DA:361,1
DA:364,1
DA:365,1
DA:366,1
DA:367,1
DA:368,1
DA:369,1
DA:371,1
DA:372,1
DA:373,1
DA:374,1
DA:375,1
DA:376,1
DA:379,1
DA:380,1
DA:381,1
DA:383,1
DA:384,1
DA:385,1
DA:388,1
DA:389,1
DA:390,1
DA:391,1
DA:392,1
DA:393,1
DA:395,1
DA:396,1
DA:397,1
DA:398,1
DA:399,1
DA:400,1
DA:402,1
DA:405,1
DA:406,1
DA:407,1
DA:408,1
DA:410,1
DA:411,1
DA:413,1
DA:414,1
DA:416,1
DA:417,1
DA:418,1
DA:421,1
DA:422,1
DA:423,1
DA:424,1
DA:425,1
DA:426,1
DA:429,1
DA:430,1
DA:433,1
DA:434,1
DA:436,1
DA:437,1
DA:438,1
DA:439,1
DA:443,1
DA:444,1
DA:446,1
DA:450,1
DA:451,1
DA:453,1
DA:454,1
DA:455,1
DA:456,1
DA:457,1
DA:461,1
DA:462,1
DA:464,1
DA:465,1
DA:466,1
DA:467,1
DA:471,1
DA:472,1
DA:473,1
BRF:0
BRH:0
LF:218
LH:218
end_of_record
SF:/app/src/semantic/validation.rs
FN:182,_RNvNtNtCs4a0SCptkpqe_6glossa8semantic10validation16check_expr_depth
FN:100,_RNvNtNtCs4a0SCptkpqe_6glossa8semantic10validation16validate_program
FN:13,_RNvNtNtCs4a0SCptkpqe_6glossa8semantic10validation19check_program_depth
FN:54,_RNvNtNtCs4a0SCptkpqe_6glossa8semantic10validation20check_ast_expr_depth
FN:107,_RNvNtNtCs4a0SCptkpqe_6glossa8semantic10validation21check_statement_depth
FN:41,_RNvNtNtCs4a0SCptkpqe_6glossa8semantic10validation22check_ast_clause_depth
FN:20,_RNvNtNtCs4a0SCptkpqe_6glossa8semantic10validation25check_ast_statement_depth
FN:267,_RNvNtNtNtCs14PW5HJOtOs_6glossa8semantic10validation5testss_21test_expr_depth_limit
FN:253,_RNvNtNtNtCs14PW5HJOtOs_6glossa8semantic10validation5testss_26test_statement_depth_limit
FN:284,_RNvNtNtNtCs14PW5HJOtOs_6glossa8semantic10validation5testss_27test_return_statement_depth
FN:182,_RNvNtNtCs14PW5HJOtOs_6glossa8semantic10validation16check_expr_depth
FN:100,_RNvNtNtCs14PW5HJOtOs_6glossa8semantic10validation16validate_program
FN:13,_RNvNtNtCs14PW5HJOtOs_6glossa8semantic10validation19check_program_depth
FN:54,_RNvNtNtCs14PW5HJOtOs_6glossa8semantic10validation20check_ast_expr_depth
FN:107,_RNvNtNtCs14PW5HJOtOs_6glossa8semantic10validation21check_statement_depth
FN:41,_RNvNtNtCs14PW5HJOtOs_6glossa8semantic10validation22check_ast_clause_depth
FN:20,_RNvNtNtCs14PW5HJOtOs_6glossa8semantic10validation25check_ast_statement_depth
FNDA:1227,_RNvNtNtCs4a0SCptkpqe_6glossa8semantic10validation16check_expr_depth
FNDA:463,_RNvNtNtCs4a0SCptkpqe_6glossa8semantic10validation16validate_program
FNDA:1256,_RNvNtNtCs4a0SCptkpqe_6glossa8semantic10validation19check_program_depth
FNDA:2071928,_RNvNtNtCs4a0SCptkpqe_6glossa8semantic10validation20check_ast_expr_depth
FNDA:728,_RNvNtNtCs4a0SCptkpqe_6glossa8semantic10validation21check_statement_depth
FNDA:3409,_RNvNtNtCs4a0SCptkpqe_6glossa8semantic10validation22check_ast_clause_depth
FNDA:1474,_RNvNtNtCs4a0SCptkpqe_6glossa8semantic10validation25check_ast_statement_depth
FNDA:1,_RNvNtNtNtCs14PW5HJOtOs_6glossa8semantic10validation5testss_21test_expr_depth_limit
FNDA:1,_RNvNtNtNtCs14PW5HJOtOs_6glossa8semantic10validation5testss_26test_statement_depth_limit
FNDA:1,_RNvNtNtNtCs14PW5HJOtOs_6glossa8semantic10validation5testss_27test_return_statement_depth
FNDA:1360,_RNvNtNtCs14PW5HJOtOs_6glossa8semantic10validation16check_expr_depth
FNDA:78,_RNvNtNtCs14PW5HJOtOs_6glossa8semantic10validation16validate_program
FNDA:79,_RNvNtNtCs14PW5HJOtOs_6glossa8semantic10validation19check_program_depth
FNDA:6746,_RNvNtNtCs14PW5HJOtOs_6glossa8semantic10validation20check_ast_expr_depth
FNDA:1360,_RNvNtNtCs14PW5HJOtOs_6glossa8semantic10validation21check_statement_depth
FNDA:1359,_RNvNtNtCs14PW5HJOtOs_6glossa8semantic10validation22check_ast_clause_depth
FNDA:1359,_RNvNtNtCs14PW5HJOtOs_6glossa8semantic10validation25check_ast_statement_depth
FNF:10
FNH:10
DA:13,1335
DA:14,2825
DA:15,2825
DA:17,565
DA:18,1335
DA:20,2833
DA:21,2833
DA:22,0
DA:23,0
DA:24,0
DA:25,2833
DA:27,2833
DA:28,2739
DA:29,4768
DA:30,4768
DA:36,94
DA:38,2063
DA:39,2833
DA:41,4768
DA:42,4768
DA:43,0
DA:44,0
DA:45,0
DA:46,4768
DA:48,6797
DA:49,6797
DA:51,3998
DA:52,4768
DA:54,2078674
DA:55,2078674
DA:56,770
DA:57,770
DA:58,770
DA:59,2077904
DA:61,2077904
DA:62,4057
DA:63,2034175
DA:64,2034175
DA:67,12594
DA:68,12594
DA:69,1
DA:71,12547
DA:72,12547
DA:73,3
DA:75,1
DA:76,1
DA:77,1
DA:80,1
DA:81,12545
DA:82,12545
DA:83,1
DA:85,9
DA:86,6
DA:87,8
DA:88,8
DA:94,2036089
DA:96,2040174
DA:97,2078674
DA:100,541
DA:101,2022
DA:102,2022
DA:104,541
DA:105,541
DA:107,2088
DA:108,2088
DA:109,1
DA:110,1
DA:111,1
DA:112,1
DA:113,2087
DA:115,2087
DA:116,1551
DA:117,1555
DA:119,280
DA:120,111
DA:121,5
DA:122,396
DA:123,382
DA:127,7
DA:128,7
DA:129,7
DA:131,7
DA:132,7
DA:133,7
DA:135,7
DA:136,3
DA:137,3
DA:139,4
DA:141,3
DA:142,3
DA:143,4
DA:144,4
DA:147,8
DA:148,8
DA:149,8
DA:150,8
DA:153,3
DA:154,3
DA:155,6
DA:156,6
DA:157,6
DA:158,6
DA:162,18
DA:163,8
DA:164,36
DA:165,36
DA:168,16
DA:169,16
DA:170,16
DA:171,0
DA:177,73
DA:179,2087
DA:180,2088
DA:182,2587
DA:183,2587
DA:184,1
DA:185,1
DA:186,1
DA:187,1
DA:188,2586
DA:190,2586
DA:191,3
DA:192,3
DA:193,3
DA:194,3
DA:197,59
DA:198,59
DA:199,59
DA:201,3
DA:202,5
DA:203,5
DA:204,5
DA:206,55
DA:207,159
DA:208,159
DA:211,26
DA:212,14
DA:213,12
DA:214,8
DA:215,71
DA:216,6
DA:217,6
DA:218,6
DA:220,102
DA:221,102
DA:222,102
DA:223,58
DA:226,18
DA:227,23
DA:228,23
DA:231,32
DA:232,2
DA:233,5
DA:234,5
DA:235,5
DA:242,2222
DA:244,2586
DA:245,2587
DA:253,1
DA:254,1
DA:255,1
DA:256,1
DA:257,1
DA:258,1
DA:259,1
DA:260,1
DA:262,0
DA:264,1
DA:267,1
DA:268,1
DA:269,1
DA:270,1
DA:271,1
DA:272,1
DA:273,1
DA:274,1
DA:275,1
DA:276,1
DA:277,1
DA:279,0
DA:281,1
DA:284,1
DA:285,1
DA:286,1
DA:287,1
DA:288,1
DA:289,1
DA:290,1
DA:291,1
DA:292,1
DA:293,1
DA:294,1
BRF:0
BRH:0
LF:192
LH:175
end_of_record
SF:/app/src/text.rs
FN:61,_RNCNvNtCs4a0SCptkpqe_6glossa4text15normalize_greek0B5_
FN:96,_RNvMNtCs4a0SCptkpqe_6glossa4textNtB2_22GreekLowercaseIterator14new_with_state
FN:168,_RNvNtCs4a0SCptkpqe_6glossa4text12is_safe_charB3_
FN:46,_RNvNtCs4a0SCptkpqe_6glossa4text15normalize_greek
FN:179,_RNvNtCs4a0SCptkpqe_6glossa4text18is_greek_diacritic
FN:111,_RNvXs_NtCs4a0SCptkpqe_6glossa4textNtB4_22GreekLowercaseIteratorNtNtNtNtCs4kUJL3MZFFz_4core4iter6traits8iterator8Iterator4next
FN:92,_RNvMNtCs4a0SCptkpqe_6glossa4textNtB2_22GreekLowercaseIterator3new
FN:92,_RNvMNtCs14PW5HJOtOs_6glossa4textNtB2_22GreekLowercaseIterator3new
FN:61,_RNCNvNtCs14PW5HJOtOs_6glossa4text15normalize_greek0B5_
FN:215,_RNvNtNtCs14PW5HJOtOs_6glossa4text5testss_19test_normalize_esto
FN:210,_RNvNtNtCs14PW5HJOtOs_6glossa4text5testss_19test_normalize_lege
FN:205,_RNvNtNtCs14PW5HJOtOs_6glossa4text5testss_21test_normalize_chaire
FN:265,_RNvNtNtCs14PW5HJOtOs_6glossa4text5testss_21test_normalize_meizon
FN:200,_RNvNtNtCs14PW5HJOtOs_6glossa4text5testss_22test_normalize_athenai
FN:195,_RNvNtNtCs14PW5HJOtOs_6glossa4text5testss_24test_normalize_anthropos
FN:234,_RNvNtNtCs14PW5HJOtOs_6glossa4text5testss_25test_normalize_circumflex
FN:247,_RNvNtNtCs14PW5HJOtOs_6glossa4text5testss_25test_normalize_mixed_text
FN:271,_RNvNtNtCs14PW5HJOtOs_6glossa4text5testss_26test_normalize_or_particle
FN:283,_RNvNtNtCs14PW5HJOtOs_6glossa4text5testss_26test_normalize_sigma_cases
FN:227,_RNvNtNtCs14PW5HJOtOs_6glossa4text5testss_29test_normalize_iota_subscript
FN:253,_RNvNtNtCs14PW5HJOtOs_6glossa4text5testss_30test_normalize_genitive_ending
FN:220,_RNvNtNtCs14PW5HJOtOs_6glossa4text5testss_30test_normalize_rough_breathing
FN:259,_RNvNtNtCs14PW5HJOtOs_6glossa4text5testss_31test_normalize_case_insensitive
FN:277,_RNvNtNtCs14PW5HJOtOs_6glossa4text5testss_31test_normalize_subjunctive_eimi
FN:295,_RNvNtNtCs14PW5HJOtOs_6glossa4text5testss_36test_normalize_diacritics_with_sigma
FN:240,_RNvNtNtCs14PW5HJOtOs_6glossa4text5testss_37test_normalize_preserves_base_letters
FN:96,_RNvMNtCs14PW5HJOtOs_6glossa4textNtB2_22GreekLowercaseIterator14new_with_state
FN:168,_RNvNtCs14PW5HJOtOs_6glossa4text12is_safe_charB3_
FN:46,_RNvNtCs14PW5HJOtOs_6glossa4text15normalize_greek
FN:179,_RNvNtCs14PW5HJOtOs_6glossa4text18is_greek_diacritic
FN:111,_RNvXs_NtCs14PW5HJOtOs_6glossa4textNtB4_22GreekLowercaseIteratorNtNtNtNtCs4kUJL3MZFFz_4core4iter6traits8iterator8Iterator4next
FNDA:11135616,_RNCNvNtCs4a0SCptkpqe_6glossa4text15normalize_greek0B5_
FNDA:1013304,_RNvMNtCs4a0SCptkpqe_6glossa4textNtB2_22GreekLowercaseIterator14new_with_state
FNDA:8953144,_RNvNtCs4a0SCptkpqe_6glossa4text12is_safe_charB3_
FNDA:2993559,_RNvNtCs4a0SCptkpqe_6glossa4text15normalize_greek
FNDA:28310634,_RNvNtCs4a0SCptkpqe_6glossa4text18is_greek_diacritic
FNDA:10122093,_RNvXs_NtCs4a0SCptkpqe_6glossa4textNtB4_22GreekLowercaseIteratorNtNtNtNtCs4kUJL3MZFFz_4core4iter6traits8iterator8Iterator4next
FNDA:0,_RNvMNtCs4a0SCptkpqe_6glossa4textNtB2_22GreekLowercaseIterator3new
FNDA:0,_RNvMNtCs14PW5HJOtOs_6glossa4textNtB2_22GreekLowercaseIterator3new
FNDA:25709,_RNCNvNtCs14PW5HJOtOs_6glossa4text15normalize_greek0B5_
FNDA:1,_RNvNtNtCs14PW5HJOtOs_6glossa4text5testss_19test_normalize_esto
FNDA:1,_RNvNtNtCs14PW5HJOtOs_6glossa4text5testss_19test_normalize_lege
FNDA:1,_RNvNtNtCs14PW5HJOtOs_6glossa4text5testss_21test_normalize_chaire
FNDA:1,_RNvNtNtCs14PW5HJOtOs_6glossa4text5testss_21test_normalize_meizon
FNDA:1,_RNvNtNtCs14PW5HJOtOs_6glossa4text5testss_22test_normalize_athenai
FNDA:1,_RNvNtNtCs14PW5HJOtOs_6glossa4text5testss_24test_normalize_anthropos
FNDA:1,_RNvNtNtCs14PW5HJOtOs_6glossa4text5testss_25test_normalize_circumflex
FNDA:1,_RNvNtNtCs14PW5HJOtOs_6glossa4text5testss_25test_normalize_mixed_text
FNDA:1,_RNvNtNtCs14PW5HJOtOs_6glossa4text5testss_26test_normalize_or_particle
FNDA:1,_RNvNtNtCs14PW5HJOtOs_6glossa4text5testss_26test_normalize_sigma_cases
FNDA:1,_RNvNtNtCs14PW5HJOtOs_6glossa4text5testss_29test_normalize_iota_subscript
FNDA:1,_RNvNtNtCs14PW5HJOtOs_6glossa4text5testss_30test_normalize_genitive_ending
FNDA:1,_RNvNtNtCs14PW5HJOtOs_6glossa4text5testss_30test_normalize_rough_breathing
FNDA:1,_RNvNtNtCs14PW5HJOtOs_6glossa4text5testss_31test_normalize_case_insensitive
FNDA:1,_RNvNtNtCs14PW5HJOtOs_6glossa4text5testss_31test_normalize_subjunctive_eimi
FNDA:1,_RNvNtNtCs14PW5HJOtOs_6glossa4text5testss_36test_normalize_diacritics_with_sigma
FNDA:1,_RNvNtNtCs14PW5HJOtOs_6glossa4text5testss_37test_normalize_preserves_base_letters
FNDA:5024,_RNvMNtCs14PW5HJOtOs_6glossa4textNtB2_22GreekLowercaseIterator14new_with_state
FNDA:48732,_RNvNtCs14PW5HJOtOs_6glossa4text12is_safe_charB3_
FNDA:15530,_RNvNtCs14PW5HJOtOs_6glossa4text15normalize_greek
FNDA:88345,_RNvNtCs14PW5HJOtOs_6glossa4text18is_greek_diacritic
FNDA:23790,_RNvXs_NtCs14PW5HJOtOs_6glossa4textNtB4_22GreekLowercaseIteratorNtNtNtNtCs4kUJL3MZFFz_4core4iter6traits8iterator8Iterator4next
FNF:24
FNH:23
DA:46,3009089
DA:47,3009089
DA:51,9005820
DA:52,9005820
DA:55,1018328
DA:56,1018328
DA:58,1018328
DA:59,1018328
DA:60,1018328
DA:61,11161325
DA:63,1018328
DA:64,1018328
DA:65,7987492
DA:68,7987492
DA:69,7987492
DA:70,0
DA:75,1990761
DA:76,3009089
DA:92,0
DA:93,0
DA:94,0
DA:96,1018328
DA:97,1018328
DA:98,1018328
DA:99,1018328
DA:100,1018328
DA:101,1018328
DA:102,1018328
DA:103,1018328
DA:104,1018328
DA:105,1018328
DA:111,10145883
DA:113,10145883
DA:114,0
DA:115,10145883
DA:118,10145883
DA:119,9127555
DA:121,9127555
DA:122,20629
DA:123,20099
DA:126,20099
DA:127,20099
DA:128,20096
DA:129,1
DA:130,20095
DA:132,20095
DA:133,20015
DA:134,20015
DA:135,20095
DA:138,20099
DA:139,84
DA:140,20015
DA:141,20015
DA:142,20015
DA:143,530
DA:144,530
DA:145,530
DA:146,9106926
DA:150,9127555
DA:151,9126705
DA:152,850
DA:154,9127555
DA:155,9127555
DA:156,10145883
DA:168,9001876
DA:169,9001876
DA:170,7927108
DA:174,1074768
DA:176,9001876
DA:179,28398979
DA:180,26368298
DA:181,28398979
DA:182,19023977
DA:185,18000302
DA:186,16987649
DA:188,28398979
DA:195,1
DA:196,1
DA:197,1
DA:200,1
DA:201,1
DA:202,1
DA:205,1
DA:206,1
DA:207,1
DA:210,1
DA:211,1
DA:212,1
DA:215,1
DA:216,1
DA:217,1
DA:220,1
DA:222,1
DA:223,1
DA:224,1
DA:227,1
DA:229,1
DA:230,1
DA:231,1
DA:234,1
DA:235,1
DA:236,1
DA:237,1
DA:240,1
DA:242,1
DA:243,1
DA:244,1
DA:247,1
DA:249,1
DA:250,1
DA:253,1
DA:254,1
DA:255,1
DA:256,1
DA:259,1
DA:260,1
DA:261,1
DA:262,1
DA:265,1
DA:267,1
DA:268,1
DA:271,1
DA:273,1
DA:274,1
DA:277,1
DA:279,1
DA:280,1
DA:283,1
DA:285,1
DA:286,1
DA:287,1
DA:288,1
DA:289,1
DA:290,1
DA:291,1
DA:292,1
DA:295,1
DA:300,1
DA:301,1
BRF:0
BRH:0
LF:140
LH:135
end_of_record
SF:/app/src/tools/cache.rs
FN:124,_RNCNvMs_NtNtCs4a0SCptkpqe_6glossa5tools5cacheNtB6_5Cache3key0Ba_
FN:197,_RNCNvMs_NtNtCs4a0SCptkpqe_6glossa5tools5cacheNtB6_5Cache8is_valid0Ba_
FN:201,_RNCNvMs_NtNtCs4a0SCptkpqe_6glossa5tools5cacheNtB6_5Cache8is_valids_0Ba_
FN:70,_RNCNvMs_NtNtCs4a0SCptkpqe_6glossa5tools5cacheNtB6_5Cache9with_dirs0Ba_
FN:121,_RNvMs_NtNtCs4a0SCptkpqe_6glossa5tools5cacheNtB4_5Cache3key
FN:62,_RNvMs_NtNtCs4a0SCptkpqe_6glossa5tools5cacheNtB4_5Cache3new
FN:88,_RNvMs_NtNtCs4a0SCptkpqe_6glossa5tools5cacheNtB4_5Cache4init
FN:195,_RNvMs_NtNtCs4a0SCptkpqe_6glossa5tools5cacheNtB4_5Cache8is_valid
FN:154,_RNvMs_NtNtCs4a0SCptkpqe_6glossa5tools5cacheNtB4_5Cache9get_paths
FN:67,_RNvMs_NtNtCs4a0SCptkpqe_6glossa5tools5cacheNtB4_5Cache9with_dirs
FN:45,_RNvXNtNtCs4a0SCptkpqe_6glossa5tools5cacheNtB2_5CacheNtNtCs4kUJL3MZFFz_4core7default7Default7default
FN:124,_RNCNvMs_NtNtCs14PW5HJOtOs_6glossa5tools5cacheNtB6_5Cache3key0Ba_
FN:197,_RNCNvMs_NtNtCs14PW5HJOtOs_6glossa5tools5cacheNtB6_5Cache8is_valid0Ba_
FN:201,_RNCNvMs_NtNtCs14PW5HJOtOs_6glossa5tools5cacheNtB6_5Cache8is_valids_0Ba_
FN:70,_RNCNvMs_NtNtCs14PW5HJOtOs_6glossa5tools5cacheNtB6_5Cache9with_dirs0Ba_
FN:213,_RNvNtNtNtCs14PW5HJOtOs_6glossa5tools5cache5testss_18test_cache_default
FN:220,_RNvNtNtNtCs14PW5HJOtOs_6glossa5tools5cache5testss_29test_cache_with_dirs_fallback
FN:283,_RNvNtNtNtCs14PW5HJOtOs_6glossa5tools5cache5testss_44should_invalidate_when_exe_or_source_missing
FN:263,_RNvNtNtNtCs14PW5HJOtOs_6glossa5tools5cache5testss_45should_be_valid_when_exe_is_newer_than_source
FN:243,_RNvNtNtNtCs14PW5HJOtOs_6glossa5tools5cache5testss_47should_invalidate_when_exe_is_older_than_source
FN:230,_RNvNtNtNtCs14PW5HJOtOs_6glossa5tools5cache5testss_50should_generate_consistent_cache_key_for_same_path
FN:121,_RNvMs_NtNtCs14PW5HJOtOs_6glossa5tools5cacheNtB4_5Cache3key
FN:62,_RNvMs_NtNtCs14PW5HJOtOs_6glossa5tools5cacheNtB4_5Cache3new
FN:88,_RNvMs_NtNtCs14PW5HJOtOs_6glossa5tools5cacheNtB4_5Cache4init
FN:195,_RNvMs_NtNtCs14PW5HJOtOs_6glossa5tools5cacheNtB4_5Cache8is_valid
FN:154,_RNvMs_NtNtCs14PW5HJOtOs_6glossa5tools5cacheNtB4_5Cache9get_paths
FN:67,_RNvMs_NtNtCs14PW5HJOtOs_6glossa5tools5cacheNtB4_5Cache9with_dirs
FN:45,_RNvXNtNtCs14PW5HJOtOs_6glossa5tools5cacheNtB2_5CacheNtNtCs4kUJL3MZFFz_4core7default7Default7default
FNDA:1,_RNCNvMs_NtNtCs4a0SCptkpqe_6glossa5tools5cacheNtB6_5Cache3key0Ba_
FNDA:4,_RNCNvMs_NtNtCs4a0SCptkpqe_6glossa5tools5cacheNtB6_5Cache8is_valid0Ba_
FNDA:0,_RNCNvMs_NtNtCs4a0SCptkpqe_6glossa5tools5cacheNtB6_5Cache8is_valids_0Ba_
FNDA:0,_RNCNvMs_NtNtCs4a0SCptkpqe_6glossa5tools5cacheNtB6_5Cache9with_dirs0Ba_
FNDA:12,_RNvMs_NtNtCs4a0SCptkpqe_6glossa5tools5cacheNtB4_5Cache3key
FNDA:9,_RNvMs_NtNtCs4a0SCptkpqe_6glossa5tools5cacheNtB4_5Cache3new
FNDA:4,_RNvMs_NtNtCs4a0SCptkpqe_6glossa5tools5cacheNtB4_5Cache4init
FNDA:4,_RNvMs_NtNtCs4a0SCptkpqe_6glossa5tools5cacheNtB4_5Cache8is_valid
FNDA:4,_RNvMs_NtNtCs4a0SCptkpqe_6glossa5tools5cacheNtB4_5Cache9get_paths
FNDA:9,_RNvMs_NtNtCs4a0SCptkpqe_6glossa5tools5cacheNtB4_5Cache9with_dirs
FNDA:0,_RNvXNtNtCs4a0SCptkpqe_6glossa5tools5cacheNtB2_5CacheNtNtCs4kUJL3MZFFz_4core7default7Default7default
FNDA:0,_RNCNvMs_NtNtCs14PW5HJOtOs_6glossa5tools5cacheNtB6_5Cache3key0Ba_
FNDA:7,_RNCNvMs_NtNtCs14PW5HJOtOs_6glossa5tools5cacheNtB6_5Cache8is_valid0Ba_
FNDA:4,_RNCNvMs_NtNtCs14PW5HJOtOs_6glossa5tools5cacheNtB6_5Cache8is_valids_0Ba_
FNDA:1,_RNCNvMs_NtNtCs14PW5HJOtOs_6glossa5tools5cacheNtB6_5Cache9with_dirs0Ba_
FNDA:1,_RNvNtNtNtCs14PW5HJOtOs_6glossa5tools5cache5testss_18test_cache_default
FNDA:1,_RNvNtNtNtCs14PW5HJOtOs_6glossa5tools5cache5testss_29test_cache_with_dirs_fallback
FNDA:1,_RNvNtNtNtCs14PW5HJOtOs_6glossa5tools5cache5testss_44should_invalidate_when_exe_or_source_missing
FNDA:1,_RNvNtNtNtCs14PW5HJOtOs_6glossa5tools5cache5testss_45should_be_valid_when_exe_is_newer_than_source
FNDA:1,_RNvNtNtNtCs14PW5HJOtOs_6glossa5tools5cache5testss_47should_invalidate_when_exe_is_older_than_source
FNDA:1,_RNvNtNtNtCs14PW5HJOtOs_6glossa5tools5cache5testss_50should_generate_consistent_cache_key_for_same_path
FNDA:7,_RNvMs_NtNtCs14PW5HJOtOs_6glossa5tools5cacheNtB4_5Cache3key
FNDA:10,_RNvMs_NtNtCs14PW5HJOtOs_6glossa5tools5cacheNtB4_5Cache3new
FNDA:4,_RNvMs_NtNtCs14PW5HJOtOs_6glossa5tools5cacheNtB4_5Cache4init
FNDA:8,_RNvMs_NtNtCs14PW5HJOtOs_6glossa5tools5cacheNtB4_5Cache8is_valid
FNDA:5,_RNvMs_NtNtCs14PW5HJOtOs_6glossa5tools5cacheNtB4_5Cache9get_paths
FNDA:11,_RNvMs_NtNtCs14PW5HJOtOs_6glossa5tools5cacheNtB4_5Cache9with_dirs
FNDA:5,_RNvXNtNtCs14PW5HJOtOs_6glossa5tools5cacheNtB2_5CacheNtNtCs4kUJL3MZFFz_4core7default7Default7default
FNF:17
FNH:17
DA:45,5
DA:46,5
DA:47,5
DA:62,19
DA:63,19
DA:64,19
DA:67,20
DA:68,20
DA:69,20
DA:70,20
DA:71,20
DA:72,20
DA:73,20
DA:74,20
DA:88,8
DA:89,8
DA:90,8
DA:121,19
DA:124,19
DA:129,19
DA:131,19
DA:132,19
DA:133,19
DA:135,19
DA:136,19
DA:154,9
DA:155,9
DA:156,9
DA:157,9
DA:160,9
DA:162,9
DA:163,9
DA:195,12
DA:196,12
DA:197,12
DA:198,12
DA:200,12
DA:201,12
DA:202,12
DA:204,12
DA:205,12
DA:213,1
DA:214,1
DA:216,1
DA:217,1
DA:220,1
DA:221,1
DA:222,1
DA:223,1
DA:225,1
DA:227,1
DA:230,1
DA:231,1
DA:232,1
DA:233,1
DA:234,1
DA:236,1
DA:237,1
DA:238,1
DA:239,1
DA:240,1
DA:243,1
DA:244,1
DA:245,1
DA:246,1
DA:247,1
DA:250,1
DA:252,1
DA:254,1
DA:256,1
DA:257,1
DA:260,1
DA:263,1
DA:264,1
DA:265,1
DA:266,1
DA:267,1
DA:270,1
DA:272,1
DA:274,1
DA:276,1
DA:277,1
DA:280,1
DA:283,1
DA:284,1
DA:285,1
DA:286,1
DA:287,1
DA:290,1
DA:291,1
DA:292,1
DA:297,1
DA:298,1
DA:299,1
DA:300,1
DA:303,1
BRF:0
BRH:0
LF:100
LH:100
end_of_record
SF:/app/src/tools/dictionary.rs
FN:199,_RNCNvNtNtCs4a0SCptkpqe_6glossa5tools10dictionary28print_morphological_analyses0B7_
FN:56,_RNvNtNtCs14PW5HJOtOs_6glossa5tools10dictionary11lookup_word
FN:83,_RNvNtNtCs14PW5HJOtOs_6glossa5tools10dictionary12print_header
FN:95,_RNvNtNtCs14PW5HJOtOs_6glossa5tools10dictionary19print_lexicon_entry
FN:166,_RNvNtNtCs14PW5HJOtOs_6glossa5tools10dictionary28print_morphological_analyses
FN:199,_RNCNvNtNtCs14PW5HJOtOs_6glossa5tools10dictionary28print_morphological_analyses0B7_
FN:271,_RNvNtNtNtCs14PW5HJOtOs_6glossa5tools10dictionary5testss_16test_lookup_verb
FN:260,_RNvNtNtNtCs14PW5HJOtOs_6glossa5tools10dictionary5testss_22test_lookup_known_word
FN:266,_RNvNtNtNtCs14PW5HJOtOs_6glossa5tools10dictionary5testss_24test_lookup_unknown_word
FN:276,_RNvNtNtNtCs14PW5HJOtOs_6glossa5tools10dictionary5testss_35test_lookup_word_without_rust_equiv
FN:56,_RNvNtNtCs4a0SCptkpqe_6glossa5tools10dictionary11lookup_word
FN:83,_RNvNtNtCs4a0SCptkpqe_6glossa5tools10dictionary12print_header
FN:95,_RNvNtNtCs4a0SCptkpqe_6glossa5tools10dictionary19print_lexicon_entry
FN:166,_RNvNtNtCs4a0SCptkpqe_6glossa5tools10dictionary28print_morphological_analyses
FNDA:0,_RNCNvNtNtCs4a0SCptkpqe_6glossa5tools10dictionary28print_morphological_analyses0B7_
FNDA:4,_RNvNtNtCs14PW5HJOtOs_6glossa5tools10dictionary11lookup_word
FNDA:4,_RNvNtNtCs14PW5HJOtOs_6glossa5tools10dictionary12print_header
FNDA:2,_RNvNtNtCs14PW5HJOtOs_6glossa5tools10dictionary19print_lexicon_entry
FNDA:4,_RNvNtNtCs14PW5HJOtOs_6glossa5tools10dictionary28print_morphological_analyses
FNDA:67,_RNCNvNtNtCs14PW5HJOtOs_6glossa5tools10dictionary28print_morphological_analyses0B7_
FNDA:1,_RNvNtNtNtCs14PW5HJOtOs_6glossa5tools10dictionary5testss_16test_lookup_verb
FNDA:1,_RNvNtNtNtCs14PW5HJOtOs_6glossa5tools10dictionary5testss_22test_lookup_known_word
FNDA:1,_RNvNtNtNtCs14PW5HJOtOs_6glossa5tools10dictionary5testss_24test_lookup_unknown_word
FNDA:1,_RNvNtNtNtCs14PW5HJOtOs_6glossa5tools10dictionary5testss_35test_lookup_word_without_rust_equiv
FNDA:0,_RNvNtNtCs4a0SCptkpqe_6glossa5tools10dictionary11lookup_word
FNDA:0,_RNvNtNtCs4a0SCptkpqe_6glossa5tools10dictionary12print_header
FNDA:0,_RNvNtNtCs4a0SCptkpqe_6glossa5tools10dictionary19print_lexicon_entry
FNDA:0,_RNvNtNtCs4a0SCptkpqe_6glossa5tools10dictionary28print_morphological_analyses
FNF:9
FNH:9
DA:56,4
DA:57,4
DA:59,4
DA:62,4
DA:63,2
DA:64,2
DA:65,2
DA:66,2
DA:67,2
DA:68,2
DA:71,4
DA:73,4
DA:74,0
DA:75,0
DA:76,4
DA:78,4
DA:80,4
DA:81,4
DA:83,4
DA:84,4
DA:85,4
DA:86,4
DA:87,4
DA:88,4
DA:89,4
DA:90,3
DA:91,3
DA:92,4
DA:93,4
DA:95,2
DA:96,2
DA:98,2
DA:101,2
DA:102,2
DA:103,2
DA:104,2
DA:105,2
DA:106,2
DA:109,2
DA:110,2
DA:111,2
DA:112,2
DA:113,2
DA:116,2
DA:117,2
DA:118,2
DA:121,2
DA:122,2
DA:123,2
DA:127,2
DA:128,2
DA:129,2
DA:130,2
DA:131,2
DA:132,1
DA:134,1
DA:136,2
DA:140,2
DA:141,1
DA:142,1
DA:143,2
DA:144,2
DA:145,2
DA:146,2
DA:147,0
DA:148,2
DA:149,2
DA:150,2
DA:151,2
DA:152,2
DA:153,1
DA:154,1
DA:155,2
DA:156,1
DA:157,1
DA:158,2
DA:159,1
DA:160,1
DA:162,2
DA:163,2
DA:164,2
DA:166,4
DA:167,4
DA:169,4
DA:170,4
DA:171,4
DA:172,4
DA:175,4
DA:176,4
DA:177,4
DA:178,4
DA:179,4
DA:180,4
DA:181,4
DA:182,4
DA:183,4
DA:184,4
DA:185,4
DA:186,4
DA:187,4
DA:188,4
DA:194,4
DA:196,16
DA:197,16
DA:198,16
DA:199,67
DA:200,67
DA:201,51
DA:202,51
DA:203,67
DA:204,67
DA:206,16
DA:207,12
DA:208,12
DA:209,12
DA:210,16
DA:211,16
DA:212,16
DA:213,16
DA:214,16
DA:215,11
DA:216,11
DA:217,11
DA:218,16
DA:219,16
DA:220,16
DA:221,16
DA:222,16
DA:223,4
DA:224,4
DA:225,12
DA:226,16
DA:227,4
DA:228,4
DA:229,12
DA:230,16
DA:231,4
DA:232,4
DA:233,12
DA:235,16
DA:236,10
DA:237,6
DA:238,6
DA:240,0
DA:243,16
DA:244,16
DA:245,16
DA:246,16
DA:247,16
DA:251,4
DA:252,4
DA:253,4
DA:260,1
DA:262,1
DA:263,1
DA:266,1
DA:267,1
DA:268,1
DA:271,1
DA:272,1
DA:273,1
DA:276,1
DA:278,1
DA:279,1
BRF:0
BRH:0
LF:165
LH:161
end_of_record
SF:/app/src/tools/highlight.rs
FN:131,_RNCNvMNtNtCs4a0SCptkpqe_6glossa5tools9highlightNtB4_11Highlighter14highlight_expr0B8_
FN:60,_RNCNvNtNtCs4a0SCptkpqe_6glossa5tools9highlight9highlight0B7_
FN:127,_RNvMNtNtCs4a0SCptkpqe_6glossa5tools9highlightNtB2_11Highlighter14highlight_expr
FN:225,_RNvMNtNtCs4a0SCptkpqe_6glossa5tools9highlightNtB2_11Highlighter14highlight_word
FN:276,_RNvMNtNtCs4a0SCptkpqe_6glossa5tools9highlightNtB2_11Highlighter15highlight_binop
FN:117,_RNvMNtNtCs4a0SCptkpqe_6glossa5tools9highlightNtB2_11Highlighter16highlight_clause
FN:77,_RNvMNtNtCs4a0SCptkpqe_6glossa5tools9highlightNtB2_11Highlighter17highlight_program
FN:298,_RNvMNtNtCs4a0SCptkpqe_6glossa5tools9highlightNtB2_11Highlighter18highlight_type_def
FN:87,_RNvMNtNtCs4a0SCptkpqe_6glossa5tools9highlightNtB2_11Highlighter19highlight_statement
FN:333,_RNvMNtNtCs4a0SCptkpqe_6glossa5tools9highlightNtB2_11Highlighter19highlight_test_decl
FN:309,_RNvMNtNtCs4a0SCptkpqe_6glossa5tools9highlightNtB2_11Highlighter19highlight_trait_def
FN:320,_RNvMNtNtCs4a0SCptkpqe_6glossa5tools9highlightNtB2_11Highlighter20highlight_trait_impl
FN:70,_RNvMNtNtCs4a0SCptkpqe_6glossa5tools9highlightNtB2_11Highlighter3new
FN:55,_RNvNtNtCs4a0SCptkpqe_6glossa5tools9highlight9highlight
FN:127,_RNvMNtNtCs14PW5HJOtOs_6glossa5tools9highlightNtB2_11Highlighter14highlight_expr
FN:225,_RNvMNtNtCs14PW5HJOtOs_6glossa5tools9highlightNtB2_11Highlighter14highlight_word
FN:276,_RNvMNtNtCs14PW5HJOtOs_6glossa5tools9highlightNtB2_11Highlighter15highlight_binop
FN:117,_RNvMNtNtCs14PW5HJOtOs_6glossa5tools9highlightNtB2_11Highlighter16highlight_clause
FN:77,_RNvMNtNtCs14PW5HJOtOs_6glossa5tools9highlightNtB2_11Highlighter17highlight_program
FN:298,_RNvMNtNtCs14PW5HJOtOs_6glossa5tools9highlightNtB2_11Highlighter18highlight_type_def
FN:87,_RNvMNtNtCs14PW5HJOtOs_6glossa5tools9highlightNtB2_11Highlighter19highlight_statement
FN:333,_RNvMNtNtCs14PW5HJOtOs_6glossa5tools9highlightNtB2_11Highlighter19highlight_test_decl
FN:309,_RNvMNtNtCs14PW5HJOtOs_6glossa5tools9highlightNtB2_11Highlighter19highlight_trait_def
FN:320,_RNvMNtNtCs14PW5HJOtOs_6glossa5tools9highlightNtB2_11Highlighter20highlight_trait_impl
FN:70,_RNvMNtNtCs14PW5HJOtOs_6glossa5tools9highlightNtB2_11Highlighter3new
FN:55,_RNvNtNtCs14PW5HJOtOs_6glossa5tools9highlight9highlight
FN:453,_RNvNtNtNtCs14PW5HJOtOs_6glossa5tools9highlight5testss_20test_highlight_binop
FN:481,_RNvNtNtNtCs14PW5HJOtOs_6glossa5tools9highlight5testss_20test_highlight_block
FN:833,_RNvNtNtNtCs14PW5HJOtOs_6glossa5tools9highlight5testss_20test_highlight_error
FN:547,_RNvNtNtNtCs14PW5HJOtOs_6glossa5tools9highlight5testss_20test_highlight_query
FN:820,_RNvNtNtNtCs14PW5HJOtOs_6glossa5tools9highlight5testss_21test_highlight_dative
FN:493,_RNvNtNtNtCs14PW5HJOtOs_6glossa5tools9highlight5testss_21test_highlight_phrase
FN:638,_RNvNtNtNtCs14PW5HJOtOs_6glossa5tools9highlight5testss_21test_manual_ast_nodes
FN:442,_RNvNtNtNtCs14PW5HJOtOs_6glossa5tools9highlight5testss_22test_highlight_binding
FN:463,_RNvNtNtNtCs14PW5HJOtOs_6glossa5tools9highlight5testss_23test_highlight_unary_op
FN:556,_RNvNtNtNtCs14PW5HJOtOs_6glossa5tools9highlight5testss_24test_highlight_propagate
FN:565,_RNvNtNtNtCs14PW5HJOtOs_6glossa5tools9highlight5testss_24test_highlight_unary_neg
FN:761,_RNvNtNtNtCs14PW5HJOtOs_6glossa5tools9highlight5testss_25test_highlight_all_binops
FN:507,_RNvNtNtNtCs14PW5HJOtOs_6glossa5tools9highlight5testss_25test_highlight_participle
FN:598,_RNvNtNtNtCs14PW5HJOtOs_6glossa5tools9highlight5testss_25test_highlight_trait_impl
FN:517,_RNvNtNtNtCs14PW5HJOtOs_6glossa5tools9highlight5testss_26test_highlight_definitions
FN:407,_RNvNtNtNtCs14PW5HJOtOs_6glossa5tools9highlight5testss_27test_highlight_index_access
FN:703,_RNvNtNtNtCs14PW5HJOtOs_6glossa5tools9highlight5testss_27test_highlight_pos_variants
FN:396,_RNvNtNtNtCs14PW5HJOtOs_6glossa5tools9highlight5testss_28test_highlight_array_literal
FN:431,_RNvNtNtNtCs14PW5HJOtOs_6glossa5tools9highlight5testss_28test_highlight_function_call
FN:587,_RNvNtNtNtCs14PW5HJOtOs_6glossa5tools9highlight5testss_28test_highlight_nested_phrase
FN:630,_RNvNtNtNtCs14PW5HJOtOs_6glossa5tools9highlight5testss_29test_highlight_complex_nested
FN:378,_RNvNtNtNtCs14PW5HJOtOs_6glossa5tools9highlight5testss_29test_highlight_number_literal
FN:369,_RNvNtNtNtCs14PW5HJOtOs_6glossa5tools9highlight5testss_29test_highlight_string_literal
FN:618,_RNvNtNtNtCs14PW5HJOtOs_6glossa5tools9highlight5testss_30test_highlight_article_context
FN:387,_RNvNtNtNtCs14PW5HJOtOs_6glossa5tools9highlight5testss_30test_highlight_boolean_literal
FN:418,_RNvNtNtNtCs14PW5HJOtOs_6glossa5tools9highlight5testss_30test_highlight_property_access
FN:357,_RNvNtNtNtCs14PW5HJOtOs_6glossa5tools9highlight5testss_30test_highlight_simple_sentence
FN:578,_RNvNtNtNtCs14PW5HJOtOs_6glossa5tools9highlight5testss_31test_highlight_clause_separator
FN:841,_RNvNtNtNtCs14PW5HJOtOs_6glossa5tools9highlight5testss_31test_highlight_string_injection
FN:536,_RNvNtNtNtCs14PW5HJOtOs_6glossa5tools9highlight5testss_31test_highlight_test_declaration
FN:609,_RNvNtNtNtCs14PW5HJOtOs_6glossa5tools9highlight5testss_34test_highlight_multiple_statements
FN:736,_RNvNtNtNtCs14PW5HJOtOs_6glossa5tools9highlight5testss_37test_highlight_definitions_formatting
FN:793,_RNvNtNtNtCs14PW5HJOtOs_6glossa5tools9highlight5testss_37test_highlight_vocative_and_adjective
FN:131,_RNCNvMNtNtCs14PW5HJOtOs_6glossa5tools9highlightNtB4_11Highlighter14highlight_expr0B8_
FN:60,_RNCNvNtNtCs14PW5HJOtOs_6glossa5tools9highlight9highlight0B7_
FNDA:0,_RNCNvMNtNtCs4a0SCptkpqe_6glossa5tools9highlightNtB4_11Highlighter14highlight_expr0B8_
FNDA:0,_RNCNvNtNtCs4a0SCptkpqe_6glossa5tools9highlight9highlight0B7_
FNDA:1,_RNvMNtNtCs4a0SCptkpqe_6glossa5tools9highlightNtB2_11Highlighter14highlight_expr
FNDA:1,_RNvMNtNtCs4a0SCptkpqe_6glossa5tools9highlightNtB2_11Highlighter14highlight_word
FNDA:0,_RNvMNtNtCs4a0SCptkpqe_6glossa5tools9highlightNtB2_11Highlighter15highlight_binop
FNDA:1,_RNvMNtNtCs4a0SCptkpqe_6glossa5tools9highlightNtB2_11Highlighter16highlight_clause
FNDA:15,_RNvMNtNtCs4a0SCptkpqe_6glossa5tools9highlightNtB2_11Highlighter17highlight_program
FNDA:0,_RNvMNtNtCs4a0SCptkpqe_6glossa5tools9highlightNtB2_11Highlighter18highlight_type_def
FNDA:1,_RNvMNtNtCs4a0SCptkpqe_6glossa5tools9highlightNtB2_11Highlighter19highlight_statement
FNDA:0,_RNvMNtNtCs4a0SCptkpqe_6glossa5tools9highlightNtB2_11Highlighter19highlight_test_decl
FNDA:0,_RNvMNtNtCs4a0SCptkpqe_6glossa5tools9highlightNtB2_11Highlighter19highlight_trait_def
FNDA:0,_RNvMNtNtCs4a0SCptkpqe_6glossa5tools9highlightNtB2_11Highlighter20highlight_trait_impl
FNDA:15,_RNvMNtNtCs4a0SCptkpqe_6glossa5tools9highlightNtB2_11Highlighter3new
FNDA:512,_RNvNtNtCs4a0SCptkpqe_6glossa5tools9highlight9highlight
FNDA:183,_RNvMNtNtCs14PW5HJOtOs_6glossa5tools9highlightNtB2_11Highlighter14highlight_expr
FNDA:73,_RNvMNtNtCs14PW5HJOtOs_6glossa5tools9highlightNtB2_11Highlighter14highlight_word
FNDA:14,_RNvMNtNtCs14PW5HJOtOs_6glossa5tools9highlightNtB2_11Highlighter15highlight_binop
FNDA:36,_RNvMNtNtCs14PW5HJOtOs_6glossa5tools9highlightNtB2_11Highlighter16highlight_clause
FNDA:34,_RNvMNtNtCs14PW5HJOtOs_6glossa5tools9highlightNtB2_11Highlighter17highlight_program
FNDA:2,_RNvMNtNtCs14PW5HJOtOs_6glossa5tools9highlightNtB2_11Highlighter18highlight_type_def
FNDA:40,_RNvMNtNtCs14PW5HJOtOs_6glossa5tools9highlightNtB2_11Highlighter19highlight_statement
FNDA:1,_RNvMNtNtCs14PW5HJOtOs_6glossa5tools9highlightNtB2_11Highlighter19highlight_test_decl
FNDA:2,_RNvMNtNtCs14PW5HJOtOs_6glossa5tools9highlightNtB2_11Highlighter19highlight_trait_def
FNDA:0,_RNvMNtNtCs14PW5HJOtOs_6glossa5tools9highlightNtB2_11Highlighter20highlight_trait_impl
FNDA:37,_RNvMNtNtCs14PW5HJOtOs_6glossa5tools9highlightNtB2_11Highlighter3new
FNDA:37,_RNvNtNtCs14PW5HJOtOs_6glossa5tools9highlight9highlight
FNDA:1,_RNvNtNtNtCs14PW5HJOtOs_6glossa5tools9highlight5testss_20test_highlight_binop
FNDA:1,_RNvNtNtNtCs14PW5HJOtOs_6glossa5tools9highlight5testss_20test_highlight_block
FNDA:1,_RNvNtNtNtCs14PW5HJOtOs_6glossa5tools9highlight5testss_20test_highlight_error
FNDA:1,_RNvNtNtNtCs14PW5HJOtOs_6glossa5tools9highlight5testss_20test_highlight_query
FNDA:1,_RNvNtNtNtCs14PW5HJOtOs_6glossa5tools9highlight5testss_21test_highlight_dative
FNDA:1,_RNvNtNtNtCs14PW5HJOtOs_6glossa5tools9highlight5testss_21test_highlight_phrase
FNDA:1,_RNvNtNtNtCs14PW5HJOtOs_6glossa5tools9highlight5testss_21test_manual_ast_nodes
FNDA:1,_RNvNtNtNtCs14PW5HJOtOs_6glossa5tools9highlight5testss_22test_highlight_binding
FNDA:1,_RNvNtNtNtCs14PW5HJOtOs_6glossa5tools9highlight5testss_23test_highlight_unary_op
FNDA:1,_RNvNtNtNtCs14PW5HJOtOs_6glossa5tools9highlight5testss_24test_highlight_propagate
FNDA:1,_RNvNtNtNtCs14PW5HJOtOs_6glossa5tools9highlight5testss_24test_highlight_unary_neg
FNDA:1,_RNvNtNtNtCs14PW5HJOtOs_6glossa5tools9highlight5testss_25test_highlight_all_binops
FNDA:1,_RNvNtNtNtCs14PW5HJOtOs_6glossa5tools9highlight5testss_25test_highlight_participle
FNDA:1,_RNvNtNtNtCs14PW5HJOtOs_6glossa5tools9highlight5testss_25test_highlight_trait_impl
FNDA:1,_RNvNtNtNtCs14PW5HJOtOs_6glossa5tools9highlight5testss_26test_highlight_definitions
FNDA:1,_RNvNtNtNtCs14PW5HJOtOs_6glossa5tools9highlight5testss_27test_highlight_index_access
FNDA:1,_RNvNtNtNtCs14PW5HJOtOs_6glossa5tools9highlight5testss_27test_highlight_pos_variants
FNDA:1,_RNvNtNtNtCs14PW5HJOtOs_6glossa5tools9highlight5testss_28test_highlight_array_literal
FNDA:1,_RNvNtNtNtCs14PW5HJOtOs_6glossa5tools9highlight5testss_28test_highlight_function_call
FNDA:1,_RNvNtNtNtCs14PW5HJOtOs_6glossa5tools9highlight5testss_28test_highlight_nested_phrase
FNDA:1,_RNvNtNtNtCs14PW5HJOtOs_6glossa5tools9highlight5testss_29test_highlight_complex_nested
FNDA:1,_RNvNtNtNtCs14PW5HJOtOs_6glossa5tools9highlight5testss_29test_highlight_number_literal
FNDA:1,_RNvNtNtNtCs14PW5HJOtOs_6glossa5tools9highlight5testss_29test_highlight_string_literal
FNDA:1,_RNvNtNtNtCs14PW5HJOtOs_6glossa5tools9highlight5testss_30test_highlight_article_context
FNDA:1,_RNvNtNtNtCs14PW5HJOtOs_6glossa5tools9highlight5testss_30test_highlight_boolean_literal
FNDA:1,_RNvNtNtNtCs14PW5HJOtOs_6glossa5tools9highlight5testss_30test_highlight_property_access
FNDA:1,_RNvNtNtNtCs14PW5HJOtOs_6glossa5tools9highlight5testss_30test_highlight_simple_sentence
FNDA:1,_RNvNtNtNtCs14PW5HJOtOs_6glossa5tools9highlight5testss_31test_highlight_clause_separator
FNDA:1,_RNvNtNtNtCs14PW5HJOtOs_6glossa5tools9highlight5testss_31test_highlight_string_injection
FNDA:1,_RNvNtNtNtCs14PW5HJOtOs_6glossa5tools9highlight5testss_31test_highlight_test_declaration
FNDA:1,_RNvNtNtNtCs14PW5HJOtOs_6glossa5tools9highlight5testss_34test_highlight_multiple_statements
FNDA:1,_RNvNtNtNtCs14PW5HJOtOs_6glossa5tools9highlight5testss_37test_highlight_definitions_formatting
FNDA:1,_RNvNtNtNtCs14PW5HJOtOs_6glossa5tools9highlight5testss_37test_highlight_vocative_and_adjective
FNDA:35,_RNCNvMNtNtCs14PW5HJOtOs_6glossa5tools9highlightNtB4_11Highlighter14highlight_expr0B8_
FNDA:0,_RNCNvNtNtCs14PW5HJOtOs_6glossa5tools9highlight9highlight0B7_
FNF:47
FNH:45
DA:55,549
DA:56,549
DA:57,49
DA:58,49
DA:59,49
DA:60,49
DA:61,49
DA:62,549
DA:70,52
DA:71,52
DA:72,52
DA:73,52
DA:74,52
DA:75,52
DA:77,49
DA:78,49
DA:79,36
DA:80,1
DA:81,35
DA:82,36
DA:84,49
DA:85,49
DA:87,41
DA:88,41
DA:90,36
DA:91,36
DA:92,36
DA:94,37
DA:95,37
DA:96,1
DA:97,36
DA:98,37
DA:101,36
DA:102,2
DA:103,34
DA:104,1
DA:105,33
DA:106,33
DA:107,33
DA:109,2
DA:110,2
DA:111,0
DA:112,1
DA:114,41
DA:115,41
DA:117,37
DA:118,37
DA:119,37
DA:120,0
DA:121,37
DA:122,37
DA:124,37
DA:125,37
DA:127,184
DA:128,184
DA:129,7
DA:131,35
DA:132,7
DA:134,46
DA:135,46
DA:137,4
DA:138,4
DA:139,4
DA:141,68
DA:142,32
DA:143,86
DA:144,86
DA:145,54
DA:146,54
DA:147,86
DA:150,1
DA:151,1
DA:152,1
DA:153,1
DA:155,1
DA:157,1
DA:159,1
DA:160,1
DA:161,1
DA:164,1
DA:165,1
DA:166,1
DA:167,1
DA:168,1
DA:169,1
DA:171,14
DA:172,14
DA:173,14
DA:174,14
DA:175,14
DA:176,14
DA:178,3
DA:179,3
DA:181,1
DA:182,1
DA:185,1
DA:186,1
DA:187,1
DA:190,1
DA:191,1
DA:195,4
DA:196,4
DA:197,4
DA:198,4
DA:199,0
DA:200,4
DA:201,4
DA:203,4
DA:205,2
DA:206,2
DA:207,5
DA:208,5
DA:209,3
DA:210,3
DA:211,5
DA:213,2
DA:215,1
DA:216,1
DA:217,1
DA:218,1
DA:219,1
DA:222,184
DA:223,184
DA:225,74
DA:227,74
DA:228,7
DA:229,7
DA:230,7
DA:231,67
DA:234,67
DA:235,67
DA:237,67
DA:238,4
DA:239,4
DA:240,63
DA:243,63
DA:244,63
DA:247,63
DA:248,28
DA:249,35
DA:250,35
DA:251,35
DA:252,35
DA:255,63
DA:256,28
DA:257,24
DA:258,20
DA:259,0
DA:260,1
DA:261,2
DA:262,1
DA:263,0
DA:265,0
DA:266,1
DA:267,2
DA:268,3
DA:269,5
DA:272,63
DA:273,63
DA:274,74
DA:276,14
DA:277,14
DA:278,2
DA:279,1
DA:280,1
DA:281,1
DA:282,1
DA:283,1
DA:284,1
DA:285,1
DA:286,1
DA:287,1
DA:288,1
DA:289,1
DA:290,1
DA:292,14
DA:293,14
DA:294,14
DA:298,2
DA:299,2
DA:300,2
DA:302,2
DA:303,2
DA:304,2
DA:305,0
DA:306,2
DA:307,2
DA:309,2
DA:310,2
DA:311,2
DA:313,2
DA:314,2
DA:315,2
DA:316,0
DA:317,2
DA:318,2
DA:320,0
DA:321,0
DA:322,0
DA:324,0
DA:325,0
DA:326,0
DA:327,0
DA:329,0
DA:330,0
DA:331,0
DA:333,1
DA:334,1
DA:335,1
DA:337,1
DA:338,1
DA:339,0
DA:341,1
DA:342,1
DA:343,1
DA:344,1
DA:347,1
DA:348,1
DA:349,1
DA:357,1
DA:358,1
DA:359,1
DA:360,1
DA:364,1
DA:365,1
DA:366,1
DA:369,1
DA:370,1
DA:371,1
DA:372,1
DA:374,1
DA:375,1
DA:378,1
DA:379,1
DA:380,1
DA:381,1
DA:383,1
DA:384,1
DA:387,1
DA:388,1
DA:389,1
DA:390,1
DA:392,1
DA:393,1
DA:396,1
DA:397,1
DA:398,1
DA:399,1
DA:400,1
DA:401,1
DA:402,1
DA:403,1
DA:404,1
DA:407,1
DA:408,1
DA:409,1
DA:410,1
DA:411,1
DA:412,1
DA:413,1
DA:414,1
DA:415,1
DA:418,1
DA:419,1
DA:420,1
DA:421,1
DA:422,1
DA:426,1
DA:427,1
DA:428,1
DA:431,1
DA:432,1
DA:433,1
DA:434,1
DA:435,1
DA:437,1
DA:438,1
DA:439,1
DA:442,1
DA:443,1
DA:444,1
DA:445,1
DA:446,1
DA:447,1
DA:448,1
DA:449,1
DA:450,1
DA:453,1
DA:454,1
DA:455,1
DA:456,1
DA:457,1
DA:459,1
DA:460,1
DA:463,1
DA:465,1
DA:466,1
DA:467,1
DA:468,1
DA:469,1
DA:470,1
DA:473,1
DA:474,1
DA:475,1
DA:476,1
DA:477,1
DA:478,1
DA:481,1
DA:483,1
DA:484,1
DA:485,1
DA:486,1
DA:487,1
DA:488,1
DA:489,1
DA:490,1
DA:493,1
DA:497,1
DA:498,1
DA:499,1
DA:500,1
DA:501,1
DA:502,1
DA:503,1
DA:504,1
DA:507,1
DA:508,1
DA:509,1
DA:510,1
DA:511,1
DA:513,1
DA:514,1
DA:517,1
DA:519,1
DA:520,1
DA:521,1
DA:522,1
DA:523,1
DA:524,1
DA:527,1
DA:528,1
DA:529,1
DA:530,1
DA:531,1
DA:532,1
DA:533,1
DA:536,1
DA:537,1
DA:538,1
DA:539,1
DA:540,1
DA:541,1
DA:542,1
DA:543,1
DA:544,1
DA:547,1
DA:548,1
DA:549,1
DA:550,1
DA:551,1
DA:552,1
DA:553,1
DA:556,1
DA:557,1
DA:558,1
DA:559,1
DA:560,1
DA:561,1
DA:562,1
DA:565,1
DA:567,1
DA:568,1
DA:571,1
DA:572,0
DA:573,0
DA:574,1
DA:575,1
DA:578,1
DA:579,1
DA:580,1
DA:581,1
DA:582,1
DA:583,1
DA:584,1
DA:587,1
DA:589,1
DA:590,1
DA:591,1
DA:592,1
DA:593,1
DA:594,1
DA:595,1
DA:598,1
DA:599,1
DA:600,1
DA:601,1
DA:602,1
DA:603,1
DA:604,1
DA:605,1
DA:606,1
DA:609,1
DA:610,1
DA:611,1
DA:612,1
DA:613,1
DA:614,1
DA:615,1
DA:618,1
DA:619,1
DA:620,1
DA:621,1
DA:622,1
DA:626,1
DA:627,1
DA:630,1
DA:632,1
DA:633,1
DA:634,1
DA:635,1
DA:638,1
DA:641,1
DA:644,1
DA:645,1
DA:646,1
DA:647,1
DA:648,1
DA:649,1
DA:650,1
DA:651,1
DA:654,1
DA:655,1
DA:656,1
DA:657,1
DA:658,1
DA:659,1
DA:660,1
DA:661,1
DA:664,1
DA:665,1
DA:666,1
DA:667,1
DA:668,1
DA:669,1
DA:670,1
DA:671,1
DA:674,1
DA:675,1
DA:676,1
DA:677,1
DA:678,1
DA:679,1
DA:680,1
DA:681,1
DA:684,1
DA:685,1
DA:686,1
DA:687,1
DA:688,1
DA:689,1
DA:690,1
DA:693,1
DA:694,1
DA:695,1
DA:696,1
DA:697,1
DA:698,1
DA:699,1
DA:700,1
DA:703,1
DA:705,1
DA:708,1
DA:709,1
DA:713,1
DA:714,1
DA:717,1
DA:718,1
DA:719,1
DA:720,1
DA:723,1
DA:724,1
DA:725,1
DA:726,1
DA:729,1
DA:730,1
DA:731,1
DA:732,1
DA:733,1
DA:736,1
DA:739,1
DA:740,1
DA:742,1
DA:743,1
DA:746,1
DA:747,1
DA:748,1
DA:751,1
DA:752,1
DA:756,1
DA:757,1
DA:758,1
DA:761,1
DA:762,1
DA:763,1
DA:764,1
DA:765,1
DA:766,1
DA:767,1
DA:768,1
DA:769,1
DA:770,1
DA:771,1
DA:772,1
DA:773,1
DA:774,1
DA:775,1
DA:776,1
DA:777,1
DA:779,13
DA:780,13
DA:781,13
DA:782,13
DA:783,13
DA:784,13
DA:785,13
DA:786,13
DA:788,13
DA:790,1
DA:793,1
DA:795,1
DA:796,1
DA:797,1
DA:798,1
DA:799,1
DA:802,1
DA:810,1
DA:811,1
DA:812,1
DA:813,1
DA:814,1
DA:816,1
DA:817,1
DA:820,1
DA:823,1
DA:824,1
DA:825,1
DA:826,1
DA:827,1
DA:829,1
DA:830,1
DA:833,1
DA:835,1
DA:836,1
DA:837,1
DA:838,1
DA:841,1
DA:843,1
DA:844,1
DA:847,1
DA:848,1
DA:853,1
DA:854,1
DA:857,1
BRF:0
BRH:0
LF:565
LH:543
end_of_record
SF:/app/src/tools/narrator.rs
FN:345,_RNvNtNtCs4a0SCptkpqe_6glossa5tools8narrator10add_return
FN:167,_RNvNtNtCs4a0SCptkpqe_6glossa5tools8narrator11add_binding
FN:548,_RNvNtNtCs4a0SCptkpqe_6glossa5tools8narrator11tell_lambda
FN:337,_RNvNtNtCs4a0SCptkpqe_6glossa5tools8narrator12add_continue
FN:392,_RNvNtNtCs4a0SCptkpqe_6glossa5tools8narrator12add_type_def
FN:186,_RNvNtNtCs4a0SCptkpqe_6glossa5tools8narrator12format_exprs
FN:197,_RNvNtNtCs4a0SCptkpqe_6glossa5tools8narrator12format_types
FN:110,_RNvNtNtCs4a0SCptkpqe_6glossa5tools8narrator13add_statement
FN:431,_RNvNtNtCs4a0SCptkpqe_6glossa5tools8narrator13add_test_decl
FN:413,_RNvNtNtCs4a0SCptkpqe_6glossa5tools8narrator13add_trait_def
FN:177,_RNvNtNtCs4a0SCptkpqe_6glossa5tools8narrator14add_assignment
FN:217,_RNvNtNtCs4a0SCptkpqe_6glossa5tools8narrator14add_expression
FN:422,_RNvNtNtCs4a0SCptkpqe_6glossa5tools8narrator14add_trait_impl
FN:517,_RNvNtNtCs4a0SCptkpqe_6glossa5tools8narrator14tell_verb_call
FN:358,_RNvNtNtCs4a0SCptkpqe_6glossa5tools8narrator16add_function_def
FN:529,_RNvNtNtCs4a0SCptkpqe_6glossa5tools8narrator16tell_method_call
FN:521,_RNvNtNtCs4a0SCptkpqe_6glossa5tools8narrator18tell_array_literal
FN:525,_RNvNtNtCs4a0SCptkpqe_6glossa5tools8narrator18tell_function_call
FN:533,_RNvNtNtCs4a0SCptkpqe_6glossa5tools8narrator25tell_struct_instantiation
FN:235,_RNvNtNtCs4a0SCptkpqe_6glossa5tools8narrator6add_if
FN:95,_RNvNtNtCs4a0SCptkpqe_6glossa5tools8narrator6indent
FN:284,_RNvNtNtCs4a0SCptkpqe_6glossa5tools8narrator7add_for
FN:329,_RNvNtNtCs4a0SCptkpqe_6glossa5tools8narrator9add_break
FN:303,_RNvNtNtCs4a0SCptkpqe_6glossa5tools8narrator9add_match
FN:208,_RNvNtNtCs4a0SCptkpqe_6glossa5tools8narrator9add_print
FN:226,_RNvNtNtCs4a0SCptkpqe_6glossa5tools8narrator9add_query
FN:266,_RNvNtNtCs4a0SCptkpqe_6glossa5tools8narrator9add_while
FN:455,_RNvNtNtCs4a0SCptkpqe_6glossa5tools8narrator9tell_expr
FN:50,_RNvNtNtCs4a0SCptkpqe_6glossa5tools8narrator9tell_tale
FN:566,_RNvNtNtCs4a0SCptkpqe_6glossa5tools8narrator9tell_type
FN:592,_RNvNtNtNtCs14PW5HJOtOs_6glossa5tools8narrator5testss_15test_bard_basic
FN:604,_RNvNtNtNtCs14PW5HJOtOs_6glossa5tools8narrator5testss_15test_bard_print
FN:615,_RNvNtNtNtCs14PW5HJOtOs_6glossa5tools8narrator5testss_27test_tell_expr_all_variants
FN:753,_RNvNtNtNtCs14PW5HJOtOs_6glossa5tools8narrator5testss_32test_tell_statement_all_variants
FN:345,_RNvNtNtCs14PW5HJOtOs_6glossa5tools8narrator10add_return
FN:167,_RNvNtNtCs14PW5HJOtOs_6glossa5tools8narrator11add_binding
FN:548,_RNvNtNtCs14PW5HJOtOs_6glossa5tools8narrator11tell_lambda
FN:337,_RNvNtNtCs14PW5HJOtOs_6glossa5tools8narrator12add_continue
FN:392,_RNvNtNtCs14PW5HJOtOs_6glossa5tools8narrator12add_type_def
FN:186,_RNvNtNtCs14PW5HJOtOs_6glossa5tools8narrator12format_exprs
FN:197,_RNvNtNtCs14PW5HJOtOs_6glossa5tools8narrator12format_types
FN:110,_RNvNtNtCs14PW5HJOtOs_6glossa5tools8narrator13add_statement
FN:431,_RNvNtNtCs14PW5HJOtOs_6glossa5tools8narrator13add_test_decl
FN:413,_RNvNtNtCs14PW5HJOtOs_6glossa5tools8narrator13add_trait_def
FN:177,_RNvNtNtCs14PW5HJOtOs_6glossa5tools8narrator14add_assignment
FN:217,_RNvNtNtCs14PW5HJOtOs_6glossa5tools8narrator14add_expression
FN:422,_RNvNtNtCs14PW5HJOtOs_6glossa5tools8narrator14add_trait_impl
FN:517,_RNvNtNtCs14PW5HJOtOs_6glossa5tools8narrator14tell_verb_call
FN:358,_RNvNtNtCs14PW5HJOtOs_6glossa5tools8narrator16add_function_def
FN:529,_RNvNtNtCs14PW5HJOtOs_6glossa5tools8narrator16tell_method_call
FN:521,_RNvNtNtCs14PW5HJOtOs_6glossa5tools8narrator18tell_array_literal
FN:525,_RNvNtNtCs14PW5HJOtOs_6glossa5tools8narrator18tell_function_call
FN:533,_RNvNtNtCs14PW5HJOtOs_6glossa5tools8narrator25tell_struct_instantiation
FN:235,_RNvNtNtCs14PW5HJOtOs_6glossa5tools8narrator6add_if
FN:95,_RNvNtNtCs14PW5HJOtOs_6glossa5tools8narrator6indent
FN:284,_RNvNtNtCs14PW5HJOtOs_6glossa5tools8narrator7add_for
FN:329,_RNvNtNtCs14PW5HJOtOs_6glossa5tools8narrator9add_break
FN:303,_RNvNtNtCs14PW5HJOtOs_6glossa5tools8narrator9add_match
FN:208,_RNvNtNtCs14PW5HJOtOs_6glossa5tools8narrator9add_print
FN:226,_RNvNtNtCs14PW5HJOtOs_6glossa5tools8narrator9add_query
FN:266,_RNvNtNtCs14PW5HJOtOs_6glossa5tools8narrator9add_while
FN:455,_RNvNtNtCs14PW5HJOtOs_6glossa5tools8narrator9tell_expr
FN:50,_RNvNtNtCs14PW5HJOtOs_6glossa5tools8narrator9tell_tale
FN:566,_RNvNtNtCs14PW5HJOtOs_6glossa5tools8narrator9tell_type
FNDA:2,_RNvNtNtCs4a0SCptkpqe_6glossa5tools8narrator10add_return
FNDA:4,_RNvNtNtCs4a0SCptkpqe_6glossa5tools8narrator11add_binding
FNDA:3,_RNvNtNtCs4a0SCptkpqe_6glossa5tools8narrator11tell_lambda
FNDA:1,_RNvNtNtCs4a0SCptkpqe_6glossa5tools8narrator12add_continue
FNDA:1,_RNvNtNtCs4a0SCptkpqe_6glossa5tools8narrator12add_type_def
FNDA:32,_RNvNtNtCs4a0SCptkpqe_6glossa5tools8narrator12format_exprs
FNDA:1,_RNvNtNtCs4a0SCptkpqe_6glossa5tools8narrator12format_types
FNDA:54,_RNvNtNtCs4a0SCptkpqe_6glossa5tools8narrator13add_statement
FNDA:1,_RNvNtNtCs4a0SCptkpqe_6glossa5tools8narrator13add_test_decl
FNDA:1,_RNvNtNtCs4a0SCptkpqe_6glossa5tools8narrator13add_trait_def
FNDA:1,_RNvNtNtCs4a0SCptkpqe_6glossa5tools8narrator14add_assignment
FNDA:23,_RNvNtNtCs4a0SCptkpqe_6glossa5tools8narrator14add_expression
FNDA:1,_RNvNtNtCs4a0SCptkpqe_6glossa5tools8narrator14add_trait_impl
FNDA:1,_RNvNtNtCs4a0SCptkpqe_6glossa5tools8narrator14tell_verb_call
FNDA:10,_RNvNtNtCs4a0SCptkpqe_6glossa5tools8narrator16add_function_def
FNDA:1,_RNvNtNtCs4a0SCptkpqe_6glossa5tools8narrator16tell_method_call
FNDA:1,_RNvNtNtCs4a0SCptkpqe_6glossa5tools8narrator18tell_array_literal
FNDA:1,_RNvNtNtCs4a0SCptkpqe_6glossa5tools8narrator18tell_function_call
FNDA:1,_RNvNtNtCs4a0SCptkpqe_6glossa5tools8narrator25tell_struct_instantiation
FNDA:0,_RNvNtNtCs4a0SCptkpqe_6glossa5tools8narrator6add_if
FNDA:55,_RNvNtNtCs4a0SCptkpqe_6glossa5tools8narrator6indent
FNDA:1,_RNvNtNtCs4a0SCptkpqe_6glossa5tools8narrator7add_for
FNDA:1,_RNvNtNtCs4a0SCptkpqe_6glossa5tools8narrator9add_break
FNDA:1,_RNvNtNtCs4a0SCptkpqe_6glossa5tools8narrator9add_match
FNDA:4,_RNvNtNtCs4a0SCptkpqe_6glossa5tools8narrator9add_print
FNDA:1,_RNvNtNtCs4a0SCptkpqe_6glossa5tools8narrator9add_query
FNDA:1,_RNvNtNtCs4a0SCptkpqe_6glossa5tools8narrator9add_while
FNDA:64,_RNvNtNtCs4a0SCptkpqe_6glossa5tools8narrator9tell_expr
FNDA:57,_RNvNtNtCs4a0SCptkpqe_6glossa5tools8narrator9tell_tale
FNDA:23,_RNvNtNtCs4a0SCptkpqe_6glossa5tools8narrator9tell_type
FNDA:1,_RNvNtNtNtCs14PW5HJOtOs_6glossa5tools8narrator5testss_15test_bard_basic
FNDA:1,_RNvNtNtNtCs14PW5HJOtOs_6glossa5tools8narrator5testss_15test_bard_print
FNDA:1,_RNvNtNtNtCs14PW5HJOtOs_6glossa5tools8narrator5testss_27test_tell_expr_all_variants
FNDA:1,_RNvNtNtNtCs14PW5HJOtOs_6glossa5tools8narrator5testss_32test_tell_statement_all_variants
FNDA:2,_RNvNtNtCs14PW5HJOtOs_6glossa5tools8narrator10add_return
FNDA:2,_RNvNtNtCs14PW5HJOtOs_6glossa5tools8narrator11add_binding
FNDA:1,_RNvNtNtCs14PW5HJOtOs_6glossa5tools8narrator11tell_lambda
FNDA:1,_RNvNtNtCs14PW5HJOtOs_6glossa5tools8narrator12add_continue
FNDA:0,_RNvNtNtCs14PW5HJOtOs_6glossa5tools8narrator12add_type_def
FNDA:6,_RNvNtNtCs14PW5HJOtOs_6glossa5tools8narrator12format_exprs
FNDA:0,_RNvNtNtCs14PW5HJOtOs_6glossa5tools8narrator12format_types
FNDA:10,_RNvNtNtCs14PW5HJOtOs_6glossa5tools8narrator13add_statement
FNDA:0,_RNvNtNtCs14PW5HJOtOs_6glossa5tools8narrator13add_test_decl
FNDA:0,_RNvNtNtCs14PW5HJOtOs_6glossa5tools8narrator13add_trait_def
FNDA:0,_RNvNtNtCs14PW5HJOtOs_6glossa5tools8narrator14add_assignment
FNDA:0,_RNvNtNtCs14PW5HJOtOs_6glossa5tools8narrator14add_expression
FNDA:0,_RNvNtNtCs14PW5HJOtOs_6glossa5tools8narrator14add_trait_impl
FNDA:1,_RNvNtNtCs14PW5HJOtOs_6glossa5tools8narrator14tell_verb_call
FNDA:0,_RNvNtNtCs14PW5HJOtOs_6glossa5tools8narrator16add_function_def
FNDA:1,_RNvNtNtCs14PW5HJOtOs_6glossa5tools8narrator16tell_method_call
FNDA:1,_RNvNtNtCs14PW5HJOtOs_6glossa5tools8narrator18tell_array_literal
FNDA:1,_RNvNtNtCs14PW5HJOtOs_6glossa5tools8narrator18tell_function_call
FNDA:1,_RNvNtNtCs14PW5HJOtOs_6glossa5tools8narrator25tell_struct_instantiation
FNDA:0,_RNvNtNtCs14PW5HJOtOs_6glossa5tools8narrator6add_if
FNDA:11,_RNvNtNtCs14PW5HJOtOs_6glossa5tools8narrator6indent
FNDA:1,_RNvNtNtCs14PW5HJOtOs_6glossa5tools8narrator7add_for
FNDA:1,_RNvNtNtCs14PW5HJOtOs_6glossa5tools8narrator9add_break
FNDA:1,_RNvNtNtCs14PW5HJOtOs_6glossa5tools8narrator9add_match
FNDA:1,_RNvNtNtCs14PW5HJOtOs_6glossa5tools8narrator9add_print
FNDA:1,_RNvNtNtCs14PW5HJOtOs_6glossa5tools8narrator9add_query
FNDA:0,_RNvNtNtCs14PW5HJOtOs_6glossa5tools8narrator9add_while
FNDA:50,_RNvNtNtCs14PW5HJOtOs_6glossa5tools8narrator9tell_expr
FNDA:3,_RNvNtNtCs14PW5HJOtOs_6glossa5tools8narrator9tell_tale
FNDA:0,_RNvNtNtCs14PW5HJOtOs_6glossa5tools8narrator9tell_type
FNF:34
FNH:33
DA:50,60
DA:51,60
DA:52,60
DA:53,60
DA:54,60
DA:55,60
DA:56,60
DA:57,60
DA:58,60
DA:59,60
DA:60,60
DA:61,60
DA:62,60
DA:63,60
DA:64,60
DA:67,60
DA:68,54
DA:69,54
DA:72,60
DA:73,60
DA:74,60
DA:75,60
DA:76,60
DA:77,60
DA:80,60
DA:81,60
DA:95,66
DA:96,66
DA:97,66
DA:110,64
DA:111,64
DA:113,64
DA:115,6
DA:116,6
DA:117,6
DA:118,6
DA:119,1
DA:120,1
DA:122,5
DA:123,23
DA:124,2
DA:126,0
DA:127,0
DA:128,0
DA:129,0
DA:130,1
DA:131,1
DA:134,2
DA:135,2
DA:136,2
DA:137,2
DA:138,2
DA:139,2
DA:141,2
DA:142,2
DA:143,4
DA:145,10
DA:146,10
DA:147,10
DA:148,10
DA:149,10
DA:150,1
DA:151,1
DA:153,1
DA:154,1
DA:157,1
DA:158,1
DA:160,1
DA:161,1
DA:162,1
DA:165,64
DA:167,6
DA:168,6
DA:169,6
DA:170,6
DA:171,6
DA:172,6
DA:173,6
DA:175,6
DA:177,1
DA:178,1
DA:179,1
DA:180,1
DA:181,1
DA:182,1
DA:184,1
DA:186,38
DA:187,38
DA:188,38
DA:189,33
DA:190,2
DA:191,31
DA:192,33
DA:194,38
DA:195,38
DA:197,1
DA:198,1
DA:199,3
DA:200,3
DA:201,2
DA:202,2
DA:203,3
DA:205,1
DA:206,1
DA:208,5
DA:209,5
DA:210,5
DA:211,5
DA:212,5
DA:213,5
DA:215,5
DA:217,23
DA:218,23
DA:219,23
DA:220,23
DA:221,23
DA:222,23
DA:224,23
DA:226,2
DA:227,2
DA:228,2
DA:229,2
DA:230,2
DA:231,2
DA:233,2
DA:235,0
DA:236,0
DA:237,0
DA:238,0
DA:239,0
DA:240,0
DA:241,0
DA:242,0
DA:243,0
DA:244,0
DA:245,0
DA:246,0
DA:247,0
DA:250,0
DA:251,0
DA:252,0
DA:254,0
DA:255,0
DA:256,0
DA:257,0
DA:258,0
DA:260,0
DA:261,0
DA:262,0
DA:263,0
DA:264,0
DA:266,1
DA:267,1
DA:268,1
DA:269,1
DA:270,1
DA:271,1
DA:272,1
DA:273,1
DA:274,1
DA:275,1
DA:276,1
DA:277,1
DA:279,1
DA:280,1
DA:281,1
DA:282,1
DA:284,2
DA:285,2
DA:286,2
DA:287,2
DA:288,2
DA:289,2
DA:290,2
DA:291,2
DA:292,2
DA:293,2
DA:294,2
DA:295,2
DA:296,2
DA:298,2
DA:299,1
DA:300,1
DA:301,2
DA:303,2
DA:304,2
DA:305,2
DA:306,2
DA:307,2
DA:308,2
DA:309,2
DA:310,2
DA:311,2
DA:312,2
DA:313,2
DA:314,2
DA:316,2
DA:317,2
DA:318,2
DA:319,2
DA:320,2
DA:321,2
DA:323,2
DA:324,1
DA:325,1
DA:327,2
DA:329,2
DA:330,2
DA:331,2
DA:332,2
DA:333,2
DA:335,2
DA:337,2
DA:338,2
DA:339,2
DA:340,2
DA:341,2
DA:343,2
DA:345,4
DA:346,4
DA:347,2
DA:349,2
DA:351,4
DA:352,4
DA:353,4
DA:354,4
DA:356,4
DA:358,10
DA:359,10
DA:360,10
DA:361,10
DA:362,10
DA:363,10
DA:364,10
DA:365,10
DA:366,10
DA:367,10
DA:368,10
DA:369,1
DA:370,0
DA:371,1
DA:372,1
DA:373,1
DA:376,10
DA:377,10
DA:378,10
DA:379,10
DA:381,10
DA:382,10
DA:383,10
DA:384,10
DA:385,10
DA:387,10
DA:388,0
DA:389,0
DA:390,10
DA:392,1
DA:393,1
DA:394,1
DA:395,1
DA:396,1
DA:397,1
DA:398,1
DA:399,1
DA:400,1
DA:401,0
DA:402,1
DA:403,1
DA:405,1
DA:406,1
DA:407,1
DA:408,1
DA:409,1
DA:411,1
DA:413,1
DA:414,1
DA:415,1
DA:416,1
DA:417,1
DA:418,1
DA:420,1
DA:422,1
DA:423,1
DA:424,1
DA:425,1
DA:426,1
DA:427,1
DA:429,1
DA:431,1
DA:432,1
DA:433,1
DA:434,1
DA:435,1
DA:436,1
DA:437,1
DA:438,1
DA:439,1
DA:440,1
DA:441,1
DA:442,1
DA:444,1
DA:445,0
DA:446,0
DA:447,1
DA:455,114
DA:456,114
DA:457,7
DA:458,39
DA:459,6
DA:460,17
DA:461,2
DA:462,2
DA:463,2
DA:465,2
DA:466,2
DA:469,3
DA:470,3
DA:471,3
DA:473,3
DA:474,3
DA:476,2
DA:477,2
DA:478,4
DA:479,2
DA:480,2
DA:481,2
DA:482,2
DA:483,2
DA:484,2
DA:486,2
DA:488,2
DA:489,2
DA:490,2
DA:491,2
DA:493,2
DA:494,2
DA:495,2
DA:496,2
DA:498,4
DA:499,4
DA:500,4
DA:501,4
DA:502,2
DA:503,2
DA:505,2
DA:506,2
DA:508,2
DA:509,2
DA:511,2
DA:512,2
DA:515,114
DA:517,2
DA:518,2
DA:519,2
DA:521,2
DA:522,2
DA:523,2
DA:525,2
DA:526,2
DA:527,2
DA:529,2
DA:530,2
DA:531,2
DA:533,2
DA:534,2
DA:535,2
DA:536,2
DA:537,2
DA:538,2
DA:539,2
DA:540,1
DA:541,0
DA:542,1
DA:543,1
DA:545,2
DA:546,2
DA:548,4
DA:549,4
DA:550,4
DA:551,4
DA:552,4
DA:553,4
DA:554,2
DA:555,2
DA:557,4
DA:558,4
DA:566,23
DA:567,23
DA:568,8
DA:569,3
DA:570,3
DA:571,1
DA:572,1
DA:573,1
DA:574,1
DA:575,1
DA:576,1
DA:577,1
DA:578,1
DA:580,1
DA:581,1
DA:583,23
DA:592,1
DA:593,1
DA:594,1
DA:595,1
DA:596,1
DA:599,1
DA:600,1
DA:601,1
DA:604,1
DA:605,1
DA:606,1
DA:607,1
DA:608,1
DA:610,1
DA:611,1
DA:612,1
DA:615,1
DA:619,1
DA:620,1
DA:621,1
DA:622,1
DA:623,1
DA:624,1
DA:625,1
DA:626,1
DA:627,1
DA:628,1
DA:629,1
DA:630,1
DA:631,1
DA:632,1
DA:633,1
DA:634,1
DA:635,1
DA:636,1
DA:637,1
DA:638,1
DA:639,1
DA:640,1
DA:641,1
DA:642,1
DA:643,1
DA:644,1
DA:645,1
DA:646,1
DA:647,1
DA:648,1
DA:649,1
DA:650,1
DA:651,1
DA:652,1
DA:653,1
DA:654,1
DA:655,1
DA:656,1
DA:657,1
DA:658,1
DA:659,1
DA:660,1
DA:661,1
DA:662,1
DA:663,1
DA:664,1
DA:665,1
DA:666,1
DA:667,1
DA:668,1
DA:669,1
DA:670,1
DA:671,1
DA:672,1
DA:673,1
DA:674,1
DA:675,1
DA:676,1
DA:677,1
DA:678,1
DA:679,1
DA:680,1
DA:681,1
DA:682,1
DA:683,1
DA:684,1
DA:685,1
DA:686,1
DA:687,1
DA:688,1
DA:689,1
DA:690,1
DA:691,1
DA:692,1
DA:693,1
DA:694,1
DA:695,1
DA:696,1
DA:697,1
DA:698,1
DA:699,1
DA:700,1
DA:701,1
DA:702,1
DA:703,1
DA:704,1
DA:705,1
DA:706,1
DA:707,1
DA:708,1
DA:709,1
DA:710,1
DA:711,1
DA:712,1
DA:713,1
DA:714,1
DA:715,1
DA:716,1
DA:717,1
DA:718,1
DA:719,1
DA:720,1
DA:721,1
DA:722,1
DA:723,1
DA:724,1
DA:725,1
DA:726,1
DA:727,1
DA:728,1
DA:729,1
DA:730,1
DA:731,1
DA:732,1
DA:733,1
DA:734,1
DA:735,1
DA:736,1
DA:737,1
DA:738,1
DA:739,1
DA:742,24
DA:743,24
DA:744,24
DA:745,24
DA:746,24
DA:747,24
DA:748,24
DA:750,1
DA:753,1
DA:756,1
DA:757,1
DA:758,1
DA:759,1
DA:761,1
DA:762,1
DA:763,1
DA:764,1
DA:765,1
DA:766,1
DA:767,1
DA:768,1
DA:769,1
DA:770,1
DA:771,1
DA:772,1
DA:773,1
DA:774,1
DA:775,1
DA:776,1
DA:777,1
DA:780,7
DA:781,7
DA:782,7
DA:783,7
DA:785,1
BRF:0
BRH:0
LF:575
LH:538
end_of_record
SF:/app/src/tools/repl.rs
FN:296,_RNvMs_NtNtCs4a0SCptkpqe_6glossa5tools4replNtB4_11ReplContext3new
FN:304,_RNvMs_NtNtCs4a0SCptkpqe_6glossa5tools4replNtB4_11ReplContext7execute
FN:129,_RNvNtNtCs4a0SCptkpqe_6glossa5tools4repl12print_banner
FN:59,_RNvNtNtCs4a0SCptkpqe_6glossa5tools4repl8run_repl
FN:256,_RNvXNtNtCs4a0SCptkpqe_6glossa5tools4replNtB2_10ReplOutputNtNtCs4kUJL3MZFFz_4core3fmt7Display3fmt
FN:141,_RINvNtNtCs4a0SCptkpqe_6glossa5tools4repl10print_helpNtNtNtCsaa59N1qzrfe_3std2io5stdio6StdoutEB6_
FN:67,_RINvNtNtCs4a0SCptkpqe_6glossa5tools4repl14run_repl_innerNtNtNtCsaa59N1qzrfe_3std2io5stdio9StdinLockNtBU_6StdoutEB6_
FN:173,_RINvNtNtCs4a0SCptkpqe_6glossa5tools4repl9print_envNtNtNtCsaa59N1qzrfe_3std2io5stdio6StdoutEB6_
FN:177,_RNCINvNtNtCs4a0SCptkpqe_6glossa5tools4repl9print_envNtNtNtCsaa59N1qzrfe_3std2io5stdio6StdoutE0B8_
FN:332,_RNCNvMs_NtNtCs4a0SCptkpqe_6glossa5tools4replNtB6_11ReplContext7execute0Ba_
FN:59,_RNvNtNtCs14PW5HJOtOs_6glossa5tools4repl8run_repl
FN:141,_RINvNtNtCs14PW5HJOtOs_6glossa5tools4repl10print_helpINtNtCsauO83Ko6oyK_5alloc3vec3VechEEB6_
FN:67,_RINvNtNtCs14PW5HJOtOs_6glossa5tools4repl14run_repl_innerINtNtNtCsaa59N1qzrfe_3std2io6cursor6CursorReEINtNtCsauO83Ko6oyK_5alloc3vec3VechEEB6_
FN:173,_RINvNtNtCs14PW5HJOtOs_6glossa5tools4repl9print_envINtNtCsauO83Ko6oyK_5alloc3vec3VechEEB6_
FN:177,_RNCINvNtNtCs14PW5HJOtOs_6glossa5tools4repl9print_envINtNtCsauO83Ko6oyK_5alloc3vec3VechEE0B8_
FN:332,_RNCNvMs_NtNtCs14PW5HJOtOs_6glossa5tools4replNtB6_11ReplContext7execute0Ba_
FN:296,_RNvMs_NtNtCs14PW5HJOtOs_6glossa5tools4replNtB4_11ReplContext3new
FN:304,_RNvMs_NtNtCs14PW5HJOtOs_6glossa5tools4replNtB4_11ReplContext7execute
FN:129,_RNvNtNtCs14PW5HJOtOs_6glossa5tools4repl12print_banner
FN:256,_RNvXNtNtCs14PW5HJOtOs_6glossa5tools4replNtB2_10ReplOutputNtNtCs4kUJL3MZFFz_4core3fmt7Display3fmt
FN:481,_RNvNtNtNtCs14PW5HJOtOs_6glossa5tools4repl5testss_20test_print_env_empty
FN:437,_RNvNtNtNtCs14PW5HJOtOs_6glossa5tools4repl5testss_22test_repl_env_coverage
FN:417,_RNvNtNtNtCs14PW5HJOtOs_6glossa5tools4repl5testss_22test_repl_source_limit
FN:398,_RNvNtNtNtCs14PW5HJOtOs_6glossa5tools4repl5testss_23test_repl_binding_limit
FN:612,_RNvNtNtNtCs14PW5HJOtOs_6glossa5tools4repl5testss_23test_run_repl_inner_eof
FN:466,_RNvNtNtNtCs14PW5HJOtOs_6glossa5tools4repl5testss_24test_print_help_coverage
FN:533,_RNvNtNtNtCs14PW5HJOtOs_6glossa5tools4repl5testss_24test_repl_output_display
FN:598,_RNvNtNtNtCs14PW5HJOtOs_6glossa5tools4repl5testss_24test_run_repl_inner_help
FN:475,_RNvNtNtNtCs14PW5HJOtOs_6glossa5tools4repl5testss_26test_print_banner_coverage
FN:502,_RNvNtNtNtCs14PW5HJOtOs_6glossa5tools4repl5testss_26test_repl_execute_variants
FN:570,_RNvNtNtNtCs14PW5HJOtOs_6glossa5tools4repl5testss_28test_run_repl_inner_workflow
FN:625,_RNvNtNtNtCs14PW5HJOtOs_6glossa5tools4repl5testss_32test_run_repl_inner_error_output
FNDA:0,_RNvMs_NtNtCs4a0SCptkpqe_6glossa5tools4replNtB4_11ReplContext3new
FNDA:0,_RNvMs_NtNtCs4a0SCptkpqe_6glossa5tools4replNtB4_11ReplContext7execute
FNDA:0,_RNvNtNtCs4a0SCptkpqe_6glossa5tools4repl12print_banner
FNDA:0,_RNvNtNtCs4a0SCptkpqe_6glossa5tools4repl8run_repl
FNDA:0,_RNvXNtNtCs4a0SCptkpqe_6glossa5tools4replNtB2_10ReplOutputNtNtCs4kUJL3MZFFz_4core3fmt7Display3fmt
FNDA:0,_RINvNtNtCs4a0SCptkpqe_6glossa5tools4repl10print_helpNtNtNtCsaa59N1qzrfe_3std2io5stdio6StdoutEB6_
FNDA:0,_RINvNtNtCs4a0SCptkpqe_6glossa5tools4repl14run_repl_innerNtNtNtCsaa59N1qzrfe_3std2io5stdio9StdinLockNtBU_6StdoutEB6_
FNDA:0,_RINvNtNtCs4a0SCptkpqe_6glossa5tools4repl9print_envNtNtNtCsaa59N1qzrfe_3std2io5stdio6StdoutEB6_
FNDA:0,_RNCINvNtNtCs4a0SCptkpqe_6glossa5tools4repl9print_envNtNtNtCsaa59N1qzrfe_3std2io5stdio6StdoutE0B8_
FNDA:0,_RNCNvMs_NtNtCs4a0SCptkpqe_6glossa5tools4replNtB6_11ReplContext7execute0Ba_
FNDA:0,_RNvNtNtCs14PW5HJOtOs_6glossa5tools4repl8run_repl
FNDA:2,_RINvNtNtCs14PW5HJOtOs_6glossa5tools4repl10print_helpINtNtCsauO83Ko6oyK_5alloc3vec3VechEEB6_
FNDA:4,_RINvNtNtCs14PW5HJOtOs_6glossa5tools4repl14run_repl_innerINtNtNtCsaa59N1qzrfe_3std2io6cursor6CursorReEINtNtCsauO83Ko6oyK_5alloc3vec3VechEEB6_
FNDA:7,_RINvNtNtCs14PW5HJOtOs_6glossa5tools4repl9print_envINtNtCsauO83Ko6oyK_5alloc3vec3VechEEB6_
FNDA:1,_RNCINvNtNtCs14PW5HJOtOs_6glossa5tools4repl9print_envINtNtCsauO83Ko6oyK_5alloc3vec3VechEE0B8_
FNDA:1,_RNCNvMs_NtNtCs14PW5HJOtOs_6glossa5tools4replNtB6_11ReplContext7execute0Ba_
FNDA:11,_RNvMs_NtNtCs14PW5HJOtOs_6glossa5tools4replNtB4_11ReplContext3new
FNDA:60,_RNvMs_NtNtCs14PW5HJOtOs_6glossa5tools4replNtB4_11ReplContext7execute
FNDA:1,_RNvNtNtCs14PW5HJOtOs_6glossa5tools4repl12print_banner
FNDA:5,_RNvXNtNtCs14PW5HJOtOs_6glossa5tools4replNtB2_10ReplOutputNtNtCs4kUJL3MZFFz_4core3fmt7Display3fmt
FNDA:1,_RNvNtNtNtCs14PW5HJOtOs_6glossa5tools4repl5testss_20test_print_env_empty
FNDA:1,_RNvNtNtNtCs14PW5HJOtOs_6glossa5tools4repl5testss_22test_repl_env_coverage
FNDA:1,_RNvNtNtNtCs14PW5HJOtOs_6glossa5tools4repl5testss_22test_repl_source_limit
FNDA:1,_RNvNtNtNtCs14PW5HJOtOs_6glossa5tools4repl5testss_23test_repl_binding_limit
FNDA:1,_RNvNtNtNtCs14PW5HJOtOs_6glossa5tools4repl5testss_23test_run_repl_inner_eof
FNDA:1,_RNvNtNtNtCs14PW5HJOtOs_6glossa5tools4repl5testss_24test_print_help_coverage
FNDA:1,_RNvNtNtNtCs14PW5HJOtOs_6glossa5tools4repl5testss_24test_repl_output_display
FNDA:1,_RNvNtNtNtCs14PW5HJOtOs_6glossa5tools4repl5testss_24test_run_repl_inner_help
FNDA:1,_RNvNtNtNtCs14PW5HJOtOs_6glossa5tools4repl5testss_26test_print_banner_coverage
FNDA:1,_RNvNtNtNtCs14PW5HJOtOs_6glossa5tools4repl5testss_26test_repl_execute_variants
FNDA:1,_RNvNtNtNtCs14PW5HJOtOs_6glossa5tools4repl5testss_28test_run_repl_inner_workflow
FNDA:1,_RNvNtNtNtCs14PW5HJOtOs_6glossa5tools4repl5testss_32test_run_repl_inner_error_output
FNF:22
FNH:21
DA:59,0
DA:60,0
DA:61,0
DA:62,0
DA:63,0
DA:64,0
DA:67,4
DA:68,4
DA:72,10
DA:73,10
DA:75,10
DA:76,10
DA:79,10
DA:80,1
DA:81,1
DA:82,9
DA:84,9
DA:86,9
DA:87,0
DA:88,9
DA:91,9
DA:92,9
DA:93,3
DA:94,3
DA:96,6
DA:97,1
DA:98,1
DA:100,5
DA:101,1
DA:102,1
DA:103,1
DA:105,4
DA:106,2
DA:107,2
DA:109,2
DA:112,2
DA:113,1
DA:115,1
DA:117,1
DA:121,1
DA:126,4
DA:127,4
DA:129,1
DA:131,1
DA:132,1
DA:133,1
DA:134,1
DA:135,1
DA:136,1
DA:137,1
DA:138,1
DA:139,1
DA:141,2
DA:142,2
DA:143,2
DA:144,2
DA:145,2
DA:146,2
DA:147,2
DA:148,2
DA:149,2
DA:152,2
DA:154,2
DA:156,2
DA:157,2
DA:159,2
DA:161,2
DA:163,2
DA:166,2
DA:167,2
DA:168,2
DA:169,2
DA:170,2
DA:171,2
DA:173,7
DA:174,7
DA:176,3
DA:177,3
DA:179,3
DA:180,1
DA:181,1
DA:182,1
DA:183,1
DA:184,1
DA:185,1
DA:187,1
DA:188,1
DA:189,2
DA:191,2
DA:192,2
DA:193,2
DA:194,2
DA:195,2
DA:196,2
DA:197,2
DA:200,3
DA:201,3
DA:202,1
DA:204,2
DA:207,3
DA:208,3
DA:209,1
DA:211,2
DA:214,3
DA:215,3
DA:216,3
DA:217,3
DA:220,2
DA:222,4
DA:223,4
DA:224,4
DA:225,4
DA:226,4
DA:227,4
DA:229,4
DA:231,6
DA:232,7
DA:256,5
DA:257,5
DA:259,3
DA:260,3
DA:261,3
DA:263,3
DA:264,3
DA:266,3
DA:267,3
DA:269,3
DA:270,1
DA:272,2
DA:274,0
DA:275,3
DA:277,1
DA:278,1
DA:279,1
DA:280,1
DA:281,0
DA:282,1
DA:284,1
DA:286,5
DA:296,11
DA:297,11
DA:298,11
DA:299,11
DA:300,11
DA:301,11
DA:302,11
DA:304,60
DA:307,60
DA:308,1
DA:309,1
DA:310,1
DA:311,59
DA:316,59
DA:317,59
DA:318,52
DA:319,52
DA:320,59
DA:323,59
DA:324,1
DA:325,1
DA:326,1
DA:327,58
DA:331,58
DA:332,58
DA:337,57
DA:338,57
DA:339,0
DA:340,57
DA:344,57
DA:345,57
DA:350,57
DA:351,57
DA:352,55
DA:354,55
DA:355,55
DA:356,55
DA:357,55
DA:358,55
DA:362,55
DA:364,55
DA:365,55
DA:366,55
DA:367,55
DA:368,55
DA:375,2
DA:376,2
DA:381,0
DA:382,0
DA:383,2
DA:385,2
DA:386,2
DA:387,2
DA:390,60
DA:398,1
DA:399,1
DA:402,50
DA:403,50
DA:404,50
DA:408,1
DA:411,1
DA:412,1
DA:413,1
DA:414,1
DA:417,1
DA:418,1
DA:423,1
DA:425,1
DA:427,1
DA:428,1
DA:429,1
DA:430,1
DA:431,1
DA:432,1
DA:434,1
DA:437,1
DA:438,1
DA:441,1
DA:442,1
DA:443,1
DA:446,1
DA:449,1
DA:450,1
DA:451,1
DA:454,1
DA:457,1
DA:460,1
DA:461,1
DA:462,1
DA:463,1
DA:466,1
DA:468,1
DA:469,1
DA:470,1
DA:471,1
DA:472,1
DA:475,1
DA:477,1
DA:478,1
DA:481,1
DA:482,1
DA:483,1
DA:486,1
DA:487,1
DA:488,1
DA:492,1
DA:493,1
DA:495,1
DA:496,1
DA:497,1
DA:498,1
DA:499,1
DA:502,1
DA:503,1
DA:506,1
DA:508,1
DA:509,1
DA:510,1
DA:511,1
DA:513,1
DA:514,1
DA:515,1
DA:517,0
DA:521,1
DA:522,1
DA:523,1
DA:525,0
DA:529,1
DA:530,1
DA:533,1
DA:535,1
DA:536,1
DA:537,1
DA:538,1
DA:539,1
DA:540,1
DA:542,1
DA:543,1
DA:544,1
DA:546,1
DA:547,1
DA:548,1
DA:549,1
DA:550,1
DA:551,1
DA:552,1
DA:553,1
DA:554,1
DA:557,1
DA:558,1
DA:559,1
DA:560,1
DA:561,1
DA:562,1
DA:565,1
DA:566,1
DA:567,1
DA:570,1
DA:571,1
DA:572,1
DA:573,1
DA:574,1
DA:575,1
DA:576,1
DA:577,1
DA:578,1
DA:580,1
DA:581,1
DA:583,1
DA:585,1
DA:587,1
DA:588,1
DA:590,1
DA:592,1
DA:594,1
DA:595,1
DA:598,1
DA:599,1
DA:600,1
DA:601,1
DA:603,1
DA:604,1
DA:606,1
DA:607,1
DA:608,1
DA:609,1
DA:612,1
DA:614,1
DA:615,1
DA:616,1
DA:618,1
DA:619,1
DA:620,1
DA:621,1
DA:622,1
DA:625,1
DA:628,1
DA:629,1
DA:630,1
DA:632,1
DA:633,1
DA:635,1
DA:637,1
DA:638,1
DA:642,1
DA:643,1
DA:650,1
BRF:0
BRH:0
LF:348
LH:334
end_of_record
SF:/app/src/tools/report.rs
FN:206,_RNvMNtNtCs4a0SCptkpqe_6glossa5tools6reportNtB2_12ProgramStats10visit_expr
FN:200,_RNvMNtNtCs4a0SCptkpqe_6glossa5tools6reportNtB2_12ProgramStats11visit_exprs
FN:116,_RNvMNtNtCs4a0SCptkpqe_6glossa5tools6reportNtB2_12ProgramStats15visit_loop_body
FN:129,_RNvMNtNtCs4a0SCptkpqe_6glossa5tools6reportNtB2_12ProgramStats15visit_statement
FN:81,_RNvMNtNtCs4a0SCptkpqe_6glossa5tools6reportNtB2_12ProgramStats18visit_if_statement
FN:100,_RNvMNtNtCs4a0SCptkpqe_6glossa5tools6reportNtB2_12ProgramStats21visit_match_statement
FN:66,_RNvMNtNtCs4a0SCptkpqe_6glossa5tools6reportNtB2_12ProgramStats3new
FN:288,_RNvMs_NtNtCs4a0SCptkpqe_6glossa5tools6reportNtB4_12GlossaReport3new
FN:299,_RNvXs0_NtNtCs4a0SCptkpqe_6glossa5tools6reportNtB5_12GlossaReportNtNtCs4kUJL3MZFFz_4core3fmt7Display3fmt
FN:445,_RNvXs1_NtNtCs4a0SCptkpqe_6glossa5tools6reportNtB5_17CompilationReportNtNtCs4kUJL3MZFFz_4core3fmt7Display3fmt
FN:384,_RNCNvXs0_NtNtCs4a0SCptkpqe_6glossa5tools6reportNtB7_12GlossaReportNtNtCs4kUJL3MZFFz_4core3fmt7Display3fmt0Bb_
FN:385,_RNCNvXs0_NtNtCs4a0SCptkpqe_6glossa5tools6reportNtB7_12GlossaReportNtNtCs4kUJL3MZFFz_4core3fmt7Display3fmts_0Bb_
FN:206,_RNvMNtNtCs14PW5HJOtOs_6glossa5tools6reportNtB2_12ProgramStats10visit_expr
FN:200,_RNvMNtNtCs14PW5HJOtOs_6glossa5tools6reportNtB2_12ProgramStats11visit_exprs
FN:116,_RNvMNtNtCs14PW5HJOtOs_6glossa5tools6reportNtB2_12ProgramStats15visit_loop_body
FN:129,_RNvMNtNtCs14PW5HJOtOs_6glossa5tools6reportNtB2_12ProgramStats15visit_statement
FN:81,_RNvMNtNtCs14PW5HJOtOs_6glossa5tools6reportNtB2_12ProgramStats18visit_if_statement
FN:100,_RNvMNtNtCs14PW5HJOtOs_6glossa5tools6reportNtB2_12ProgramStats21visit_match_statement
FN:66,_RNvMNtNtCs14PW5HJOtOs_6glossa5tools6reportNtB2_12ProgramStats3new
FN:288,_RNvMs_NtNtCs14PW5HJOtOs_6glossa5tools6reportNtB4_12GlossaReport3new
FN:299,_RNvXs0_NtNtCs14PW5HJOtOs_6glossa5tools6reportNtB5_12GlossaReportNtNtCs4kUJL3MZFFz_4core3fmt7Display3fmt
FN:445,_RNvXs1_NtNtCs14PW5HJOtOs_6glossa5tools6reportNtB5_17CompilationReportNtNtCs4kUJL3MZFFz_4core3fmt7Display3fmt
FN:384,_RNCNvXs0_NtNtCs14PW5HJOtOs_6glossa5tools6reportNtB7_12GlossaReportNtNtCs4kUJL3MZFFz_4core3fmt7Display3fmt0Bb_
FN:385,_RNCNvXs0_NtNtCs14PW5HJOtOs_6glossa5tools6reportNtB7_12GlossaReportNtNtCs4kUJL3MZFFz_4core3fmt7Display3fmts_0Bb_
FN:509,_RNvNtNtNtCs14PW5HJOtOs_6glossa5tools6report5tests20create_dummy_program
FN:548,_RNvNtNtNtCs14PW5HJOtOs_6glossa5tools6report5testss_27test_program_stats_coverage
FN:756,_RNvNtNtNtCs14PW5HJOtOs_6glossa5tools6report5testss_31test_report_generation_coverage
FN:803,_RNvNtNtNtCs14PW5HJOtOs_6glossa5tools6report5testss_31test_report_manual_ast_coverage
FN:779,_RNvNtNtNtCs14PW5HJOtOs_6glossa5tools6report5testss_32test_compilation_report_coverage
FNDA:0,_RNvMNtNtCs4a0SCptkpqe_6glossa5tools6reportNtB2_12ProgramStats10visit_expr
FNDA:0,_RNvMNtNtCs4a0SCptkpqe_6glossa5tools6reportNtB2_12ProgramStats11visit_exprs
FNDA:0,_RNvMNtNtCs4a0SCptkpqe_6glossa5tools6reportNtB2_12ProgramStats15visit_loop_body
FNDA:0,_RNvMNtNtCs4a0SCptkpqe_6glossa5tools6reportNtB2_12ProgramStats15visit_statement
FNDA:0,_RNvMNtNtCs4a0SCptkpqe_6glossa5tools6reportNtB2_12ProgramStats18visit_if_statement
FNDA:0,_RNvMNtNtCs4a0SCptkpqe_6glossa5tools6reportNtB2_12ProgramStats21visit_match_statement
FNDA:0,_RNvMNtNtCs4a0SCptkpqe_6glossa5tools6reportNtB2_12ProgramStats3new
FNDA:0,_RNvMs_NtNtCs4a0SCptkpqe_6glossa5tools6reportNtB4_12GlossaReport3new
FNDA:0,_RNvXs0_NtNtCs4a0SCptkpqe_6glossa5tools6reportNtB5_12GlossaReportNtNtCs4kUJL3MZFFz_4core3fmt7Display3fmt
FNDA:0,_RNvXs1_NtNtCs4a0SCptkpqe_6glossa5tools6reportNtB5_17CompilationReportNtNtCs4kUJL3MZFFz_4core3fmt7Display3fmt
FNDA:0,_RNCNvXs0_NtNtCs4a0SCptkpqe_6glossa5tools6reportNtB7_12GlossaReportNtNtCs4kUJL3MZFFz_4core3fmt7Display3fmt0Bb_
FNDA:0,_RNCNvXs0_NtNtCs4a0SCptkpqe_6glossa5tools6reportNtB7_12GlossaReportNtNtCs4kUJL3MZFFz_4core3fmt7Display3fmts_0Bb_
FNDA:84,_RNvMNtNtCs14PW5HJOtOs_6glossa5tools6reportNtB2_12ProgramStats10visit_expr
FNDA:12,_RNvMNtNtCs14PW5HJOtOs_6glossa5tools6reportNtB2_12ProgramStats11visit_exprs
FNDA:4,_RNvMNtNtCs14PW5HJOtOs_6glossa5tools6reportNtB2_12ProgramStats15visit_loop_body
FNDA:41,_RNvMNtNtCs14PW5HJOtOs_6glossa5tools6reportNtB2_12ProgramStats15visit_statement
FNDA:3,_RNvMNtNtCs14PW5HJOtOs_6glossa5tools6reportNtB2_12ProgramStats18visit_if_statement
FNDA:2,_RNvMNtNtCs14PW5HJOtOs_6glossa5tools6reportNtB2_12ProgramStats21visit_match_statement
FNDA:6,_RNvMNtNtCs14PW5HJOtOs_6glossa5tools6reportNtB2_12ProgramStats3new
FNDA:2,_RNvMs_NtNtCs14PW5HJOtOs_6glossa5tools6reportNtB4_12GlossaReport3new
FNDA:2,_RNvXs0_NtNtCs14PW5HJOtOs_6glossa5tools6reportNtB5_12GlossaReportNtNtCs4kUJL3MZFFz_4core3fmt7Display3fmt
FNDA:2,_RNvXs1_NtNtCs14PW5HJOtOs_6glossa5tools6reportNtB5_17CompilationReportNtNtCs4kUJL3MZFFz_4core3fmt7Display3fmt
FNDA:1,_RNCNvXs0_NtNtCs14PW5HJOtOs_6glossa5tools6reportNtB7_12GlossaReportNtNtCs4kUJL3MZFFz_4core3fmt7Display3fmt0Bb_
FNDA:1,_RNCNvXs0_NtNtCs14PW5HJOtOs_6glossa5tools6reportNtB7_12GlossaReportNtNtCs4kUJL3MZFFz_4core3fmt7Display3fmts_0Bb_
FNDA:3,_RNvNtNtNtCs14PW5HJOtOs_6glossa5tools6report5tests20create_dummy_program
FNDA:1,_RNvNtNtNtCs14PW5HJOtOs_6glossa5tools6report5testss_27test_program_stats_coverage
FNDA:1,_RNvNtNtNtCs14PW5HJOtOs_6glossa5tools6report5testss_31test_report_generation_coverage
FNDA:1,_RNvNtNtNtCs14PW5HJOtOs_6glossa5tools6report5testss_31test_report_manual_ast_coverage
FNDA:1,_RNvNtNtNtCs14PW5HJOtOs_6glossa5tools6report5testss_32test_compilation_report_coverage
FNF:17
FNH:17
DA:66,6
DA:67,6
DA:68,6
DA:69,6
DA:70,6
DA:71,6
DA:74,29
DA:75,29
DA:76,29
DA:78,6
DA:79,6
DA:81,3
DA:82,3
DA:83,3
DA:84,3
DA:85,3
DA:86,3
DA:87,3
DA:88,3
DA:89,3
DA:90,3
DA:91,3
DA:92,3
DA:93,3
DA:94,3
DA:95,3
DA:96,3
DA:97,0
DA:98,3
DA:100,2
DA:101,2
DA:102,2
DA:103,2
DA:104,2
DA:105,2
DA:106,2
DA:107,2
DA:108,2
DA:109,1
DA:110,1
DA:111,1
DA:112,1
DA:114,2
DA:116,4
DA:117,4
DA:118,4
DA:119,4
DA:120,4
DA:121,4
DA:122,4
DA:123,4
DA:124,4
DA:125,0
DA:126,0
DA:127,4
DA:129,41
DA:130,41
DA:131,41
DA:133,41
DA:134,4
DA:135,4
DA:136,4
DA:137,4
DA:138,1
DA:139,1
DA:140,1
DA:141,4
DA:142,2
DA:143,3
DA:144,34
DA:145,34
DA:146,34
DA:149,3
DA:150,3
DA:151,3
DA:152,3
DA:153,3
DA:154,3
DA:155,2
DA:156,2
DA:157,2
DA:158,2
DA:159,2
DA:160,2
DA:161,2
DA:162,2
DA:163,2
DA:164,2
DA:170,3
DA:171,3
DA:172,3
DA:174,2
DA:175,2
DA:176,0
DA:177,0
DA:179,2
DA:180,2
DA:181,2
DA:182,2
DA:184,6
DA:185,2
DA:186,2
DA:187,2
DA:189,2
DA:190,2
DA:191,2
DA:192,2
DA:193,2
DA:194,0
DA:198,41
DA:200,12
DA:201,12
DA:202,1
DA:203,1
DA:204,12
DA:206,84
DA:207,84
DA:208,84
DA:209,1
DA:210,1
DA:211,1
DA:212,1
DA:213,1
DA:214,1
DA:215,1
DA:216,1
DA:217,1
DA:218,2
DA:219,2
DA:220,2
DA:221,2
DA:222,3
DA:223,3
DA:224,3
DA:225,4
DA:226,2
DA:227,2
DA:228,2
DA:229,12
DA:230,12
DA:231,12
DA:232,2
DA:233,2
DA:234,2
DA:235,2
DA:236,2
DA:237,4
DA:238,4
DA:239,4
DA:240,4
DA:241,4
DA:242,4
DA:243,4
DA:244,1
DA:245,1
DA:246,1
DA:247,1
DA:248,1
DA:249,1
DA:250,1
DA:251,1
DA:257,50
DA:259,84
DA:288,2
DA:289,2
DA:290,2
DA:291,2
DA:292,2
DA:293,2
DA:294,2
DA:295,2
DA:299,2
DA:300,2
DA:301,2
DA:302,2
DA:303,2
DA:304,2
DA:305,2
DA:308,2
DA:309,2
DA:310,2
DA:312,2
DA:313,2
DA:314,2
DA:316,2
DA:317,2
DA:318,2
DA:320,2
DA:321,2
DA:322,2
DA:325,2
DA:326,1
DA:327,1
DA:328,1
DA:329,1
DA:330,1
DA:332,2
DA:333,0
DA:334,0
DA:335,0
DA:336,0
DA:337,2
DA:339,2
DA:340,0
DA:341,0
DA:342,0
DA:343,0
DA:344,2
DA:346,2
DA:347,1
DA:348,1
DA:349,1
DA:350,1
DA:351,1
DA:353,2
DA:354,2
DA:355,2
DA:356,2
DA:357,2
DA:360,2
DA:361,2
DA:362,1
DA:363,1
DA:364,1
DA:366,1
DA:367,1
DA:370,2
DA:373,2
DA:374,2
DA:375,2
DA:376,1
DA:377,1
DA:378,2
DA:381,2
DA:382,2
DA:383,2
DA:384,2
DA:385,2
DA:387,2
DA:388,2
DA:389,2
DA:390,2
DA:393,1
DA:394,1
DA:396,2
DA:397,2
DA:445,2
DA:446,2
DA:447,2
DA:448,2
DA:449,2
DA:450,2
DA:451,2
DA:455,2
DA:456,2
DA:457,2
DA:461,2
DA:462,2
DA:463,2
DA:467,2
DA:468,2
DA:469,2
DA:473,2
DA:474,2
DA:475,2
DA:477,2
DA:478,2
DA:479,2
DA:483,2
DA:484,2
DA:485,2
DA:487,2
DA:488,2
DA:489,2
DA:492,2
DA:493,2
DA:494,2
DA:495,2
DA:496,2
DA:498,2
DA:499,2
DA:509,3
DA:510,3
DA:512,3
DA:514,3
DA:517,3
DA:518,3
DA:519,3
DA:520,3
DA:521,3
DA:522,3
DA:523,3
DA:524,3
DA:525,3
DA:528,3
DA:529,3
DA:530,3
DA:531,3
DA:532,3
DA:533,3
DA:534,3
DA:535,3
DA:536,3
DA:537,3
DA:538,3
DA:539,3
DA:540,3
DA:541,3
DA:542,3
DA:544,3
DA:545,3
DA:548,1
DA:549,1
DA:552,1
DA:553,1
DA:554,1
DA:555,1
DA:556,1
DA:557,1
DA:558,1
DA:559,1
DA:560,1
DA:561,1
DA:562,1
DA:563,1
DA:564,1
DA:565,1
DA:566,1
DA:567,1
DA:568,1
DA:569,1
DA:571,1
DA:572,1
DA:573,1
DA:574,1
DA:575,1
DA:576,1
DA:577,1
DA:579,1
DA:580,1
DA:581,1
DA:582,1
DA:583,1
DA:584,1
DA:585,1
DA:586,1
DA:587,1
DA:588,1
DA:589,1
DA:590,1
DA:591,1
DA:593,1
DA:594,1
DA:595,1
DA:596,1
DA:597,1
DA:598,1
DA:600,1
DA:601,1
DA:602,1
DA:603,1
DA:605,1
DA:606,1
DA:607,1
DA:608,1
DA:609,1
DA:610,1
DA:612,1
DA:613,1
DA:614,1
DA:615,1
DA:617,1
DA:618,1
DA:619,1
DA:620,1
DA:622,1
DA:623,1
DA:624,1
DA:625,1
DA:626,1
DA:627,1
DA:628,1
DA:629,1
DA:630,1
DA:631,1
DA:632,1
DA:633,1
DA:636,1
DA:637,1
DA:638,1
DA:639,1
DA:640,1
DA:641,1
DA:642,1
DA:643,1
DA:644,1
DA:645,1
DA:646,1
DA:647,1
DA:648,1
DA:649,1
DA:650,1
DA:651,1
DA:652,1
DA:653,1
DA:654,1
DA:655,1
DA:656,1
DA:657,1
DA:658,1
DA:659,1
DA:660,1
DA:661,1
DA:662,1
DA:663,1
DA:664,1
DA:665,1
DA:666,1
DA:667,1
DA:668,1
DA:669,1
DA:670,1
DA:671,1
DA:672,1
DA:673,1
DA:674,1
DA:675,1
DA:676,1
DA:677,1
DA:678,1
DA:679,1
DA:680,1
DA:681,1
DA:682,1
DA:683,1
DA:684,1
DA:685,1
DA:686,1
DA:687,1
DA:688,1
DA:689,1
DA:690,1
DA:691,1
DA:692,1
DA:693,1
DA:694,1
DA:695,1
DA:696,1
DA:697,1
DA:698,1
DA:699,1
DA:700,1
DA:701,1
DA:702,1
DA:703,1
DA:704,1
DA:705,1
DA:706,1
DA:707,1
DA:708,1
DA:709,1
DA:710,1
DA:711,1
DA:712,1
DA:713,1
DA:714,1
DA:715,1
DA:716,1
DA:717,1
DA:718,1
DA:719,1
DA:720,1
DA:721,1
DA:722,1
DA:723,1
DA:724,1
DA:725,1
DA:726,1
DA:727,1
DA:728,1
DA:729,1
DA:730,1
DA:731,1
DA:732,1
DA:733,1
DA:734,1
DA:735,1
DA:736,1
DA:737,1
DA:738,1
DA:739,1
DA:740,1
DA:741,1
DA:742,1
DA:744,1
DA:746,1
DA:747,1
DA:748,1
DA:749,1
DA:750,1
DA:751,1
DA:752,1
DA:753,1
DA:756,1
DA:757,1
DA:759,1
DA:761,1
DA:762,1
DA:765,1
DA:766,1
DA:768,1
DA:769,1
DA:770,1
DA:771,1
DA:772,1
DA:775,1
DA:776,1
DA:779,1
DA:780,1
DA:781,1
DA:782,1
DA:783,1
DA:784,1
DA:785,1
DA:786,1
DA:787,1
DA:788,1
DA:789,1
DA:791,1
DA:793,1
DA:794,1
DA:795,1
DA:796,1
DA:797,1
DA:798,1
DA:799,1
DA:800,1
DA:803,1
DA:805,1
DA:806,1
DA:808,1
DA:809,1
DA:810,1
DA:811,1
DA:812,1
DA:813,1
DA:814,1
DA:816,1
DA:817,1
DA:818,1
DA:819,1
DA:820,1
DA:821,1
DA:822,1
DA:823,1
DA:824,1
DA:825,1
DA:826,1
DA:827,1
DA:828,1
DA:829,1
DA:830,1
DA:831,1
DA:832,1
DA:833,1
DA:835,1
DA:836,1
DA:837,1
DA:838,1
DA:839,1
DA:840,1
DA:841,1
DA:843,1
DA:844,1
DA:845,1
DA:846,1
DA:847,1
DA:848,1
DA:849,1
DA:850,1
DA:851,1
DA:852,1
DA:853,1
DA:854,1
DA:855,1
DA:856,1
DA:857,1
DA:858,1
DA:859,1
DA:861,1
DA:862,1
DA:863,1
DA:864,1
DA:865,1
DA:866,1
DA:867,1
DA:868,1
DA:869,1
DA:871,1
DA:872,1
DA:873,1
DA:874,1
DA:876,1
DA:877,1
DA:878,1
DA:879,1
DA:880,1
DA:881,1
DA:882,1
DA:883,1
DA:884,1
DA:885,1
DA:887,1
DA:888,1
DA:889,1
DA:890,1
DA:892,1
DA:893,1
DA:894,1
DA:895,1
DA:897,1
DA:898,1
DA:899,1
DA:900,1
DA:901,1
DA:902,1
DA:904,1
DA:905,1
DA:906,1
DA:907,1
DA:908,1
DA:909,1
DA:910,1
DA:911,1
DA:912,1
DA:913,1
DA:914,1
DA:915,1
DA:916,1
DA:917,1
DA:918,1
DA:919,1
DA:920,1
DA:921,1
DA:922,1
DA:923,1
DA:924,1
DA:925,1
DA:926,1
DA:927,1
DA:928,1
DA:929,1
DA:930,1
DA:931,1
DA:932,1
DA:933,1
DA:934,1
DA:935,1
DA:936,1
DA:937,1
DA:938,1
DA:939,1
DA:940,1
DA:941,1
DA:942,1
DA:943,1
DA:944,1
DA:945,1
DA:946,1
DA:947,1
DA:948,1
DA:949,1
DA:950,1
DA:951,1
DA:952,1
DA:953,1
DA:954,1
DA:955,1
DA:956,1
DA:957,1
DA:958,1
DA:959,1
DA:960,1
DA:961,1
DA:962,1
DA:963,1
DA:964,1
DA:965,1
DA:966,1
DA:967,1
DA:968,1
DA:969,1
DA:970,1
DA:971,1
DA:972,1
DA:973,1
DA:974,1
DA:975,1
DA:976,1
DA:977,1
DA:978,1
DA:979,1
DA:980,1
DA:981,1
DA:982,1
DA:983,1
DA:984,1
DA:985,1
DA:986,1
DA:987,1
DA:988,1
DA:989,1
DA:990,1
DA:991,1
DA:992,1
DA:993,1
DA:994,1
DA:995,1
DA:996,1
DA:997,1
DA:998,1
DA:999,1
DA:1000,1
DA:1001,1
DA:1002,1
DA:1003,1
DA:1004,1
DA:1005,1
DA:1006,1
DA:1007,1
DA:1008,1
DA:1009,1
DA:1010,1
DA:1011,1
DA:1012,1
DA:1013,1
DA:1014,1
DA:1015,1
DA:1016,1
DA:1017,1
DA:1018,1
DA:1019,1
DA:1020,1
DA:1021,1
DA:1022,1
DA:1023,1
DA:1024,1
DA:1025,1
DA:1026,1
DA:1027,1
DA:1028,1
DA:1029,1
DA:1030,1
DA:1031,1
DA:1032,1
DA:1033,1
DA:1034,1
DA:1035,1
DA:1036,1
DA:1037,1
DA:1038,1
DA:1039,1
DA:1040,1
DA:1041,1
DA:1042,1
DA:1043,1
DA:1044,1
DA:1045,1
DA:1046,1
DA:1047,1
DA:1048,1
DA:1051,1
DA:1052,1
DA:1055,1
DA:1057,1
DA:1058,1
DA:1059,1
DA:1060,1
BRF:0
BRH:0
LF:780
LH:766
end_of_record
SF:/app/src/tools/runner.rs
FN:181,_RNvNtNtCs4a0SCptkpqe_6glossa5tools6runner10build_file
FN:409,_RNvNtNtCs4a0SCptkpqe_6glossa5tools6runner10check_file
FN:116,_RNvNtNtCs4a0SCptkpqe_6glossa5tools6runner11load_source
FN:435,_RNvNtNtCs4a0SCptkpqe_6glossa5tools6runner11report_file
FN:321,_RNvNtNtCs4a0SCptkpqe_6glossa5tools6runner12invoke_rustc
FN:60,_RNvNtNtCs4a0SCptkpqe_6glossa5tools6runner14analyze_source
FN:363,_RNvNtNtCs4a0SCptkpqe_6glossa5tools6runner14execute_binary
FN:488,_RNvNtNtCs4a0SCptkpqe_6glossa5tools6runner14highlight_file
FN:75,_RNvNtNtCs4a0SCptkpqe_6glossa5tools6runner15check_file_size
FN:295,_RNvNtNtCs4a0SCptkpqe_6glossa5tools6runner17compile_and_build
FN:69,_RNvNtNtCs4a0SCptkpqe_6glossa5tools6runner7compile
FN:269,_RNvNtNtCs4a0SCptkpqe_6glossa5tools6runner8run_file
FN:537,_RNvNtNtCs4a0SCptkpqe_6glossa5tools6runner9bard_file
FN:198,_RNCNvNtNtCs4a0SCptkpqe_6glossa5tools6runner10build_file0B7_
FN:210,_RNCNvNtNtCs4a0SCptkpqe_6glossa5tools6runner10build_files0_0B7_
FN:199,_RNCNvNtNtCs4a0SCptkpqe_6glossa5tools6runner10build_files_0B7_
FN:123,_RNCNvNtNtCs4a0SCptkpqe_6glossa5tools6runner11load_source0B7_
FN:323,_RNCNvNtNtCs4a0SCptkpqe_6glossa5tools6runner12invoke_rustc0B7_
FN:334,_RNCNvNtNtCs4a0SCptkpqe_6glossa5tools6runner12invoke_rustcs_0B7_
FN:61,_RNCNvNtNtCs4a0SCptkpqe_6glossa5tools6runner14analyze_source0B7_
FN:62,_RNCNvNtNtCs4a0SCptkpqe_6glossa5tools6runner14analyze_sources_0B7_
FN:733,_RNCNvNtNtNtCs14PW5HJOtOs_6glossa5tools6runner5testss_27test_run_file_rustc_missing0B9_
FN:198,_RNCNvNtNtCs14PW5HJOtOs_6glossa5tools6runner10build_file0B7_
FN:210,_RNCNvNtNtCs14PW5HJOtOs_6glossa5tools6runner10build_files0_0B7_
FN:199,_RNCNvNtNtCs14PW5HJOtOs_6glossa5tools6runner10build_files_0B7_
FN:123,_RNCNvNtNtCs14PW5HJOtOs_6glossa5tools6runner11load_source0B7_
FN:323,_RNCNvNtNtCs14PW5HJOtOs_6glossa5tools6runner12invoke_rustc0B7_
FN:334,_RNCNvNtNtCs14PW5HJOtOs_6glossa5tools6runner12invoke_rustcs_0B7_
FN:61,_RNCNvNtNtCs14PW5HJOtOs_6glossa5tools6runner14analyze_source0B7_
FN:62,_RNCNvNtNtCs14PW5HJOtOs_6glossa5tools6runner14analyze_sources_0B7_
FN:567,_RNvNtNtNtCs14PW5HJOtOs_6glossa5tools6runner5testss_18test_compile_hello
FN:855,_RNvNtNtNtCs14PW5HJOtOs_6glossa5tools6runner5testss_20test_bard_file_valid
FN:577,_RNvNtNtNtCs14PW5HJOtOs_6glossa5tools6runner5testss_20test_compile_binding
FN:802,_RNvNtNtNtCs14PW5HJOtOs_6glossa5tools6runner5testss_20test_run_rustc_error
FN:827,_RNvNtNtNtCs14PW5HJOtOs_6glossa5tools6runner5testss_21test_check_file_valid
FN:759,_RNvNtNtNtCs14PW5HJOtOs_6glossa5tools6runner5testss_21test_run_file_success
FN:868,_RNvNtNtNtCs14PW5HJOtOs_6glossa5tools6runner5testss_22test_report_file_valid
FN:788,_RNvNtNtNtCs14PW5HJOtOs_6glossa5tools6runner5testss_22test_run_compile_error
FN:676,_RNvNtNtNtCs14PW5HJOtOs_6glossa5tools6runner5testss_23test_build_file_success
FN:699,_RNvNtNtNtCs14PW5HJOtOs_6glossa5tools6runner5testss_24test_run_file_size_limit
FN:586,_RNvNtNtNtCs14PW5HJOtOs_6glossa5tools6runner5testss_25test_compile_full_program
FN:840,_RNvNtNtNtCs14PW5HJOtOs_6glossa5tools6runner5testss_25test_highlight_file_valid
FN:654,_RNvNtNtNtCs14PW5HJOtOs_6glossa5tools6runner5testss_26test_build_file_size_limit
FN:724,_RNvNtNtNtCs14PW5HJOtOs_6glossa5tools6runner5testss_27test_run_file_rustc_missing
FN:632,_RNvNtNtNtCs14PW5HJOtOs_6glossa5tools6runner5testss_29test_file_size_check_internal
FN:593,_RNvNtNtNtCs14PW5HJOtOs_6glossa5tools6runner5testss_32test_load_source_directory_error
FN:881,_RNvNtNtNtCs14PW5HJOtOs_6glossa5tools6runner5testss_34test_ui_error_cleanup_missing_file
FN:906,_RNvNtNtNtCs14PW5HJOtOs_6glossa5tools6runner5testss_36test_ui_error_cleanup_invalid_syntax
FN:614,_RNvNtNtNtCs14PW5HJOtOs_6glossa5tools6runner5testss_38test_build_file_output_directory_error
FN:181,_RNvNtNtCs14PW5HJOtOs_6glossa5tools6runner10build_file
FN:409,_RNvNtNtCs14PW5HJOtOs_6glossa5tools6runner10check_file
FN:116,_RNvNtNtCs14PW5HJOtOs_6glossa5tools6runner11load_source
FN:435,_RNvNtNtCs14PW5HJOtOs_6glossa5tools6runner11report_file
FN:321,_RNvNtNtCs14PW5HJOtOs_6glossa5tools6runner12invoke_rustc
FN:60,_RNvNtNtCs14PW5HJOtOs_6glossa5tools6runner14analyze_source
FN:363,_RNvNtNtCs14PW5HJOtOs_6glossa5tools6runner14execute_binary
FN:488,_RNvNtNtCs14PW5HJOtOs_6glossa5tools6runner14highlight_file
FN:75,_RNvNtNtCs14PW5HJOtOs_6glossa5tools6runner15check_file_size
FN:295,_RNvNtNtCs14PW5HJOtOs_6glossa5tools6runner17compile_and_build
FN:69,_RNvNtNtCs14PW5HJOtOs_6glossa5tools6runner7compile
FN:269,_RNvNtNtCs14PW5HJOtOs_6glossa5tools6runner8run_file
FN:537,_RNvNtNtCs14PW5HJOtOs_6glossa5tools6runner9bard_file
FNDA:0,_RNvNtNtCs4a0SCptkpqe_6glossa5tools6runner10build_file
FNDA:0,_RNvNtNtCs4a0SCptkpqe_6glossa5tools6runner10check_file
FNDA:10,_RNvNtNtCs4a0SCptkpqe_6glossa5tools6runner11load_source
FNDA:0,_RNvNtNtCs4a0SCptkpqe_6glossa5tools6runner11report_file
FNDA:2,_RNvNtNtCs4a0SCptkpqe_6glossa5tools6runner12invoke_rustc
FNDA:9,_RNvNtNtCs4a0SCptkpqe_6glossa5tools6runner14analyze_source
FNDA:1,_RNvNtNtCs4a0SCptkpqe_6glossa5tools6runner14execute_binary
FNDA:0,_RNvNtNtCs4a0SCptkpqe_6glossa5tools6runner14highlight_file
FNDA:14,_RNvNtNtCs4a0SCptkpqe_6glossa5tools6runner15check_file_size
FNDA:4,_RNvNtNtCs4a0SCptkpqe_6glossa5tools6runner17compile_and_build
FNDA:4,_RNvNtNtCs4a0SCptkpqe_6glossa5tools6runner7compile
FNDA:5,_RNvNtNtCs4a0SCptkpqe_6glossa5tools6runner8run_file
FNDA:0,_RNvNtNtCs4a0SCptkpqe_6glossa5tools6runner9bard_file
FNDA:0,_RNCNvNtNtCs4a0SCptkpqe_6glossa5tools6runner10build_file0B7_
FNDA:0,_RNCNvNtNtCs4a0SCptkpqe_6glossa5tools6runner10build_files0_0B7_
FNDA:0,_RNCNvNtNtCs4a0SCptkpqe_6glossa5tools6runner10build_files_0B7_
FNDA:0,_RNCNvNtNtCs4a0SCptkpqe_6glossa5tools6runner11load_source0B7_
FNDA:1,_RNCNvNtNtCs4a0SCptkpqe_6glossa5tools6runner12invoke_rustc0B7_
FNDA:1,_RNCNvNtNtCs4a0SCptkpqe_6glossa5tools6runner12invoke_rustcs_0B7_
FNDA:1,_RNCNvNtNtCs4a0SCptkpqe_6glossa5tools6runner14analyze_source0B7_
FNDA:2,_RNCNvNtNtCs4a0SCptkpqe_6glossa5tools6runner14analyze_sources_0B7_
FNDA:1,_RNCNvNtNtNtCs14PW5HJOtOs_6glossa5tools6runner5testss_27test_run_file_rustc_missing0B9_
FNDA:1,_RNCNvNtNtCs14PW5HJOtOs_6glossa5tools6runner10build_file0B7_
FNDA:1,_RNCNvNtNtCs14PW5HJOtOs_6glossa5tools6runner10build_files0_0B7_
FNDA:1,_RNCNvNtNtCs14PW5HJOtOs_6glossa5tools6runner10build_files_0B7_
FNDA:0,_RNCNvNtNtCs14PW5HJOtOs_6glossa5tools6runner11load_source0B7_
FNDA:2,_RNCNvNtNtCs14PW5HJOtOs_6glossa5tools6runner12invoke_rustc0B7_
FNDA:0,_RNCNvNtNtCs14PW5HJOtOs_6glossa5tools6runner12invoke_rustcs_0B7_
FNDA:8,_RNCNvNtNtCs14PW5HJOtOs_6glossa5tools6runner14analyze_source0B7_
FNDA:1,_RNCNvNtNtCs14PW5HJOtOs_6glossa5tools6runner14analyze_sources_0B7_
FNDA:1,_RNvNtNtNtCs14PW5HJOtOs_6glossa5tools6runner5testss_18test_compile_hello
FNDA:1,_RNvNtNtNtCs14PW5HJOtOs_6glossa5tools6runner5testss_20test_bard_file_valid
FNDA:1,_RNvNtNtNtCs14PW5HJOtOs_6glossa5tools6runner5testss_20test_compile_binding
FNDA:1,_RNvNtNtNtCs14PW5HJOtOs_6glossa5tools6runner5testss_20test_run_rustc_error
FNDA:1,_RNvNtNtNtCs14PW5HJOtOs_6glossa5tools6runner5testss_21test_check_file_valid
FNDA:1,_RNvNtNtNtCs14PW5HJOtOs_6glossa5tools6runner5testss_21test_run_file_success
FNDA:1,_RNvNtNtNtCs14PW5HJOtOs_6glossa5tools6runner5testss_22test_report_file_valid
FNDA:1,_RNvNtNtNtCs14PW5HJOtOs_6glossa5tools6runner5testss_22test_run_compile_error
FNDA:1,_RNvNtNtNtCs14PW5HJOtOs_6glossa5tools6runner5testss_23test_build_file_success
FNDA:1,_RNvNtNtNtCs14PW5HJOtOs_6glossa5tools6runner5testss_24test_run_file_size_limit
FNDA:1,_RNvNtNtNtCs14PW5HJOtOs_6glossa5tools6runner5testss_25test_compile_full_program
FNDA:1,_RNvNtNtNtCs14PW5HJOtOs_6glossa5tools6runner5testss_25test_highlight_file_valid
FNDA:1,_RNvNtNtNtCs14PW5HJOtOs_6glossa5tools6runner5testss_26test_build_file_size_limit
FNDA:1,_RNvNtNtNtCs14PW5HJOtOs_6glossa5tools6runner5testss_27test_run_file_rustc_missing
FNDA:1,_RNvNtNtNtCs14PW5HJOtOs_6glossa5tools6runner5testss_29test_file_size_check_internal
FNDA:1,_RNvNtNtNtCs14PW5HJOtOs_6glossa5tools6runner5testss_32test_load_source_directory_error
FNDA:1,_RNvNtNtNtCs14PW5HJOtOs_6glossa5tools6runner5testss_34test_ui_error_cleanup_missing_file
FNDA:1,_RNvNtNtNtCs14PW5HJOtOs_6glossa5tools6runner5testss_36test_ui_error_cleanup_invalid_syntax
FNDA:1,_RNvNtNtNtCs14PW5HJOtOs_6glossa5tools6runner5testss_38test_build_file_output_directory_error
FNDA:5,_RNvNtNtCs14PW5HJOtOs_6glossa5tools6runner10build_file
FNDA:3,_RNvNtNtCs14PW5HJOtOs_6glossa5tools6runner10check_file
FNDA:23,_RNvNtNtCs14PW5HJOtOs_6glossa5tools6runner11load_source
FNDA:3,_RNvNtNtCs14PW5HJOtOs_6glossa5tools6runner11report_file
FNDA:2,_RNvNtNtCs14PW5HJOtOs_6glossa5tools6runner12invoke_rustc
FNDA:75,_RNvNtNtCs14PW5HJOtOs_6glossa5tools6runner14analyze_source
FNDA:2,_RNvNtNtCs14PW5HJOtOs_6glossa5tools6runner14execute_binary
FNDA:3,_RNvNtNtCs14PW5HJOtOs_6glossa5tools6runner14highlight_file
FNDA:24,_RNvNtNtCs14PW5HJOtOs_6glossa5tools6runner15check_file_size
FNDA:3,_RNvNtNtCs14PW5HJOtOs_6glossa5tools6runner17compile_and_build
FNDA:6,_RNvNtNtCs14PW5HJOtOs_6glossa5tools6runner7compile
FNDA:6,_RNvNtNtCs14PW5HJOtOs_6glossa5tools6runner8run_file
FNDA:3,_RNvNtNtCs14PW5HJOtOs_6glossa5tools6runner9bard_file
FNF:41
FNH:40
DA:60,84
DA:61,84
DA:62,75
DA:63,84
DA:69,10
DA:70,10
DA:71,6
DA:72,10
DA:75,38
DA:78,38
DA:79,38
DA:80,2
DA:81,36
DA:82,36
DA:83,3
DA:84,3
DA:85,3
DA:86,3
DA:87,3
DA:88,33
DA:89,33
DA:90,38
DA:116,33
DA:117,33
DA:118,6
DA:119,27
DA:120,27
DA:122,25
DA:123,25
DA:124,25
DA:127,25
DA:128,25
DA:129,25
DA:131,25
DA:132,0
DA:133,0
DA:134,0
DA:135,0
DA:136,25
DA:138,25
DA:139,33
DA:181,5
DA:182,5
DA:183,3
DA:184,3
DA:185,3
DA:188,3
DA:189,2
DA:190,1
DA:191,1
DA:192,1
DA:195,2
DA:197,2
DA:198,2
DA:199,2
DA:201,2
DA:202,1
DA:203,1
DA:204,1
DA:205,1
DA:206,1
DA:207,1
DA:208,1
DA:210,1
DA:211,1
DA:212,1
DA:214,1
DA:216,1
DA:217,1
DA:218,1
DA:219,1
DA:220,1
DA:221,1
DA:222,1
DA:223,1
DA:225,1
DA:227,1
DA:228,5
DA:269,11
DA:270,11
DA:271,1
DA:272,10
DA:273,10
DA:276,8
DA:277,8
DA:279,8
DA:282,8
DA:283,1
DA:284,7
DA:287,7
DA:288,7
DA:291,2
DA:292,11
DA:295,7
DA:296,7
DA:298,7
DA:299,3
DA:300,4
DA:301,4
DA:302,4
DA:307,3
DA:309,3
DA:311,3
DA:312,1
DA:313,1
DA:314,2
DA:316,2
DA:317,2
DA:318,7
DA:321,4
DA:323,4
DA:325,4
DA:326,4
DA:327,4
DA:328,4
DA:329,4
DA:330,4
DA:331,4
DA:332,4
DA:333,4
DA:334,4
DA:336,3
DA:337,1
DA:340,1
DA:342,1
DA:343,1
DA:344,1
DA:345,1
DA:346,1
DA:349,1
DA:354,1
DA:356,1
DA:357,2
DA:359,2
DA:360,4
DA:363,3
DA:364,3
DA:365,3
DA:366,3
DA:367,3
DA:369,3
DA:371,3
DA:372,3
DA:374,3
DA:375,0
DA:376,3
DA:378,3
DA:379,3
DA:409,3
DA:410,3
DA:411,2
DA:413,2
DA:414,1
DA:415,1
DA:416,1
DA:417,1
DA:421,1
DA:422,1
DA:423,3
DA:435,3
DA:436,3
DA:437,2
DA:439,2
DA:440,1
DA:441,1
DA:442,1
DA:443,1
DA:447,1
DA:448,1
DA:449,1
DA:450,1
DA:451,1
DA:452,1
DA:454,1
DA:455,1
DA:457,1
DA:458,3
DA:488,3
DA:489,3
DA:490,2
DA:491,2
DA:492,1
DA:493,1
DA:494,1
DA:495,1
DA:499,1
DA:501,1
DA:502,1
DA:503,1
DA:504,1
DA:505,1
DA:507,1
DA:508,3
DA:537,3
DA:538,3
DA:539,2
DA:540,2
DA:541,1
DA:542,1
DA:543,1
DA:544,1
DA:548,1
DA:549,1
DA:551,1
DA:552,1
DA:553,1
DA:554,1
DA:555,1
DA:557,1
DA:558,3
DA:567,1
DA:568,1
DA:569,1
DA:570,1
DA:571,1
DA:573,1
DA:574,1
DA:577,1
DA:578,1
DA:579,1
DA:580,1
DA:581,1
DA:582,1
DA:583,1
DA:586,1
DA:587,1
DA:588,1
DA:589,1
DA:590,1
DA:593,1
DA:594,1
DA:597,1
DA:598,1
DA:599,1
DA:604,1
DA:605,1
DA:606,1
DA:607,1
DA:608,1
DA:609,1
DA:611,1
DA:614,1
DA:615,1
DA:616,1
DA:618,1
DA:621,1
DA:622,1
DA:623,1
DA:624,1
DA:625,1
DA:626,1
DA:627,1
DA:629,1
DA:632,1
DA:634,1
DA:635,1
DA:636,1
DA:637,1
DA:638,1
DA:639,1
DA:640,1
DA:643,1
DA:644,1
DA:645,1
DA:646,1
DA:647,1
DA:648,1
DA:649,1
DA:651,1
DA:654,1
DA:656,1
DA:657,1
DA:658,1
DA:659,1
DA:660,1
DA:661,1
DA:662,1
DA:665,1
DA:666,1
DA:667,1
DA:668,1
DA:669,1
DA:670,1
DA:671,1
DA:673,1
DA:676,1
DA:678,1
DA:679,1
DA:680,1
DA:681,1
DA:682,1
DA:683,1
DA:686,1
DA:687,1
DA:690,1
DA:691,1
DA:694,1
DA:695,1
DA:696,1
DA:699,1
DA:701,1
DA:702,1
DA:703,1
DA:704,1
DA:705,1
DA:706,1
DA:707,1
DA:710,1
DA:711,1
DA:712,1
DA:713,1
DA:714,1
DA:715,1
DA:716,1
DA:718,1
DA:724,1
DA:725,1
DA:726,1
DA:727,1
DA:733,1
DA:734,1
DA:735,1
DA:736,1
DA:738,0
DA:740,1
DA:741,1
DA:742,1
DA:743,1
DA:744,1
DA:745,1
DA:746,1
DA:748,1
DA:749,1
DA:750,0
DA:753,1
DA:754,1
DA:755,1
DA:756,1
DA:759,1
DA:761,1
DA:762,1
DA:763,1
DA:764,1
DA:765,1
DA:766,1
DA:770,1
DA:773,1
DA:776,1
DA:779,1
DA:780,1
DA:783,1
DA:784,1
DA:785,1
DA:788,1
DA:789,1
DA:790,1
DA:791,1
DA:792,1
DA:793,1
DA:794,1
DA:796,1
DA:797,1
DA:798,1
DA:799,1
DA:802,1
DA:803,1
DA:804,1
DA:805,1
DA:806,1
DA:807,1
DA:808,1
DA:813,1
DA:814,1
DA:815,1
DA:817,1
DA:819,1
DA:821,1
DA:822,1
DA:823,1
DA:824,1
DA:827,1
DA:828,1
DA:829,1
DA:830,1
DA:831,1
DA:832,1
DA:833,1
DA:835,1
DA:836,1
DA:837,1
DA:840,1
DA:841,1
DA:842,1
DA:843,1
DA:844,1
DA:845,1
DA:846,1
DA:850,1
DA:851,1
DA:852,1
DA:855,1
DA:856,1
DA:857,1
DA:858,1
DA:859,1
DA:860,1
DA:861,1
DA:863,1
DA:864,1
DA:865,1
DA:868,1
DA:869,1
DA:870,1
DA:871,1
DA:872,1
DA:873,1
DA:874,1
DA:876,1
DA:877,1
DA:878,1
DA:881,1
DA:884,1
DA:886,1
DA:887,1
DA:889,1
DA:890,1
DA:892,1
DA:893,1
DA:895,1
DA:896,1
DA:898,1
DA:899,1
DA:901,1
DA:902,1
DA:903,1
DA:906,1
DA:908,1
DA:909,1
DA:910,1
DA:912,1
DA:913,1
DA:915,1
DA:916,1
DA:918,1
DA:919,1
DA:921,1
DA:922,1
DA:924,1
DA:925,1
DA:927,1
DA:928,1
DA:929,1
BRF:0
BRH:0
LF:461
LH:453
end_of_record
SF:/app/src/tools/tester.rs
FN:69,_RNCNvNtNtCs4a0SCptkpqe_6glossa5tools6tester17parse_test_output0B7_
FN:215,_RNCNvNtNtCs4a0SCptkpqe_6glossa5tools6tester20compile_test_harness0B7_
FN:239,_RNCNvNtNtCs4a0SCptkpqe_6glossa5tools6tester20compile_test_harnesss0_0B7_
FN:223,_RNCNvNtNtCs4a0SCptkpqe_6glossa5tools6tester20compile_test_harnesss_0B7_
FN:440,_RNCNvNtNtCs4a0SCptkpqe_6glossa5tools6tester9run_tests0B7_
FN:449,_RNCNvNtNtCs4a0SCptkpqe_6glossa5tools6tester9run_testss0_0B7_
FN:454,_RNCNvNtNtCs4a0SCptkpqe_6glossa5tools6tester9run_testss1_0B7_
FN:443,_RNCNvNtNtCs4a0SCptkpqe_6glossa5tools6tester9run_testss_0B7_
FN:499,_RNCNvNtNtNtCs14PW5HJOtOs_6glossa5tools6tester5testss_28test_run_tests_rustc_missing0B9_
FN:99,_RNvNtNtCs14PW5HJOtOs_6glossa5tools6tester16extract_failures
FN:66,_RNvNtNtCs14PW5HJOtOs_6glossa5tools6tester17parse_test_output
FN:123,_RNvNtNtCs14PW5HJOtOs_6glossa5tools6tester18parse_failure_name
FN:283,_RNvNtNtCs14PW5HJOtOs_6glossa5tools6tester18print_test_results
FN:190,_RNvNtNtCs14PW5HJOtOs_6glossa5tools6tester19clean_panic_message
FN:270,_RNvNtNtCs14PW5HJOtOs_6glossa5tools6tester19execute_test_binary
FN:214,_RNvNtNtCs14PW5HJOtOs_6glossa5tools6tester20compile_test_harness
FN:143,_RNvNtNtCs14PW5HJOtOs_6glossa5tools6tester23capture_failure_message
FN:420,_RNvNtNtCs14PW5HJOtOs_6glossa5tools6tester9run_tests
FN:521,_RNvNtNtNtCs14PW5HJOtOs_6glossa5tools6tester5testss_23test_parse_output_basic
FN:538,_RNvNtNtNtCs14PW5HJOtOs_6glossa5tools6tester5testss_25test_parse_output_failure
FN:565,_RNvNtNtNtCs14PW5HJOtOs_6glossa5tools6tester5testss_25test_parse_output_ignored
FN:579,_RNvNtNtNtCs14PW5HJOtOs_6glossa5tools6tester5testss_27test_extract_failures_basic
FN:493,_RNvNtNtNtCs14PW5HJOtOs_6glossa5tools6tester5testss_28test_run_tests_rustc_missing
FN:603,_RNvNtNtNtCs14PW5HJOtOs_6glossa5tools6tester5testss_30test_extract_failures_multiple
FN:626,_RNvNtNtNtCs14PW5HJOtOs_6glossa5tools6tester5testss_32test_extract_failures_edge_cases
FN:706,_RNvNtNtNtCs14PW5HJOtOs_6glossa5tools6tester5testss_33test_parse_test_output_edge_cases
FN:762,_RNvNtNtNtCs14PW5HJOtOs_6glossa5tools6tester23additional_sentry_testss_34test_parse_test_output_empty_parts
FN:841,_RNvNtNtNtCs14PW5HJOtOs_6glossa5tools6tester14tests_failuress_26test_run_tests_parse_error
FN:853,_RNvNtNtNtCs14PW5HJOtOs_6glossa5tools6tester14tests_failuress_29test_run_tests_semantic_error
FN:832,_RNvNtNtNtCs14PW5HJOtOs_6glossa5tools6tester14tests_failuress_34test_extract_failures_simple_panic
FN:789,_RNvNtNtNtCs14PW5HJOtOs_6glossa5tools6tester14tests_failuress_36test_parse_test_output_various_parts
FN:774,_RNvNtNtNtCs14PW5HJOtOs_6glossa5tools6tester14tests_failuress_39test_extract_failures_no_matching_start
FN:800,_RNvNtNtNtCs14PW5HJOtOs_6glossa5tools6tester14tests_failuress_39test_extract_failures_with_empty_output
FN:816,_RNvNtNtNtCs14PW5HJOtOs_6glossa5tools6tester14tests_failuress_39test_extract_failures_with_note_omitted
FN:807,_RNvNtNtNtCs14PW5HJOtOs_6glossa5tools6tester14tests_failuress_42test_extract_failures_with_stack_backtrace
FN:825,_RNvNtNtNtCs14PW5HJOtOs_6glossa5tools6tester14tests_failuress_45test_extract_failures_without_actual_failures
FN:69,_RNCNvNtNtCs14PW5HJOtOs_6glossa5tools6tester17parse_test_output0B7_
FN:215,_RNCNvNtNtCs14PW5HJOtOs_6glossa5tools6tester20compile_test_harness0B7_
FN:239,_RNCNvNtNtCs14PW5HJOtOs_6glossa5tools6tester20compile_test_harnesss0_0B7_
FN:223,_RNCNvNtNtCs14PW5HJOtOs_6glossa5tools6tester20compile_test_harnesss_0B7_
FN:440,_RNCNvNtNtCs14PW5HJOtOs_6glossa5tools6tester9run_tests0B7_
FN:449,_RNCNvNtNtCs14PW5HJOtOs_6glossa5tools6tester9run_testss0_0B7_
FN:454,_RNCNvNtNtCs14PW5HJOtOs_6glossa5tools6tester9run_testss1_0B7_
FN:443,_RNCNvNtNtCs14PW5HJOtOs_6glossa5tools6tester9run_testss_0B7_
FN:99,_RNvNtNtCs4a0SCptkpqe_6glossa5tools6tester16extract_failures
FN:66,_RNvNtNtCs4a0SCptkpqe_6glossa5tools6tester17parse_test_output
FN:123,_RNvNtNtCs4a0SCptkpqe_6glossa5tools6tester18parse_failure_name
FN:283,_RNvNtNtCs4a0SCptkpqe_6glossa5tools6tester18print_test_results
FN:190,_RNvNtNtCs4a0SCptkpqe_6glossa5tools6tester19clean_panic_message
FN:270,_RNvNtNtCs4a0SCptkpqe_6glossa5tools6tester19execute_test_binary
FN:214,_RNvNtNtCs4a0SCptkpqe_6glossa5tools6tester20compile_test_harness
FN:143,_RNvNtNtCs4a0SCptkpqe_6glossa5tools6tester23capture_failure_message
FN:420,_RNvNtNtCs4a0SCptkpqe_6glossa5tools6tester9run_tests
FNDA:31,_RNCNvNtNtCs4a0SCptkpqe_6glossa5tools6tester17parse_test_output0B7_
FNDA:3,_RNCNvNtNtCs4a0SCptkpqe_6glossa5tools6tester20compile_test_harness0B7_
FNDA:0,_RNCNvNtNtCs4a0SCptkpqe_6glossa5tools6tester20compile_test_harnesss0_0B7_
FNDA:1,_RNCNvNtNtCs4a0SCptkpqe_6glossa5tools6tester20compile_test_harnesss_0B7_
FNDA:0,_RNCNvNtNtCs4a0SCptkpqe_6glossa5tools6tester9run_tests0B7_
FNDA:0,_RNCNvNtNtCs4a0SCptkpqe_6glossa5tools6tester9run_testss0_0B7_
FNDA:0,_RNCNvNtNtCs4a0SCptkpqe_6glossa5tools6tester9run_testss1_0B7_
FNDA:0,_RNCNvNtNtCs4a0SCptkpqe_6glossa5tools6tester9run_testss_0B7_
FNDA:1,_RNCNvNtNtNtCs14PW5HJOtOs_6glossa5tools6tester5testss_28test_run_tests_rustc_missing0B9_
FNDA:13,_RNvNtNtCs14PW5HJOtOs_6glossa5tools6tester16extract_failures
FNDA:10,_RNvNtNtCs14PW5HJOtOs_6glossa5tools6tester17parse_test_output
FNDA:46,_RNvNtNtCs14PW5HJOtOs_6glossa5tools6tester18parse_failure_name
FNDA:0,_RNvNtNtCs14PW5HJOtOs_6glossa5tools6tester18print_test_results
FNDA:15,_RNvNtNtCs14PW5HJOtOs_6glossa5tools6tester19clean_panic_message
FNDA:0,_RNvNtNtCs14PW5HJOtOs_6glossa5tools6tester19execute_test_binary
FNDA:0,_RNvNtNtCs14PW5HJOtOs_6glossa5tools6tester20compile_test_harness
FNDA:10,_RNvNtNtCs14PW5HJOtOs_6glossa5tools6tester23capture_failure_message
FNDA:2,_RNvNtNtCs14PW5HJOtOs_6glossa5tools6tester9run_tests
FNDA:1,_RNvNtNtNtCs14PW5HJOtOs_6glossa5tools6tester5testss_23test_parse_output_basic
FNDA:1,_RNvNtNtNtCs14PW5HJOtOs_6glossa5tools6tester5testss_25test_parse_output_failure
FNDA:1,_RNvNtNtNtCs14PW5HJOtOs_6glossa5tools6tester5testss_25test_parse_output_ignored
FNDA:1,_RNvNtNtNtCs14PW5HJOtOs_6glossa5tools6tester5testss_27test_extract_failures_basic
FNDA:1,_RNvNtNtNtCs14PW5HJOtOs_6glossa5tools6tester5testss_28test_run_tests_rustc_missing
FNDA:1,_RNvNtNtNtCs14PW5HJOtOs_6glossa5tools6tester5testss_30test_extract_failures_multiple
FNDA:1,_RNvNtNtNtCs14PW5HJOtOs_6glossa5tools6tester5testss_32test_extract_failures_edge_cases
FNDA:1,_RNvNtNtNtCs14PW5HJOtOs_6glossa5tools6tester5testss_33test_parse_test_output_edge_cases
FNDA:1,_RNvNtNtNtCs14PW5HJOtOs_6glossa5tools6tester23additional_sentry_testss_34test_parse_test_output_empty_parts
FNDA:1,_RNvNtNtNtCs14PW5HJOtOs_6glossa5tools6tester14tests_failuress_26test_run_tests_parse_error
FNDA:1,_RNvNtNtNtCs14PW5HJOtOs_6glossa5tools6tester14tests_failuress_29test_run_tests_semantic_error
FNDA:1,_RNvNtNtNtCs14PW5HJOtOs_6glossa5tools6tester14tests_failuress_34test_extract_failures_simple_panic
FNDA:1,_RNvNtNtNtCs14PW5HJOtOs_6glossa5tools6tester14tests_failuress_36test_parse_test_output_various_parts
FNDA:1,_RNvNtNtNtCs14PW5HJOtOs_6glossa5tools6tester14tests_failuress_39test_extract_failures_no_matching_start
FNDA:1,_RNvNtNtNtCs14PW5HJOtOs_6glossa5tools6tester14tests_failuress_39test_extract_failures_with_empty_output
FNDA:1,_RNvNtNtNtCs14PW5HJOtOs_6glossa5tools6tester14tests_failuress_39test_extract_failures_with_note_omitted
FNDA:1,_RNvNtNtNtCs14PW5HJOtOs_6glossa5tools6tester14tests_failuress_42test_extract_failures_with_stack_backtrace
FNDA:1,_RNvNtNtNtCs14PW5HJOtOs_6glossa5tools6tester14tests_failuress_45test_extract_failures_without_actual_failures
FNDA:40,_RNCNvNtNtCs14PW5HJOtOs_6glossa5tools6tester17parse_test_output0B7_
FNDA:0,_RNCNvNtNtCs14PW5HJOtOs_6glossa5tools6tester20compile_test_harness0B7_
FNDA:0,_RNCNvNtNtCs14PW5HJOtOs_6glossa5tools6tester20compile_test_harnesss0_0B7_
FNDA:0,_RNCNvNtNtCs14PW5HJOtOs_6glossa5tools6tester20compile_test_harnesss_0B7_
FNDA:0,_RNCNvNtNtCs14PW5HJOtOs_6glossa5tools6tester9run_tests0B7_
FNDA:0,_RNCNvNtNtCs14PW5HJOtOs_6glossa5tools6tester9run_testss0_0B7_
FNDA:0,_RNCNvNtNtCs14PW5HJOtOs_6glossa5tools6tester9run_testss1_0B7_
FNDA:0,_RNCNvNtNtCs14PW5HJOtOs_6glossa5tools6tester9run_testss_0B7_
FNDA:1,_RNvNtNtCs4a0SCptkpqe_6glossa5tools6tester16extract_failures
FNDA:3,_RNvNtNtCs4a0SCptkpqe_6glossa5tools6tester17parse_test_output
FNDA:7,_RNvNtNtCs4a0SCptkpqe_6glossa5tools6tester18parse_failure_name
FNDA:3,_RNvNtNtCs4a0SCptkpqe_6glossa5tools6tester18print_test_results
FNDA:7,_RNvNtNtCs4a0SCptkpqe_6glossa5tools6tester19clean_panic_message
FNDA:3,_RNvNtNtCs4a0SCptkpqe_6glossa5tools6tester19execute_test_binary
FNDA:4,_RNvNtNtCs4a0SCptkpqe_6glossa5tools6tester20compile_test_harness
FNDA:1,_RNvNtNtCs4a0SCptkpqe_6glossa5tools6tester23capture_failure_message
FNDA:6,_RNvNtNtCs4a0SCptkpqe_6glossa5tools6tester9run_tests
FNF:36
FNH:31
DA:66,13
DA:67,13
DA:68,13
DA:69,71
DA:71,71
DA:72,21
DA:74,12
DA:75,12
DA:76,1
DA:77,11
DA:79,11
DA:80,11
DA:81,4
DA:82,2
DA:83,1
DA:86,10
DA:87,10
DA:88,10
DA:89,10
DA:90,71
DA:91,13
DA:92,13
DA:99,14
DA:100,14
DA:101,14
DA:104,31
DA:105,31
DA:106,12
DA:107,19
DA:111,67
DA:112,53
DA:113,42
DA:116,11
DA:117,11
DA:120,14
DA:121,14
DA:123,53
DA:124,53
DA:125,53
DA:126,42
DA:127,11
DA:129,11
DA:130,11
DA:131,11
DA:134,11
DA:135,11
DA:136,11
DA:137,11
DA:138,11
DA:139,11
DA:140,11
DA:141,53
DA:143,11
DA:144,11
DA:145,37
DA:146,34
DA:147,34
DA:148,32
DA:150,8
DA:151,26
DA:154,26
DA:155,2
DA:156,2
DA:157,24
DA:160,24
DA:161,23
DA:163,2
DA:164,6
DA:165,6
DA:166,6
DA:167,6
DA:169,2
DA:170,4
DA:171,4
DA:173,2
DA:174,22
DA:176,22
DA:177,2
DA:178,2
DA:179,2
DA:180,2
DA:181,20
DA:183,20
DA:184,20
DA:185,20
DA:187,11
DA:188,11
DA:190,22
DA:191,22
DA:192,19
DA:193,3
DA:195,3
DA:196,2
DA:200,2
DA:201,1
DA:202,1
DA:203,1
DA:204,1
DA:206,2
DA:207,22
DA:214,4
DA:215,4
DA:217,4
DA:218,4
DA:219,4
DA:220,4
DA:221,4
DA:222,4
DA:223,4
DA:225,3
DA:226,0
DA:228,0
DA:229,0
DA:230,0
DA:232,0
DA:233,0
DA:234,0
DA:236,0
DA:239,0
DA:241,0
DA:242,0
DA:245,0
DA:246,0
DA:247,0
DA:249,0
DA:250,0
DA:251,0
DA:252,0
DA:254,0
DA:255,0
DA:256,0
DA:259,0
DA:260,0
DA:261,0
DA:262,0
DA:263,0
DA:264,0
DA:265,3
DA:267,3
DA:268,4
DA:270,3
DA:271,3
DA:273,3
DA:274,3
DA:275,3
DA:278,3
DA:280,3
DA:281,3
DA:283,3
DA:284,3
DA:285,3
DA:286,3
DA:287,3
DA:289,3
DA:290,2
DA:291,1
DA:292,1
DA:293,1
DA:294,1
DA:295,1
DA:296,1
DA:297,1
DA:298,1
DA:299,1
DA:300,1
DA:301,1
DA:302,1
DA:303,1
DA:304,1
DA:305,1
DA:306,1
DA:307,1
DA:308,1
DA:309,1
DA:310,1
DA:311,1
DA:312,1
DA:313,1
DA:315,3
DA:316,2
DA:317,2
DA:319,2
DA:320,2
DA:321,2
DA:322,2
DA:323,2
DA:326,2
DA:327,2
DA:328,1
DA:329,1
DA:330,1
DA:331,1
DA:332,0
DA:337,2
DA:339,2
DA:341,2
DA:342,1
DA:343,1
DA:344,1
DA:345,1
DA:346,1
DA:347,1
DA:348,1
DA:349,1
DA:350,1
DA:351,1
DA:352,1
DA:353,1
DA:354,1
DA:355,1
DA:356,1
DA:357,1
DA:360,3
DA:361,1
DA:362,1
DA:364,1
DA:366,1
DA:367,1
DA:368,1
DA:369,1
DA:370,1
DA:371,1
DA:372,1
DA:373,1
DA:374,1
DA:375,1
DA:376,1
DA:377,1
DA:378,1
DA:379,1
DA:380,1
DA:381,1
DA:382,1
DA:383,1
DA:384,1
DA:387,0
DA:388,0
DA:389,0
DA:390,0
DA:392,2
DA:393,3
DA:420,8
DA:422,8
DA:424,7
DA:426,7
DA:427,4
DA:428,3
DA:429,3
DA:430,3
DA:433,4
DA:436,4
DA:437,4
DA:438,4
DA:439,4
DA:440,4
DA:442,4
DA:443,4
DA:444,4
DA:447,4
DA:448,4
DA:449,4
DA:450,4
DA:451,4
DA:452,4
DA:453,4
DA:454,4
DA:455,0
DA:456,0
DA:457,4
DA:458,0
DA:460,4
DA:464,4
DA:467,3
DA:470,3
DA:471,3
DA:473,3
DA:474,2
DA:475,2
DA:476,1
DA:477,1
DA:479,3
DA:481,3
DA:482,1
DA:483,2
DA:485,2
DA:486,8
DA:493,1
DA:494,1
DA:495,1
DA:496,1
DA:499,1
DA:500,1
DA:501,1
DA:502,1
DA:504,0
DA:506,1
DA:507,1
DA:508,1
DA:509,1
DA:510,1
DA:511,1
DA:512,1
DA:513,1
DA:515,1
DA:516,1
DA:517,1
DA:518,1
DA:521,1
DA:522,1
DA:523,1
DA:524,1
DA:525,1
DA:526,1
DA:527,1
DA:528,1
DA:529,1
DA:530,1
DA:531,1
DA:532,1
DA:533,1
DA:534,1
DA:535,1
DA:538,1
DA:539,1
DA:540,1
DA:541,1
DA:542,1
DA:543,1
DA:544,1
DA:545,1
DA:546,1
DA:547,1
DA:548,1
DA:549,1
DA:550,1
DA:551,1
DA:552,1
DA:553,1
DA:554,1
DA:555,1
DA:556,1
DA:557,1
DA:558,1
DA:559,1
DA:560,1
DA:561,1
DA:562,1
DA:565,1
DA:566,1
DA:567,1
DA:568,1
DA:569,1
DA:570,1
DA:571,1
DA:572,1
DA:573,1
DA:574,1
DA:575,1
DA:576,1
DA:579,1
DA:580,1
DA:581,1
DA:582,1
DA:583,1
DA:584,1
DA:585,1
DA:586,1
DA:587,1
DA:588,1
DA:589,1
DA:590,1
DA:591,1
DA:592,1
DA:593,1
DA:594,1
DA:595,1
DA:596,1
DA:597,1
DA:598,1
DA:599,1
DA:600,1
DA:603,1
DA:604,1
DA:605,1
DA:606,1
DA:607,1
DA:608,1
DA:609,1
DA:610,1
DA:611,1
DA:612,1
DA:613,1
DA:614,1
DA:615,1
DA:616,1
DA:617,1
DA:618,1
DA:619,1
DA:620,1
DA:621,1
DA:622,1
DA:623,1
DA:626,1
DA:633,1
DA:634,1
DA:635,1
DA:636,1
DA:637,1
DA:638,1
DA:639,1
DA:640,1
DA:641,1
DA:642,1
DA:643,1
DA:644,1
DA:645,1
DA:646,1
DA:647,1
DA:648,1
DA:649,1
DA:650,1
DA:651,1
DA:652,1
DA:653,1
DA:654,1
DA:655,1
DA:656,1
DA:657,1
DA:658,1
DA:659,1
DA:660,1
DA:661,1
DA:662,1
DA:663,1
DA:664,1
DA:665,1
DA:666,1
DA:667,1
DA:668,1
DA:669,1
DA:670,1
DA:671,1
DA:672,1
DA:673,1
DA:674,1
DA:675,1
DA:676,1
DA:677,1
DA:678,1
DA:679,1
DA:680,1
DA:681,1
DA:682,1
DA:683,1
DA:684,1
DA:685,1
DA:686,1
DA:687,1
DA:688,1
DA:689,1
DA:690,1
DA:691,1
DA:694,5
DA:695,5
DA:696,5
DA:697,5
DA:703,1
DA:706,1
DA:713,1
DA:714,1
DA:715,1
DA:716,1
DA:717,1
DA:718,1
DA:719,1
DA:720,1
DA:721,1
DA:722,1
DA:723,1
DA:724,1
DA:725,1
DA:726,1
DA:727,1
DA:728,1
DA:729,1
DA:730,1
DA:731,1
DA:732,1
DA:733,1
DA:734,1
DA:735,1
DA:736,1
DA:737,1
DA:738,1
DA:739,1
DA:740,1
DA:741,1
DA:744,5
DA:745,5
DA:746,5
DA:747,5
DA:753,1
DA:762,1
DA:763,1
DA:764,1
DA:765,1
DA:766,1
DA:774,1
DA:775,1
DA:776,1
DA:777,1
DA:778,1
DA:779,1
DA:780,1
DA:781,1
DA:782,1
DA:783,1
DA:784,1
DA:785,1
DA:786,1
DA:789,1
DA:790,1
DA:791,1
DA:792,1
DA:793,1
DA:794,1
DA:795,1
DA:796,1
DA:797,1
DA:800,1
DA:801,1
DA:802,1
DA:803,1
DA:804,1
DA:807,1
DA:808,1
DA:809,1
DA:810,1
DA:811,1
DA:812,1
DA:813,1
DA:816,1
DA:817,1
DA:818,1
DA:819,1
DA:820,1
DA:821,1
DA:822,1
DA:825,1
DA:826,1
DA:827,1
DA:828,1
DA:829,1
DA:832,1
DA:833,1
DA:834,1
DA:835,1
DA:836,1
DA:837,1
DA:838,1
DA:841,1
DA:842,1
DA:843,1
DA:844,1
DA:846,1
DA:847,1
DA:849,1
DA:850,1
DA:853,1
DA:854,1
DA:855,1
DA:856,1
DA:858,1
DA:859,1
DA:860,1
DA:862,1
DA:863,1
BRF:0
BRH:0
LF:587
LH:544
end_of_record
SF:/app/src/tools/ui.rs
FN:193,_RNvXs_NtNtCs4a0SCptkpqe_6glossa5tools2uiNtB4_6StatusNtNtNtCs4kUJL3MZFFz_4core3ops4drop4Drop4drop
FN:59,_RINvMNtNtCs4a0SCptkpqe_6glossa5tools2uiNtB3_6Status5startpEB7_
FN:159,_RNvMNtNtCs4a0SCptkpqe_6glossa5tools2uiNtB2_6Status13print_running
FN:123,_RNvMNtNtCs4a0SCptkpqe_6glossa5tools2uiNtB2_6Status7success
FN:179,_RINvMNtNtCs4a0SCptkpqe_6glossa5tools2uiNtB3_6Status10print_doneINtNtNtCstJ2g9kd0KI_9crossterm5style14styled_content13StyledContentReEEB7_
FN:72,_RINvMNtNtCs4a0SCptkpqe_6glossa5tools2uiNtB3_6Status17start_with_symbolReB16_EB7_
FN:78,_RINvMNtNtCs4a0SCptkpqe_6glossa5tools2uiNtB3_6Status3newReBR_EB7_
FN:148,_RINvMNtNtCs4a0SCptkpqe_6glossa5tools2uiNtB3_6Status5errorReEB7_
FN:103,_RINvMNtNtCs4a0SCptkpqe_6glossa5tools2uiNtB3_6Status6updateReEB7_
FN:251,_RNvNtNtNtCs14PW5HJOtOs_6glossa5tools2ui5testss_16test_status_drop
FN:219,_RNvNtNtNtCs14PW5HJOtOs_6glossa5tools2ui5testss_21test_status_tty_error
FN:212,_RNvNtNtNtCs14PW5HJOtOs_6glossa5tools2ui5testss_22test_status_tty_update
FN:205,_RNvNtNtNtCs14PW5HJOtOs_6glossa5tools2ui5testss_23test_status_tty_success
FN:239,_RNvNtNtNtCs14PW5HJOtOs_6glossa5tools2ui5testss_24test_status_no_tty_error
FN:245,_RNvNtNtNtCs14PW5HJOtOs_6glossa5tools2ui5testss_25test_status_custom_symbol
FN:232,_RNvNtNtNtCs14PW5HJOtOs_6glossa5tools2ui5testss_25test_status_no_tty_update
FN:270,_RNvNtNtNtCs14PW5HJOtOs_6glossa5tools2ui5testss_26test_status_error_inactive
FN:225,_RNvNtNtNtCs14PW5HJOtOs_6glossa5tools2ui5testss_26test_status_no_tty_success
FN:259,_RNvNtNtNtCs14PW5HJOtOs_6glossa5tools2ui5testss_27test_status_update_inactive
FN:159,_RNvMNtNtCs14PW5HJOtOs_6glossa5tools2uiNtB2_6Status13print_running
FN:123,_RNvMNtNtCs14PW5HJOtOs_6glossa5tools2uiNtB2_6Status7success
FN:179,_RINvMNtNtCs14PW5HJOtOs_6glossa5tools2uiNtB3_6Status10print_doneINtNtNtCstJ2g9kd0KI_9crossterm5style14styled_content13StyledContentReEEB7_
FN:72,_RINvMNtNtCs14PW5HJOtOs_6glossa5tools2uiNtB3_6Status17start_with_symbolReB16_EB7_
FN:78,_RINvMNtNtCs14PW5HJOtOs_6glossa5tools2uiNtB3_6Status3newReBR_EB7_
FN:148,_RINvMNtNtCs14PW5HJOtOs_6glossa5tools2uiNtB3_6Status5errorReEB7_
FN:59,_RINvMNtNtCs14PW5HJOtOs_6glossa5tools2uiNtB3_6Status5startReEB7_
FN:103,_RINvMNtNtCs14PW5HJOtOs_6glossa5tools2uiNtB3_6Status6updateReEB7_
FN:193,_RNvXs_NtNtCs14PW5HJOtOs_6glossa5tools2uiNtB4_6StatusNtNtNtCs4kUJL3MZFFz_4core3ops4drop4Drop4drop
FNDA:9,_RNvXs_NtNtCs4a0SCptkpqe_6glossa5tools2uiNtB4_6StatusNtNtNtCs4kUJL3MZFFz_4core3ops4drop4Drop4drop
FNDA:0,_RINvMNtNtCs4a0SCptkpqe_6glossa5tools2uiNtB3_6Status5startpEB7_
FNDA:14,_RNvMNtNtCs4a0SCptkpqe_6glossa5tools2uiNtB2_6Status13print_running
FNDA:3,_RNvMNtNtCs4a0SCptkpqe_6glossa5tools2uiNtB2_6Status7success
FNDA:8,_RINvMNtNtCs4a0SCptkpqe_6glossa5tools2uiNtB3_6Status10print_doneINtNtNtCstJ2g9kd0KI_9crossterm5style14styled_content13StyledContentReEEB7_
FNDA:9,_RINvMNtNtCs4a0SCptkpqe_6glossa5tools2uiNtB3_6Status17start_with_symbolReB16_EB7_
FNDA:9,_RINvMNtNtCs4a0SCptkpqe_6glossa5tools2uiNtB3_6Status3newReBR_EB7_
FNDA:5,_RINvMNtNtCs4a0SCptkpqe_6glossa5tools2uiNtB3_6Status5errorReEB7_
FNDA:5,_RINvMNtNtCs4a0SCptkpqe_6glossa5tools2uiNtB3_6Status6updateReEB7_
FNDA:1,_RNvNtNtNtCs14PW5HJOtOs_6glossa5tools2ui5testss_16test_status_drop
FNDA:1,_RNvNtNtNtCs14PW5HJOtOs_6glossa5tools2ui5testss_21test_status_tty_error
FNDA:1,_RNvNtNtNtCs14PW5HJOtOs_6glossa5tools2ui5testss_22test_status_tty_update
FNDA:1,_RNvNtNtNtCs14PW5HJOtOs_6glossa5tools2ui5testss_23test_status_tty_success
FNDA:1,_RNvNtNtNtCs14PW5HJOtOs_6glossa5tools2ui5testss_24test_status_no_tty_error
FNDA:1,_RNvNtNtNtCs14PW5HJOtOs_6glossa5tools2ui5testss_25test_status_custom_symbol
FNDA:1,_RNvNtNtNtCs14PW5HJOtOs_6glossa5tools2ui5testss_25test_status_no_tty_update
FNDA:1,_RNvNtNtNtCs14PW5HJOtOs_6glossa5tools2ui5testss_26test_status_error_inactive
FNDA:1,_RNvNtNtNtCs14PW5HJOtOs_6glossa5tools2ui5testss_26test_status_no_tty_success
FNDA:1,_RNvNtNtNtCs14PW5HJOtOs_6glossa5tools2ui5testss_27test_status_update_inactive
FNDA:29,_RNvMNtNtCs14PW5HJOtOs_6glossa5tools2uiNtB2_6Status13print_running
FNDA:12,_RNvMNtNtCs14PW5HJOtOs_6glossa5tools2uiNtB2_6Status7success
FNDA:23,_RINvMNtNtCs14PW5HJOtOs_6glossa5tools2uiNtB3_6Status10print_doneINtNtNtCstJ2g9kd0KI_9crossterm5style14styled_content13StyledContentReEEB7_
FNDA:18,_RINvMNtNtCs14PW5HJOtOs_6glossa5tools2uiNtB3_6Status17start_with_symbolReB16_EB7_
FNDA:26,_RINvMNtNtCs14PW5HJOtOs_6glossa5tools2uiNtB3_6Status3newReBR_EB7_
FNDA:13,_RINvMNtNtCs14PW5HJOtOs_6glossa5tools2uiNtB3_6Status5errorReEB7_
FNDA:2,_RINvMNtNtCs14PW5HJOtOs_6glossa5tools2uiNtB3_6Status5startReEB7_
FNDA:4,_RINvMNtNtCs14PW5HJOtOs_6glossa5tools2uiNtB3_6Status6updateReEB7_
FNDA:26,_RNvXs_NtNtCs14PW5HJOtOs_6glossa5tools2uiNtB4_6StatusNtNtNtCs4kUJL3MZFFz_4core3ops4drop4Drop4drop
FNF:19
FNH:19
DA:59,2
DA:60,2
DA:61,2
DA:72,27
DA:73,27
DA:74,27
DA:75,27
DA:78,35
DA:79,35
DA:80,35
DA:81,35
DA:82,35
DA:83,35
DA:84,35
DA:85,35
DA:86,35
DA:87,35
DA:88,35
DA:103,9
DA:104,9
DA:105,1
DA:106,8
DA:107,8
DA:108,8
DA:109,9
DA:123,15
DA:124,15
DA:125,1
DA:126,14
DA:128,14
DA:129,14
DA:130,14
DA:132,14
DA:133,14
DA:134,15
DA:148,18
DA:149,18
DA:150,1
DA:151,17
DA:153,17
DA:154,17
DA:155,17
DA:156,17
DA:157,18
DA:159,43
DA:161,43
DA:162,43
DA:164,43
DA:165,5
DA:166,5
DA:167,1
DA:168,1
DA:169,4
DA:170,4
DA:171,4
DA:172,5
DA:173,5
DA:174,38
DA:175,38
DA:176,38
DA:177,43
DA:179,31
DA:180,31
DA:181,3
DA:182,3
DA:183,3
DA:184,3
DA:185,3
DA:186,28
DA:187,28
DA:188,28
DA:189,31
DA:193,35
DA:194,35
DA:195,1
DA:196,34
DA:197,35
DA:205,1
DA:206,1
DA:208,1
DA:209,1
DA:212,1
DA:213,1
DA:214,1
DA:215,1
DA:216,1
DA:219,1
DA:220,1
DA:221,1
DA:222,1
DA:225,1
DA:226,1
DA:228,1
DA:229,1
DA:232,1
DA:233,1
DA:234,1
DA:235,1
DA:236,1
DA:239,1
DA:240,1
DA:241,1
DA:242,1
DA:245,1
DA:246,1
DA:247,1
DA:248,1
DA:251,1
DA:252,1
DA:253,1
DA:254,1
DA:255,1
DA:256,1
DA:259,1
DA:260,1
DA:261,1
DA:262,1
DA:263,1
DA:266,1
DA:267,1
DA:270,1
DA:271,1
DA:272,1
DA:274,1
DA:275,1
BRF:0
BRH:0
LF:125
LH:125
end_of_record