SF:/app/src/ast.rs
FN:447,_RNvXs1_NtCsluBEq34Hdgp_6glossa3astNtB5_4ExprNtNtNtCs3XFJfFEDSOQ_4core3ops4drop4Drop4drop
FN:577,_RINvMs2_NtCsluBEq34Hdgp_6glossa3astNtB6_4Word3newReEB8_
FN:187,_RNCNvMNtCsluBEq34Hdgp_6glossa3astNtB4_9Statement11expressions0B6_
FN:371,_RNCNvXs0_NtCsluBEq34Hdgp_6glossa3astNtB7_4ExprNtNtCs3XFJfFEDSOQ_4core3cmp9PartialEq2eq0B9_
FN:449,_RNCNvXs1_NtCsluBEq34Hdgp_6glossa3astNtB7_4ExprNtNtNtCs3XFJfFEDSOQ_4core3ops4drop4Drop4drop0B9_
FN:331,_RNCNvXs_NtCsluBEq34Hdgp_6glossa3astNtB6_4ExprNtNtCs3XFJfFEDSOQ_4core5clone5Clone5clone0B8_
FN:184,_RNvMNtCsluBEq34Hdgp_6glossa3astNtB2_9Statement11expressions
FN:208,_RNvMNtCsluBEq34Hdgp_6glossa3astNtB2_9Statement12is_propagate
FN:219,_RNvMNtCsluBEq34Hdgp_6glossa3astNtB2_9Statement7clauses
FN:197,_RNvMNtCsluBEq34Hdgp_6glossa3astNtB2_9Statement8is_query
FN:369,_RNvXs0_NtCsluBEq34Hdgp_6glossa3astNtB5_4ExprNtNtCs3XFJfFEDSOQ_4core3cmp9PartialEq2eq
FN:329,_RNvXs_NtCsluBEq34Hdgp_6glossa3astNtB4_4ExprNtNtCs3XFJfFEDSOQ_4core5clone5Clone5clone
FN:187,_RNCNvMNtCs4cnvRHYBibt_6glossa3astNtB4_9Statement11expressions0B6_
FN:371,_RNCNvXs0_NtCs4cnvRHYBibt_6glossa3astNtB7_4ExprNtNtCs3XFJfFEDSOQ_4core3cmp9PartialEq2eq0B9_
FN:184,_RNvMNtCs4cnvRHYBibt_6glossa3astNtB2_9Statement11expressions
FN:369,_RNvXs0_NtCs4cnvRHYBibt_6glossa3astNtB5_4ExprNtNtCs3XFJfFEDSOQ_4core3cmp9PartialEq2eq
FN:447,_RNvXs1_NtCs4cnvRHYBibt_6glossa3astNtB5_4ExprNtNtNtCs3XFJfFEDSOQ_4core3ops4drop4Drop4drop
FN:208,_RNvMNtCs4cnvRHYBibt_6glossa3astNtB2_9Statement12is_propagate
FN:219,_RNvMNtCs4cnvRHYBibt_6glossa3astNtB2_9Statement7clauses
FN:197,_RNvMNtCs4cnvRHYBibt_6glossa3astNtB2_9Statement8is_query
FN:329,_RNvXs_NtCs4cnvRHYBibt_6glossa3astNtB4_4ExprNtNtCs3XFJfFEDSOQ_4core5clone5Clone5clone
FN:577,_RINvMs2_NtCs4cnvRHYBibt_6glossa3astNtB6_4Word3newReEB8_
FN:449,_RNCNvXs1_NtCs4cnvRHYBibt_6glossa3astNtB7_4ExprNtNtNtCs3XFJfFEDSOQ_4core3ops4drop4Drop4drop0B9_
FN:331,_RNCNvXs_NtCs4cnvRHYBibt_6glossa3astNtB6_4ExprNtNtCs3XFJfFEDSOQ_4core5clone5Clone5clone0B8_
FNDA:2952248,_RNvXs1_NtCsluBEq34Hdgp_6glossa3astNtB5_4ExprNtNtNtCs3XFJfFEDSOQ_4core3ops4drop4Drop4drop
FNDA:8581,_RINvMs2_NtCsluBEq34Hdgp_6glossa3astNtB6_4Word3newReEB8_
FNDA:0,_RNCNvMNtCsluBEq34Hdgp_6glossa3astNtB4_9Statement11expressions0B6_
FNDA:40040,_RNCNvXs0_NtCsluBEq34Hdgp_6glossa3astNtB7_4ExprNtNtCs3XFJfFEDSOQ_4core3cmp9PartialEq2eq0B9_
FNDA:2952248,_RNCNvXs1_NtCsluBEq34Hdgp_6glossa3astNtB7_4ExprNtNtNtCs3XFJfFEDSOQ_4core3ops4drop4Drop4drop0B9_
FNDA:830575,_RNCNvXs_NtCsluBEq34Hdgp_6glossa3astNtB6_4ExprNtNtCs3XFJfFEDSOQ_4core5clone5Clone5clone0B8_
FNDA:0,_RNvMNtCsluBEq34Hdgp_6glossa3astNtB2_9Statement11expressions
FNDA:838,_RNvMNtCsluBEq34Hdgp_6glossa3astNtB2_9Statement12is_propagate
FNDA:3098,_RNvMNtCsluBEq34Hdgp_6glossa3astNtB2_9Statement7clauses
FNDA:838,_RNvMNtCsluBEq34Hdgp_6glossa3astNtB2_9Statement8is_query
FNDA:40040,_RNvXs0_NtCsluBEq34Hdgp_6glossa3astNtB5_4ExprNtNtCs3XFJfFEDSOQ_4core3cmp9PartialEq2eq
FNDA:830575,_RNvXs_NtCsluBEq34Hdgp_6glossa3astNtB4_4ExprNtNtCs3XFJfFEDSOQ_4core5clone5Clone5clone
FNDA:0,_RNCNvMNtCs4cnvRHYBibt_6glossa3astNtB4_9Statement11expressions0B6_
FNDA:0,_RNCNvXs0_NtCs4cnvRHYBibt_6glossa3astNtB7_4ExprNtNtCs3XFJfFEDSOQ_4core3cmp9PartialEq2eq0B9_
FNDA:0,_RNvMNtCs4cnvRHYBibt_6glossa3astNtB2_9Statement11expressions
FNDA:0,_RNvXs0_NtCs4cnvRHYBibt_6glossa3astNtB5_4ExprNtNtCs3XFJfFEDSOQ_4core3cmp9PartialEq2eq
FNDA:10813,_RNvXs1_NtCs4cnvRHYBibt_6glossa3astNtB5_4ExprNtNtNtCs3XFJfFEDSOQ_4core3ops4drop4Drop4drop
FNDA:1382,_RNvMNtCs4cnvRHYBibt_6glossa3astNtB2_9Statement12is_propagate
FNDA:4148,_RNvMNtCs4cnvRHYBibt_6glossa3astNtB2_9Statement7clauses
FNDA:1384,_RNvMNtCs4cnvRHYBibt_6glossa3astNtB2_9Statement8is_query
FNDA:1554,_RNvXs_NtCs4cnvRHYBibt_6glossa3astNtB4_4ExprNtNtCs3XFJfFEDSOQ_4core5clone5Clone5clone
FNDA:167,_RINvMs2_NtCs4cnvRHYBibt_6glossa3astNtB6_4Word3newReEB8_
FNDA:10813,_RNCNvXs1_NtCs4cnvRHYBibt_6glossa3astNtB7_4ExprNtNtNtCs3XFJfFEDSOQ_4core3ops4drop4Drop4drop0B9_
FNDA:1554,_RNCNvXs_NtCs4cnvRHYBibt_6glossa3astNtB6_4ExprNtNtCs3XFJfFEDSOQ_4core5clone5Clone5clone0B8_
FNF:12
FNH:10
DA:184,0
DA:185,0
DA:186,0
DA:187,0
DA:189,0
DA:190,0
DA:191,0
DA:192,0
DA:194,0
DA:197,2222
DA:198,2222
DA:199,2222
DA:200,0
DA:201,0
DA:202,0
DA:203,0
DA:205,2222
DA:208,2220
DA:209,2220
DA:210,2220
DA:211,0
DA:212,0
DA:213,0
DA:214,0
DA:216,2220
DA:219,7246
DA:220,7246
DA:221,7246
DA:222,0
DA:223,0
DA:224,0
DA:225,0
DA:227,7246
DA:329,832129
DA:331,832129
DA:332,24
DA:333,395960
DA:334,3
DA:335,2
DA:336,1
DA:337,1
DA:338,1
DA:339,1
DA:340,197513
DA:341,238614
DA:342,4
DA:343,4
DA:344,4
DA:345,4
DA:346,1
DA:347,1
DA:348,1
DA:349,1
DA:350,1
DA:351,1
DA:352,1
DA:353,1
DA:354,1
DA:355,1
DA:356,1
DA:357,1
DA:358,1
DA:359,1
DA:360,1
DA:361,1
DA:362,1
DA:363,4
DA:364,832129
DA:365,832129
DA:369,40040
DA:371,40040
DA:372,1
DA:373,12
DA:374,2
DA:375,2
DA:378,1
DA:379,1
DA:382,1
DA:383,1
DA:385,1
DA:386,3
DA:387,40001
DA:390,1
DA:391,1
DA:394,1
DA:395,1
DA:397,1
DA:400,1
DA:401,1
DA:404,1
DA:405,1
DA:407,1
DA:410,1
DA:411,1
DA:414,1
DA:415,1
DA:417,1
DA:420,1
DA:421,1
DA:422,1
DA:425,1
DA:426,1
DA:427,1
DA:429,1
DA:432,1
DA:433,1
DA:436,1
DA:437,1
DA:439,1
DA:440,1
DA:441,12
DA:442,40040
DA:443,40040
DA:447,2963061
DA:449,2963061
DA:451,2963061
DA:455,2652438
DA:456,310623
DA:465,310623
DA:466,304002
DA:467,304002
DA:468,304002
DA:469,322
DA:470,322
DA:471,322
DA:472,490
DA:473,490
DA:474,490
DA:475,131
DA:476,131
DA:477,131
DA:478,131
DA:479,5021
DA:480,5021
DA:481,5021
DA:482,5021
DA:483,64
DA:484,64
DA:485,64
DA:486,64
DA:487,64
DA:488,64
DA:489,64
DA:490,64
DA:491,64
DA:492,152
DA:493,152
DA:494,152
DA:495,152
DA:496,377
DA:497,377
DA:498,377
DA:500,0
DA:502,2963061
DA:503,2963061
DA:577,8748
DA:578,8748
DA:579,8748
DA:580,8748
DA:581,8748
DA:582,8748
DA:583,8748
DA:584,8748
BRF:0
BRH:0
LF:167
LH:144
end_of_record
SF:/app/src/codegen.rs
FN:562,_RNvNtCsluBEq34Hdgp_6glossa7codegen11generate_if
FN:1167,_RNvNtCsluBEq34Hdgp_6glossa7codegen11is_std_type
FN:601,_RNvNtCsluBEq34Hdgp_6glossa7codegen12generate_for
FN:537,_RNvNtCsluBEq34Hdgp_6glossa7codegen12generate_let
FN:276,_RNvNtCsluBEq34Hdgp_6glossa7codegen12to_rust_type
FN:886,_RNvNtCsluBEq34Hdgp_6glossa7codegen13generate_expr
FN:357,_RNvNtCsluBEq34Hdgp_6glossa7codegen13generate_rust
FN:859,_RNvNtCsluBEq34Hdgp_6glossa7codegen13generate_test
FN:1133,_RNvNtCsluBEq34Hdgp_6glossa7codegen13is_std_method
FN:174,_RNvNtCsluBEq34Hdgp_6glossa7codegen13sanitize_name
FN:207,_RNvNtCsluBEq34Hdgp_6glossa7codegen13transliterate
FN:616,_RNvNtCsluBEq34Hdgp_6glossa7codegen14generate_match
FN:548,_RNvNtCsluBEq34Hdgp_6glossa7codegen14generate_print
FN:1231,_RNvNtCsluBEq34Hdgp_6glossa7codegen14generate_range
FN:591,_RNvNtCsluBEq34Hdgp_6glossa7codegen14generate_while
FN:110,_RNvNtCsluBEq34Hdgp_6glossa7codegen14sanitize_ident
FN:964,_RNvNtCsluBEq34Hdgp_6glossa7codegen15generate_bin_op
FN:642,_RNvNtCsluBEq34Hdgp_6glossa7codegen15generate_fn_def
FN:1100,_RNvNtCsluBEq34Hdgp_6glossa7codegen16generate_closure
FN:1210,_RNvNtCsluBEq34Hdgp_6glossa7codegen17generate_unary_op
FN:1199,_RNvNtCsluBEq34Hdgp_6glossa7codegen17generate_variable
FN:1120,_RNvNtCsluBEq34Hdgp_6glossa7codegen17is_self_parameter
FN:443,_RNvNtCsluBEq34Hdgp_6glossa7codegen18generate_rust_file
FN:462,_RNvNtCsluBEq34Hdgp_6glossa7codegen18generate_statement
FN:744,_RNvNtCsluBEq34Hdgp_6glossa7codegen18generate_trait_def
FN:1034,_RNvNtCsluBEq34Hdgp_6glossa7codegen19generate_checked_op
FN:410,_RNvNtCsluBEq34Hdgp_6glossa7codegen19generate_panic_hook
FN:458,_RNvNtCsluBEq34Hdgp_6glossa7codegen19generate_statements
FN:682,_RNvNtCsluBEq34Hdgp_6glossa7codegen19generate_struct_def
FN:1044,_RNvNtCsluBEq34Hdgp_6glossa7codegen19generate_struct_lit
FN:798,_RNvNtCsluBEq34Hdgp_6glossa7codegen19generate_trait_impl
FN:1323,_RNvNtCsluBEq34Hdgp_6glossa7codegen19generate_variant_ok
FN:1333,_RNvNtCsluBEq34Hdgp_6glossa7codegen20generate_control_try
FN:1272,_RNvNtCsluBEq34Hdgp_6glossa7codegen20generate_method_call
FN:306,_RNvNtCsluBEq34Hdgp_6glossa7codegen20generate_type_tokens
FN:1328,_RNvNtCsluBEq34Hdgp_6glossa7codegen20generate_variant_err
FN:1319,_RNvNtCsluBEq34Hdgp_6glossa7codegen21generate_variant_none
FN:1314,_RNvNtCsluBEq34Hdgp_6glossa7codegen21generate_variant_some
FN:1304,_RNvNtCsluBEq34Hdgp_6glossa7codegen22generate_function_call
FN:1250,_RNvNtCsluBEq34Hdgp_6glossa7codegen23generate_collection_new
FN:1343,_RNvNtCsluBEq34Hdgp_6glossa7codegen23generate_control_assert
FN:1338,_RNvNtCsluBEq34Hdgp_6glossa7codegen23generate_control_unwrap
FN:1191,_RNvNtCsluBEq34Hdgp_6glossa7codegen23generate_literal_number
FN:1187,_RNvNtCsluBEq34Hdgp_6glossa7codegen23generate_literal_string
FN:454,_RNvNtCsluBEq34Hdgp_6glossa7codegen23generate_statement_code
FN:1195,_RNvNtCsluBEq34Hdgp_6glossa7codegen24generate_literal_boolean
FN:1204,_RNvNtCsluBEq34Hdgp_6glossa7codegen24generate_property_access
FN:1245,_RNvNtCsluBEq34Hdgp_6glossa7codegen25generate_collection_array
FN:1256,_RNvNtCsluBEq34Hdgp_6glossa7codegen25generate_collection_index
FN:1073,_RNvNtCsluBEq34Hdgp_6glossa7codegen25generate_memoized_closure
FN:527,_RNvNtCsluBEq34Hdgp_6glossa7codegen25generate_statement_return
FN:1348,_RNvNtCsluBEq34Hdgp_6glossa7codegen26generate_control_assert_eq
FN:504,_RNvNtCsluBEq34Hdgp_6glossa7codegen26generate_statement_binding
FN:1292,_RNvNtCsluBEq34Hdgp_6glossa7codegen26generate_trait_method_call
FN:717,_RNvNtCsluBEq34Hdgp_6glossa7codegen27generate_trait_method_parts
FN:510,_RNvNtCsluBEq34Hdgp_6glossa7codegen29generate_statement_assignment
FN:516,_RNvNtCsluBEq34Hdgp_6glossa7codegen29generate_statement_expression
FN:128,_RNvXNtCsluBEq34Hdgp_6glossa7codegenNtB2_9SanitizerNtNtCs3XFJfFEDSOQ_4core3fmt7Display3fmt
FN:231,_RINvNtCsluBEq34Hdgp_6glossa7codegen17transliterate_fmtNtNtCs3XFJfFEDSOQ_4core3fmt9FormatterEB4_
FN:231,_RINvNtCsluBEq34Hdgp_6glossa7codegen17transliterate_fmtNtNtCsgag4BwXrjBQ_5alloc6string6StringEB4_
FN:215,_RNCNvNtCsluBEq34Hdgp_6glossa7codegen13transliterate0B5_
FN:623,_RNCNvNtCsluBEq34Hdgp_6glossa7codegen14generate_match0B5_
FN:654,_RNCNvNtCsluBEq34Hdgp_6glossa7codegen15generate_fn_def0B5_
FN:1106,_RNCNvNtCsluBEq34Hdgp_6glossa7codegen16generate_closure0B5_
FN:758,_RNCNvNtCsluBEq34Hdgp_6glossa7codegen18generate_trait_def0B5_
FN:696,_RNCNvNtCsluBEq34Hdgp_6glossa7codegen19generate_struct_def0B5_
FN:1063,_RNCNvNtCsluBEq34Hdgp_6glossa7codegen19generate_struct_lit0B5_
FN:824,_RNCNvNtCsluBEq34Hdgp_6glossa7codegen19generate_trait_impl0B5_
FN:724,_RNCNvNtCsluBEq34Hdgp_6glossa7codegen27generate_trait_method_parts0B5_
FN:519,_RNCNvNtCsluBEq34Hdgp_6glossa7codegen29generate_statement_expression0B5_
FN:1505,_RNvNtNtCs4cnvRHYBibt_6glossa7codegen5tests7compile
FN:1449,_RNvNtNtCs4cnvRHYBibt_6glossa7codegen5testss_16test_basic_types
FN:1488,_RNvNtNtCs4cnvRHYBibt_6glossa7codegen5testss_16test_struct_type
FN:1371,_RNvNtNtCs4cnvRHYBibt_6glossa7codegen5testss_18test_transliterate
FN:1512,_RNvNtNtCs4cnvRHYBibt_6glossa7codegen5testss_19test_generate_hello
FN:1458,_RNvNtNtCs4cnvRHYBibt_6glossa7codegen5testss_20test_container_types
FN:1528,_RNvNtNtCs4cnvRHYBibt_6glossa7codegen5testss_20test_generate_number
FN:1520,_RNvNtNtCs4cnvRHYBibt_6glossa7codegen5testss_21test_generate_binding
FN:1430,_RNvNtNtCs4cnvRHYBibt_6glossa7codegen5testss_24test_sanitize_edge_cases
FN:1389,_RNvNtNtCs4cnvRHYBibt_6glossa7codegen5testss_25test_transliterate_unique
FN:1535,_RNvNtNtCs4cnvRHYBibt_6glossa7codegen5testss_26test_generate_full_program
FN:1364,_RNvNtNtCs4cnvRHYBibt_6glossa7codegen5testss_26test_sanitize_greek_letter
FN:1547,_RNvNtNtCs4cnvRHYBibt_6glossa7codegen5testss_28test_generate_statement_code
FN:1417,_RNvNtNtCs4cnvRHYBibt_6glossa7codegen5testss_33test_sanitize_keywords_and_prefix
FN:1557,_RNvNtNtCs4cnvRHYBibt_6glossa7codegen5testss_35test_generate_unreachable_operators
FN:1406,_RNvNtNtCs4cnvRHYBibt_6glossa7codegen5testss_38test_transliterate_mixed_valid_invalid
FN:231,_RINvNtCs4cnvRHYBibt_6glossa7codegen17transliterate_fmtNtNtCs3XFJfFEDSOQ_4core3fmt9FormatterEB4_
FN:231,_RINvNtCs4cnvRHYBibt_6glossa7codegen17transliterate_fmtNtNtCsgag4BwXrjBQ_5alloc6string6StringEB4_
FN:215,_RNCNvNtCs4cnvRHYBibt_6glossa7codegen13transliterate0B5_
FN:623,_RNCNvNtCs4cnvRHYBibt_6glossa7codegen14generate_match0B5_
FN:654,_RNCNvNtCs4cnvRHYBibt_6glossa7codegen15generate_fn_def0B5_
FN:1106,_RNCNvNtCs4cnvRHYBibt_6glossa7codegen16generate_closure0B5_
FN:758,_RNCNvNtCs4cnvRHYBibt_6glossa7codegen18generate_trait_def0B5_
FN:696,_RNCNvNtCs4cnvRHYBibt_6glossa7codegen19generate_struct_def0B5_
FN:1063,_RNCNvNtCs4cnvRHYBibt_6glossa7codegen19generate_struct_lit0B5_
FN:824,_RNCNvNtCs4cnvRHYBibt_6glossa7codegen19generate_trait_impl0B5_
FN:724,_RNCNvNtCs4cnvRHYBibt_6glossa7codegen27generate_trait_method_parts0B5_
FN:519,_RNCNvNtCs4cnvRHYBibt_6glossa7codegen29generate_statement_expression0B5_
FN:562,_RNvNtCs4cnvRHYBibt_6glossa7codegen11generate_if
FN:1167,_RNvNtCs4cnvRHYBibt_6glossa7codegen11is_std_type
FN:601,_RNvNtCs4cnvRHYBibt_6glossa7codegen12generate_for
FN:537,_RNvNtCs4cnvRHYBibt_6glossa7codegen12generate_let
FN:276,_RNvNtCs4cnvRHYBibt_6glossa7codegen12to_rust_type
FN:886,_RNvNtCs4cnvRHYBibt_6glossa7codegen13generate_expr
FN:357,_RNvNtCs4cnvRHYBibt_6glossa7codegen13generate_rust
FN:859,_RNvNtCs4cnvRHYBibt_6glossa7codegen13generate_test
FN:1133,_RNvNtCs4cnvRHYBibt_6glossa7codegen13is_std_method
FN:174,_RNvNtCs4cnvRHYBibt_6glossa7codegen13sanitize_name
FN:207,_RNvNtCs4cnvRHYBibt_6glossa7codegen13transliterate
FN:616,_RNvNtCs4cnvRHYBibt_6glossa7codegen14generate_match
FN:548,_RNvNtCs4cnvRHYBibt_6glossa7codegen14generate_print
FN:1231,_RNvNtCs4cnvRHYBibt_6glossa7codegen14generate_range
FN:591,_RNvNtCs4cnvRHYBibt_6glossa7codegen14generate_while
FN:110,_RNvNtCs4cnvRHYBibt_6glossa7codegen14sanitize_ident
FN:964,_RNvNtCs4cnvRHYBibt_6glossa7codegen15generate_bin_op
FN:642,_RNvNtCs4cnvRHYBibt_6glossa7codegen15generate_fn_def
FN:1100,_RNvNtCs4cnvRHYBibt_6glossa7codegen16generate_closure
FN:1210,_RNvNtCs4cnvRHYBibt_6glossa7codegen17generate_unary_op
FN:1199,_RNvNtCs4cnvRHYBibt_6glossa7codegen17generate_variable
FN:1120,_RNvNtCs4cnvRHYBibt_6glossa7codegen17is_self_parameter
FN:443,_RNvNtCs4cnvRHYBibt_6glossa7codegen18generate_rust_file
FN:462,_RNvNtCs4cnvRHYBibt_6glossa7codegen18generate_statement
FN:744,_RNvNtCs4cnvRHYBibt_6glossa7codegen18generate_trait_def
FN:1034,_RNvNtCs4cnvRHYBibt_6glossa7codegen19generate_checked_op
FN:410,_RNvNtCs4cnvRHYBibt_6glossa7codegen19generate_panic_hook
FN:458,_RNvNtCs4cnvRHYBibt_6glossa7codegen19generate_statements
FN:682,_RNvNtCs4cnvRHYBibt_6glossa7codegen19generate_struct_def
FN:1044,_RNvNtCs4cnvRHYBibt_6glossa7codegen19generate_struct_lit
FN:798,_RNvNtCs4cnvRHYBibt_6glossa7codegen19generate_trait_impl
FN:1323,_RNvNtCs4cnvRHYBibt_6glossa7codegen19generate_variant_ok
FN:1333,_RNvNtCs4cnvRHYBibt_6glossa7codegen20generate_control_try
FN:1272,_RNvNtCs4cnvRHYBibt_6glossa7codegen20generate_method_call
FN:306,_RNvNtCs4cnvRHYBibt_6glossa7codegen20generate_type_tokens
FN:1328,_RNvNtCs4cnvRHYBibt_6glossa7codegen20generate_variant_err
FN:1319,_RNvNtCs4cnvRHYBibt_6glossa7codegen21generate_variant_none
FN:1314,_RNvNtCs4cnvRHYBibt_6glossa7codegen21generate_variant_some
FN:1304,_RNvNtCs4cnvRHYBibt_6glossa7codegen22generate_function_call
FN:1250,_RNvNtCs4cnvRHYBibt_6glossa7codegen23generate_collection_new
FN:1343,_RNvNtCs4cnvRHYBibt_6glossa7codegen23generate_control_assert
FN:1338,_RNvNtCs4cnvRHYBibt_6glossa7codegen23generate_control_unwrap
FN:1191,_RNvNtCs4cnvRHYBibt_6glossa7codegen23generate_literal_number
FN:1187,_RNvNtCs4cnvRHYBibt_6glossa7codegen23generate_literal_string
FN:454,_RNvNtCs4cnvRHYBibt_6glossa7codegen23generate_statement_code
FN:1195,_RNvNtCs4cnvRHYBibt_6glossa7codegen24generate_literal_boolean
FN:1204,_RNvNtCs4cnvRHYBibt_6glossa7codegen24generate_property_access
FN:1245,_RNvNtCs4cnvRHYBibt_6glossa7codegen25generate_collection_array
FN:1256,_RNvNtCs4cnvRHYBibt_6glossa7codegen25generate_collection_index
FN:1073,_RNvNtCs4cnvRHYBibt_6glossa7codegen25generate_memoized_closure
FN:527,_RNvNtCs4cnvRHYBibt_6glossa7codegen25generate_statement_return
FN:1348,_RNvNtCs4cnvRHYBibt_6glossa7codegen26generate_control_assert_eq
FN:504,_RNvNtCs4cnvRHYBibt_6glossa7codegen26generate_statement_binding
FN:1292,_RNvNtCs4cnvRHYBibt_6glossa7codegen26generate_trait_method_call
FN:717,_RNvNtCs4cnvRHYBibt_6glossa7codegen27generate_trait_method_parts
FN:510,_RNvNtCs4cnvRHYBibt_6glossa7codegen29generate_statement_assignment
FN:516,_RNvNtCs4cnvRHYBibt_6glossa7codegen29generate_statement_expression
FN:128,_RNvXNtCs4cnvRHYBibt_6glossa7codegenNtB2_9SanitizerNtNtCs3XFJfFEDSOQ_4core3fmt7Display3fmt
FN:1624,_RNCNvNtNtNtCs4cnvRHYBibt_6glossa7codegen5tests14refactor_testss_32test_generate_trait_parts_manual0B9_
FN:1587,_RNvNtNtNtCs4cnvRHYBibt_6glossa7codegen5tests14refactor_testss_30test_generate_memoized_closure
FN:1636,_RNvNtNtNtCs4cnvRHYBibt_6glossa7codegen5tests14refactor_testss_32test_generate_checked_arithmetic
FN:1607,_RNvNtNtNtCs4cnvRHYBibt_6glossa7codegen5tests14refactor_testss_32test_generate_trait_parts_manual
FNDA:7,_RNvNtCsluBEq34Hdgp_6glossa7codegen11generate_if
FNDA:94,_RNvNtCsluBEq34Hdgp_6glossa7codegen11is_std_type
FNDA:7,_RNvNtCsluBEq34Hdgp_6glossa7codegen12generate_for
FNDA:183,_RNvNtCsluBEq34Hdgp_6glossa7codegen12generate_let
FNDA:9,_RNvNtCsluBEq34Hdgp_6glossa7codegen12to_rust_type
FNDA:974,_RNvNtCsluBEq34Hdgp_6glossa7codegen13generate_expr
FNDA:222,_RNvNtCsluBEq34Hdgp_6glossa7codegen13generate_rust
FNDA:8,_RNvNtCsluBEq34Hdgp_6glossa7codegen13generate_test
FNDA:97,_RNvNtCsluBEq34Hdgp_6glossa7codegen13is_std_method
FNDA:2,_RNvNtCsluBEq34Hdgp_6glossa7codegen13sanitize_name
FNDA:256,_RNvNtCsluBEq34Hdgp_6glossa7codegen13transliterate
FNDA:2,_RNvNtCsluBEq34Hdgp_6glossa7codegen14generate_match
FNDA:147,_RNvNtCsluBEq34Hdgp_6glossa7codegen14generate_print
FNDA:4,_RNvNtCsluBEq34Hdgp_6glossa7codegen14generate_range
FNDA:2,_RNvNtCsluBEq34Hdgp_6glossa7codegen14generate_while
FNDA:502,_RNvNtCsluBEq34Hdgp_6glossa7codegen14sanitize_ident
FNDA:72,_RNvNtCsluBEq34Hdgp_6glossa7codegen15generate_bin_op
FNDA:16,_RNvNtCsluBEq34Hdgp_6glossa7codegen15generate_fn_def
FNDA:32,_RNvNtCsluBEq34Hdgp_6glossa7codegen16generate_closure
FNDA:5,_RNvNtCsluBEq34Hdgp_6glossa7codegen17generate_unary_op
FNDA:166,_RNvNtCsluBEq34Hdgp_6glossa7codegen17generate_variable
FNDA:27,_RNvNtCsluBEq34Hdgp_6glossa7codegen17is_self_parameter
FNDA:7,_RNvNtCsluBEq34Hdgp_6glossa7codegen18generate_rust_file
FNDA:485,_RNvNtCsluBEq34Hdgp_6glossa7codegen18generate_statement
FNDA:14,_RNvNtCsluBEq34Hdgp_6glossa7codegen18generate_trait_def
FNDA:16,_RNvNtCsluBEq34Hdgp_6glossa7codegen19generate_checked_op
FNDA:221,_RNvNtCsluBEq34Hdgp_6glossa7codegen19generate_panic_hook
FNDA:63,_RNvNtCsluBEq34Hdgp_6glossa7codegen19generate_statements
FNDA:26,_RNvNtCsluBEq34Hdgp_6glossa7codegen19generate_struct_def
FNDA:12,_RNvNtCsluBEq34Hdgp_6glossa7codegen19generate_struct_lit
FNDA:12,_RNvNtCsluBEq34Hdgp_6glossa7codegen19generate_trait_impl
FNDA:12,_RNvNtCsluBEq34Hdgp_6glossa7codegen19generate_variant_ok
FNDA:11,_RNvNtCsluBEq34Hdgp_6glossa7codegen20generate_control_try
FNDA:97,_RNvNtCsluBEq34Hdgp_6glossa7codegen20generate_method_call
FNDA:74,_RNvNtCsluBEq34Hdgp_6glossa7codegen20generate_type_tokens
FNDA:11,_RNvNtCsluBEq34Hdgp_6glossa7codegen20generate_variant_err
FNDA:3,_RNvNtCsluBEq34Hdgp_6glossa7codegen21generate_variant_none
FNDA:24,_RNvNtCsluBEq34Hdgp_6glossa7codegen21generate_variant_some
FNDA:2,_RNvNtCsluBEq34Hdgp_6glossa7codegen22generate_function_call
FNDA:9,_RNvNtCsluBEq34Hdgp_6glossa7codegen23generate_collection_new
FNDA:2,_RNvNtCsluBEq34Hdgp_6glossa7codegen23generate_control_assert
FNDA:7,_RNvNtCsluBEq34Hdgp_6glossa7codegen23generate_control_unwrap
FNDA:364,_RNvNtCsluBEq34Hdgp_6glossa7codegen23generate_literal_number
FNDA:69,_RNvNtCsluBEq34Hdgp_6glossa7codegen23generate_literal_string
FNDA:0,_RNvNtCsluBEq34Hdgp_6glossa7codegen23generate_statement_code
FNDA:12,_RNvNtCsluBEq34Hdgp_6glossa7codegen24generate_literal_boolean
FNDA:3,_RNvNtCsluBEq34Hdgp_6glossa7codegen24generate_property_access
FNDA:46,_RNvNtCsluBEq34Hdgp_6glossa7codegen25generate_collection_array
FNDA:6,_RNvNtCsluBEq34Hdgp_6glossa7codegen25generate_collection_index
FNDA:1,_RNvNtCsluBEq34Hdgp_6glossa7codegen25generate_memoized_closure
FNDA:17,_RNvNtCsluBEq34Hdgp_6glossa7codegen25generate_statement_return
FNDA:5,_RNvNtCsluBEq34Hdgp_6glossa7codegen26generate_control_assert_eq
FNDA:183,_RNvNtCsluBEq34Hdgp_6glossa7codegen26generate_statement_binding
FNDA:0,_RNvNtCsluBEq34Hdgp_6glossa7codegen26generate_trait_method_call
FNDA:27,_RNvNtCsluBEq34Hdgp_6glossa7codegen27generate_trait_method_parts
FNDA:4,_RNvNtCsluBEq34Hdgp_6glossa7codegen29generate_statement_assignment
FNDA:38,_RNvNtCsluBEq34Hdgp_6glossa7codegen29generate_statement_expression
FNDA:582,_RNvXNtCsluBEq34Hdgp_6glossa7codegenNtB2_9SanitizerNtNtCs3XFJfFEDSOQ_4core3fmt7Display3fmt
FNDA:582,_RINvNtCsluBEq34Hdgp_6glossa7codegen17transliterate_fmtNtNtCs3XFJfFEDSOQ_4core3fmt9FormatterEB4_
FNDA:255,_RINvNtCsluBEq34Hdgp_6glossa7codegen17transliterate_fmtNtNtCsgag4BwXrjBQ_5alloc6string6StringEB4_
FNDA:255,_RNCNvNtCsluBEq34Hdgp_6glossa7codegen13transliterate0B5_
FNDA:5,_RNCNvNtCsluBEq34Hdgp_6glossa7codegen14generate_match0B5_
FNDA:12,_RNCNvNtCsluBEq34Hdgp_6glossa7codegen15generate_fn_def0B5_
FNDA:36,_RNCNvNtCsluBEq34Hdgp_6glossa7codegen16generate_closure0B5_
FNDA:15,_RNCNvNtCsluBEq34Hdgp_6glossa7codegen18generate_trait_def0B5_
FNDA:27,_RNCNvNtCsluBEq34Hdgp_6glossa7codegen19generate_struct_def0B5_
FNDA:16,_RNCNvNtCsluBEq34Hdgp_6glossa7codegen19generate_struct_lit0B5_
FNDA:12,_RNCNvNtCsluBEq34Hdgp_6glossa7codegen19generate_trait_impl0B5_
FNDA:27,_RNCNvNtCsluBEq34Hdgp_6glossa7codegen27generate_trait_method_parts0B5_
FNDA:34,_RNCNvNtCsluBEq34Hdgp_6glossa7codegen29generate_statement_expression0B5_
FNDA:4,_RNvNtNtCs4cnvRHYBibt_6glossa7codegen5tests7compile
FNDA:1,_RNvNtNtCs4cnvRHYBibt_6glossa7codegen5testss_16test_basic_types
FNDA:1,_RNvNtNtCs4cnvRHYBibt_6glossa7codegen5testss_16test_struct_type
FNDA:1,_RNvNtNtCs4cnvRHYBibt_6glossa7codegen5testss_18test_transliterate
FNDA:1,_RNvNtNtCs4cnvRHYBibt_6glossa7codegen5testss_19test_generate_hello
FNDA:1,_RNvNtNtCs4cnvRHYBibt_6glossa7codegen5testss_20test_container_types
FNDA:1,_RNvNtNtCs4cnvRHYBibt_6glossa7codegen5testss_20test_generate_number
FNDA:1,_RNvNtNtCs4cnvRHYBibt_6glossa7codegen5testss_21test_generate_binding
FNDA:1,_RNvNtNtCs4cnvRHYBibt_6glossa7codegen5testss_24test_sanitize_edge_cases
FNDA:1,_RNvNtNtCs4cnvRHYBibt_6glossa7codegen5testss_25test_transliterate_unique
FNDA:1,_RNvNtNtCs4cnvRHYBibt_6glossa7codegen5testss_26test_generate_full_program
FNDA:1,_RNvNtNtCs4cnvRHYBibt_6glossa7codegen5testss_26test_sanitize_greek_letter
FNDA:1,_RNvNtNtCs4cnvRHYBibt_6glossa7codegen5testss_28test_generate_statement_code
FNDA:1,_RNvNtNtCs4cnvRHYBibt_6glossa7codegen5testss_33test_sanitize_keywords_and_prefix
FNDA:1,_RNvNtNtCs4cnvRHYBibt_6glossa7codegen5testss_35test_generate_unreachable_operators
FNDA:1,_RNvNtNtCs4cnvRHYBibt_6glossa7codegen5testss_38test_transliterate_mixed_valid_invalid
FNDA:21,_RINvNtCs4cnvRHYBibt_6glossa7codegen17transliterate_fmtNtNtCs3XFJfFEDSOQ_4core3fmt9FormatterEB4_
FNDA:8,_RINvNtCs4cnvRHYBibt_6glossa7codegen17transliterate_fmtNtNtCsgag4BwXrjBQ_5alloc6string6StringEB4_
FNDA:8,_RNCNvNtCs4cnvRHYBibt_6glossa7codegen13transliterate0B5_
FNDA:0,_RNCNvNtCs4cnvRHYBibt_6glossa7codegen14generate_match0B5_
FNDA:0,_RNCNvNtCs4cnvRHYBibt_6glossa7codegen15generate_fn_def0B5_
FNDA:0,_RNCNvNtCs4cnvRHYBibt_6glossa7codegen16generate_closure0B5_
FNDA:0,_RNCNvNtCs4cnvRHYBibt_6glossa7codegen18generate_trait_def0B5_
FNDA:0,_RNCNvNtCs4cnvRHYBibt_6glossa7codegen19generate_struct_def0B5_
FNDA:0,_RNCNvNtCs4cnvRHYBibt_6glossa7codegen19generate_struct_lit0B5_
FNDA:0,_RNCNvNtCs4cnvRHYBibt_6glossa7codegen19generate_trait_impl0B5_
FNDA:2,_RNCNvNtCs4cnvRHYBibt_6glossa7codegen27generate_trait_method_parts0B5_
FNDA:1,_RNCNvNtCs4cnvRHYBibt_6glossa7codegen29generate_statement_expression0B5_
FNDA:0,_RNvNtCs4cnvRHYBibt_6glossa7codegen11generate_if
FNDA:0,_RNvNtCs4cnvRHYBibt_6glossa7codegen11is_std_type
FNDA:0,_RNvNtCs4cnvRHYBibt_6glossa7codegen12generate_for
FNDA:4,_RNvNtCs4cnvRHYBibt_6glossa7codegen12generate_let
FNDA:18,_RNvNtCs4cnvRHYBibt_6glossa7codegen12to_rust_type
FNDA:23,_RNvNtCs4cnvRHYBibt_6glossa7codegen13generate_expr
FNDA:11,_RNvNtCs4cnvRHYBibt_6glossa7codegen13generate_rust
FNDA:0,_RNvNtCs4cnvRHYBibt_6glossa7codegen13generate_test
FNDA:0,_RNvNtCs4cnvRHYBibt_6glossa7codegen13is_std_method
FNDA:9,_RNvNtCs4cnvRHYBibt_6glossa7codegen13sanitize_name
FNDA:9,_RNvNtCs4cnvRHYBibt_6glossa7codegen13transliterate
FNDA:0,_RNvNtCs4cnvRHYBibt_6glossa7codegen14generate_match
FNDA:11,_RNvNtCs4cnvRHYBibt_6glossa7codegen14generate_print
FNDA:0,_RNvNtCs4cnvRHYBibt_6glossa7codegen14generate_range
FNDA:0,_RNvNtCs4cnvRHYBibt_6glossa7codegen14generate_while
FNDA:10,_RNvNtCs4cnvRHYBibt_6glossa7codegen14sanitize_ident
FNDA:3,_RNvNtCs4cnvRHYBibt_6glossa7codegen15generate_bin_op
FNDA:0,_RNvNtCs4cnvRHYBibt_6glossa7codegen15generate_fn_def
FNDA:1,_RNvNtCs4cnvRHYBibt_6glossa7codegen16generate_closure
FNDA:0,_RNvNtCs4cnvRHYBibt_6glossa7codegen17generate_unary_op
FNDA:4,_RNvNtCs4cnvRHYBibt_6glossa7codegen17generate_variable
FNDA:2,_RNvNtCs4cnvRHYBibt_6glossa7codegen17is_self_parameter
FNDA:7,_RNvNtCs4cnvRHYBibt_6glossa7codegen18generate_rust_file
FNDA:17,_RNvNtCs4cnvRHYBibt_6glossa7codegen18generate_statement
FNDA:0,_RNvNtCs4cnvRHYBibt_6glossa7codegen18generate_trait_def
FNDA:1,_RNvNtCs4cnvRHYBibt_6glossa7codegen19generate_checked_op
FNDA:11,_RNvNtCs4cnvRHYBibt_6glossa7codegen19generate_panic_hook
FNDA:0,_RNvNtCs4cnvRHYBibt_6glossa7codegen19generate_statements
FNDA:1,_RNvNtCs4cnvRHYBibt_6glossa7codegen19generate_struct_def
FNDA:0,_RNvNtCs4cnvRHYBibt_6glossa7codegen19generate_struct_lit
FNDA:0,_RNvNtCs4cnvRHYBibt_6glossa7codegen19generate_trait_impl
FNDA:0,_RNvNtCs4cnvRHYBibt_6glossa7codegen19generate_variant_ok
FNDA:0,_RNvNtCs4cnvRHYBibt_6glossa7codegen20generate_control_try
FNDA:0,_RNvNtCs4cnvRHYBibt_6glossa7codegen20generate_method_call
FNDA:2,_RNvNtCs4cnvRHYBibt_6glossa7codegen20generate_type_tokens
FNDA:0,_RNvNtCs4cnvRHYBibt_6glossa7codegen20generate_variant_err
FNDA:0,_RNvNtCs4cnvRHYBibt_6glossa7codegen21generate_variant_none
FNDA:0,_RNvNtCs4cnvRHYBibt_6glossa7codegen21generate_variant_some
FNDA:0,_RNvNtCs4cnvRHYBibt_6glossa7codegen22generate_function_call
FNDA:0,_RNvNtCs4cnvRHYBibt_6glossa7codegen23generate_collection_new
FNDA:0,_RNvNtCs4cnvRHYBibt_6glossa7codegen23generate_control_assert
FNDA:0,_RNvNtCs4cnvRHYBibt_6glossa7codegen23generate_control_unwrap
FNDA:12,_RNvNtCs4cnvRHYBibt_6glossa7codegen23generate_literal_number
FNDA:7,_RNvNtCs4cnvRHYBibt_6glossa7codegen23generate_literal_string
FNDA:3,_RNvNtCs4cnvRHYBibt_6glossa7codegen23generate_statement_code
FNDA:0,_RNvNtCs4cnvRHYBibt_6glossa7codegen24generate_literal_boolean
FNDA:0,_RNvNtCs4cnvRHYBibt_6glossa7codegen24generate_property_access
FNDA:0,_RNvNtCs4cnvRHYBibt_6glossa7codegen25generate_collection_array
FNDA:0,_RNvNtCs4cnvRHYBibt_6glossa7codegen25generate_collection_index
FNDA:1,_RNvNtCs4cnvRHYBibt_6glossa7codegen25generate_memoized_closure
FNDA:0,_RNvNtCs4cnvRHYBibt_6glossa7codegen25generate_statement_return
FNDA:0,_RNvNtCs4cnvRHYBibt_6glossa7codegen26generate_control_assert_eq
FNDA:4,_RNvNtCs4cnvRHYBibt_6glossa7codegen26generate_statement_binding
FNDA:0,_RNvNtCs4cnvRHYBibt_6glossa7codegen26generate_trait_method_call
FNDA:1,_RNvNtCs4cnvRHYBibt_6glossa7codegen27generate_trait_method_parts
FNDA:0,_RNvNtCs4cnvRHYBibt_6glossa7codegen29generate_statement_assignment
FNDA:1,_RNvNtCs4cnvRHYBibt_6glossa7codegen29generate_statement_expression
FNDA:21,_RNvXNtCs4cnvRHYBibt_6glossa7codegenNtB2_9SanitizerNtNtCs3XFJfFEDSOQ_4core3fmt7Display3fmt
FNDA:2,_RNCNvNtNtNtCs4cnvRHYBibt_6glossa7codegen5tests14refactor_testss_32test_generate_trait_parts_manual0B9_
FNDA:1,_RNvNtNtNtCs4cnvRHYBibt_6glossa7codegen5tests14refactor_testss_30test_generate_memoized_closure
FNDA:1,_RNvNtNtNtCs4cnvRHYBibt_6glossa7codegen5tests14refactor_testss_32test_generate_checked_arithmetic
FNDA:1,_RNvNtNtNtCs4cnvRHYBibt_6glossa7codegen5tests14refactor_testss_32test_generate_trait_parts_manual
FNF:89
FNH:88
DA:110,512
DA:111,512
DA:112,512
DA:113,512
DA:114,512
DA:115,512
DA:116,512
DA:117,512
DA:119,512
DA:128,603
DA:129,603
DA:130,80
DA:132,523
DA:135,603
DA:137,603
DA:138,3
DA:139,600
DA:141,603
DA:142,603
DA:174,11
DA:176,11
DA:177,11
DA:178,11
DA:179,11
DA:180,11
DA:181,11
DA:207,265
DA:208,265
DA:209,2
DA:210,263
DA:215,263
DA:217,263
DA:219,263
DA:220,10
DA:221,253
DA:224,263
DA:226,263
DA:227,265
DA:231,866
DA:232,5873
DA:236,5873
DA:237,1440
DA:240,4433
DA:243,866
DA:244,866
DA:276,27
DA:277,27
DA:278,8
DA:279,5
DA:280,1
DA:281,1
DA:282,1
DA:283,1
DA:284,1
DA:286,4
DA:287,2
DA:288,2
DA:290,1
DA:291,2
DA:292,2
DA:293,2
DA:294,2
DA:295,2
DA:297,0
DA:298,1
DA:300,27
DA:306,76
DA:307,76
DA:308,54
DA:309,7
DA:310,2
DA:311,2
DA:312,2
DA:313,2
DA:315,1
DA:316,1
DA:317,1
DA:319,2
DA:320,2
DA:321,2
DA:322,2
DA:324,2
DA:325,2
DA:326,2
DA:328,2
DA:329,2
DA:330,2
DA:331,2
DA:333,1
DA:334,1
DA:336,1
DA:337,1
DA:338,1
DA:339,1
DA:340,1
DA:341,1
DA:342,1
DA:344,1
DA:347,1
DA:348,1
DA:350,76
DA:357,233
DA:359,233
DA:360,233
DA:361,233
DA:362,233
DA:363,233
DA:364,233
DA:366,658
DA:367,425
DA:368,14
DA:369,27
DA:371,12
DA:373,15
DA:374,8
DA:375,349
DA:383,233
DA:385,233
DA:387,233
DA:407,233
DA:408,233
DA:410,232
DA:411,232
DA:440,232
DA:443,14
DA:444,14
DA:447,14
DA:448,14
DA:451,14
DA:454,3
DA:455,3
DA:456,3
DA:458,63
DA:459,63
DA:460,63
DA:462,502
DA:463,502
DA:465,187
DA:466,187
DA:467,187
DA:468,187
DA:469,4
DA:470,158
DA:471,39
DA:473,7
DA:474,7
DA:475,7
DA:476,7
DA:477,2
DA:479,7
DA:480,7
DA:481,7
DA:482,7
DA:483,2
DA:484,1
DA:485,1
DA:486,17
DA:488,16
DA:489,16
DA:490,16
DA:491,16
DA:492,16
DA:493,27
DA:494,14
DA:496,12
DA:497,12
DA:498,12
DA:499,12
DA:500,8
DA:502,502
DA:504,187
DA:506,187
DA:507,187
DA:508,187
DA:510,4
DA:511,4
DA:512,4
DA:513,4
DA:514,4
DA:516,39
DA:517,39
DA:518,39
DA:519,39
DA:520,35
DA:521,35
DA:522,35
DA:523,39
DA:524,39
DA:525,39
DA:527,17
DA:528,17
DA:529,17
DA:530,17
DA:531,17
DA:533,0
DA:535,17
DA:537,187
DA:538,187
DA:539,187
DA:541,187
DA:542,46
DA:544,141
DA:546,187
DA:548,158
DA:549,158
DA:550,18
DA:553,140
DA:554,140
DA:555,140
DA:557,140
DA:558,140
DA:560,158
DA:562,7
DA:563,7
DA:564,7
DA:565,7
DA:566,7
DA:567,7
DA:568,7
DA:570,7
DA:571,3
DA:572,3
DA:573,3
DA:582,4
DA:589,7
DA:591,2
DA:592,2
DA:593,2
DA:594,2
DA:599,2
DA:601,7
DA:602,7
DA:603,7
DA:604,7
DA:605,7
DA:606,7
DA:607,7
DA:608,7
DA:609,7
DA:614,7
DA:616,2
DA:617,2
DA:618,2
DA:619,2
DA:620,2
DA:621,2
DA:622,2
DA:623,5
DA:625,5
DA:627,2
DA:629,3
DA:631,5
DA:632,5
DA:633,5
DA:634,2
DA:635,2
DA:640,2
DA:642,16
DA:643,16
DA:644,16
DA:645,16
DA:646,16
DA:647,16
DA:648,16
DA:649,16
DA:652,16
DA:653,16
DA:654,16
DA:655,12
DA:656,12
DA:657,4
DA:658,4
DA:660,8
DA:662,12
DA:663,16
DA:666,16
DA:667,15
DA:668,15
DA:674,1
DA:680,16
DA:682,27
DA:684,27
DA:685,27
DA:686,27
DA:687,27
DA:688,27
DA:689,27
DA:690,27
DA:694,27
DA:695,27
DA:696,27
DA:697,27
DA:698,27
DA:699,27
DA:700,27
DA:701,27
DA:703,27
DA:709,27
DA:717,28
DA:718,28
DA:720,28
DA:721,28
DA:722,28
DA:723,28
DA:724,29
DA:725,29
DA:726,28
DA:728,1
DA:729,1
DA:730,1
DA:732,29
DA:733,28
DA:735,28
DA:737,28
DA:738,28
DA:739,28
DA:740,28
DA:741,28
DA:742,28
DA:744,14
DA:746,14
DA:747,14
DA:748,14
DA:749,14
DA:750,14
DA:751,14
DA:752,14
DA:756,14
DA:757,14
DA:758,15
DA:759,15
DA:760,15
DA:761,15
DA:763,15
DA:764,2
DA:765,2
DA:766,2
DA:772,0
DA:776,13
DA:777,1
DA:778,1
DA:784,12
DA:788,15
DA:789,14
DA:791,14
DA:796,14
DA:798,12
DA:799,12
DA:800,12
DA:801,12
DA:802,12
DA:804,12
DA:805,12
DA:806,12
DA:807,12
DA:808,12
DA:809,12
DA:810,12
DA:812,12
DA:813,12
DA:814,12
DA:815,12
DA:816,12
DA:817,12
DA:818,12
DA:822,12
DA:823,12
DA:824,12
DA:825,12
DA:826,12
DA:827,12
DA:830,12
DA:831,12
DA:833,0
DA:836,12
DA:837,1
DA:843,11
DA:849,12
DA:850,12
DA:852,12
DA:857,12
DA:859,8
DA:862,8
DA:863,125
DA:864,125
DA:865,114
DA:866,114
DA:867,114
DA:868,11
DA:869,11
DA:870,11
DA:873,8
DA:876,8
DA:878,8
DA:884,8
DA:886,997
DA:887,997
DA:888,76
DA:890,376
DA:892,12
DA:894,46
DA:896,24
DA:898,3
DA:900,12
DA:902,11
DA:904,11
DA:906,7
DA:908,6
DA:910,170
DA:912,3
DA:913,3
DA:917,97
DA:918,97
DA:919,97
DA:920,97
DA:923,0
DA:924,0
DA:925,0
DA:927,0
DA:929,0
DA:930,2
DA:932,72
DA:934,5
DA:937,4
DA:938,4
DA:939,4
DA:940,4
DA:943,12
DA:944,12
DA:945,12
DA:946,12
DA:949,32
DA:950,32
DA:951,32
DA:952,32
DA:954,9
DA:955,9
DA:958,2
DA:960,5
DA:962,997
DA:964,75
DA:965,75
DA:966,75
DA:969,75
DA:971,75
DA:972,56
DA:974,7
DA:975,7
DA:976,7
DA:977,7
DA:978,7
DA:982,1
DA:983,1
DA:984,1
DA:985,1
DA:986,1
DA:990,6
DA:991,6
DA:992,6
DA:993,6
DA:994,6
DA:998,2
DA:999,2
DA:1000,2
DA:1001,2
DA:1002,2
DA:1006,1
DA:1007,1
DA:1008,1
DA:1009,1
DA:1010,1
DA:1013,39
DA:1015,19
DA:1017,58
DA:1018,1
DA:1019,1
DA:1020,1
DA:1021,1
DA:1022,1
DA:1023,6
DA:1024,2
DA:1025,5
DA:1026,1
DA:1027,34
DA:1028,1
DA:1029,3
DA:1030,1
DA:1032,75
DA:1034,17
DA:1035,17
DA:1036,17
DA:1037,17
DA:1038,17
DA:1039,17
DA:1040,17
DA:1041,17
DA:1042,17
DA:1044,12
DA:1045,12
DA:1046,12
DA:1047,12
DA:1048,12
DA:1050,12
DA:1051,12
DA:1052,12
DA:1053,12
DA:1054,12
DA:1055,12
DA:1056,12
DA:1060,12
DA:1061,12
DA:1062,12
DA:1063,16
DA:1064,16
DA:1065,16
DA:1066,16
DA:1067,16
DA:1068,12
DA:1070,12
DA:1071,12
DA:1073,2
DA:1074,2
DA:1075,2
DA:1076,2
DA:1077,2
DA:1080,2
DA:1081,1
DA:1082,1
DA:1085,1
DA:1098,1
DA:1100,33
DA:1101,33
DA:1102,33
DA:1103,33
DA:1104,33
DA:1105,33
DA:1106,36
DA:1108,33
DA:1110,0
DA:1113,31
DA:1115,2
DA:1117,33
DA:1120,29
DA:1121,29
DA:1122,1
DA:1123,28
DA:1124,28
DA:1126,28
DA:1127,0
DA:1128,0
DA:1129,0
DA:1130,29
DA:1133,97
DA:1134,94
DA:1135,97
DA:1136,97
DA:1137,94
DA:1138,91
DA:1139,88
DA:1140,88
DA:1141,87
DA:1142,87
DA:1143,87
DA:1144,87
DA:1145,87
DA:1146,87
DA:1147,79
DA:1148,76
DA:1149,74
DA:1150,74
DA:1151,74
DA:1152,45
DA:1153,40
DA:1154,32
DA:1155,21
DA:1156,14
DA:1157,13
DA:1158,9
DA:1159,3
DA:1160,3
DA:1161,3
DA:1162,3
DA:1164,97
DA:1167,94
DA:1168,0
DA:1169,94
DA:1181,94
DA:1187,76
DA:1188,76
DA:1189,76
DA:1191,376
DA:1192,376
DA:1193,376
DA:1195,12
DA:1196,12
DA:1197,12
DA:1199,170
DA:1200,170
DA:1201,170
DA:1202,170
DA:1204,3
DA:1205,3
DA:1206,3
DA:1207,3
DA:1208,3
DA:1210,5
DA:1211,5
DA:1213,0
DA:1214,0
DA:1217,2
DA:1218,2
DA:1219,1
DA:1221,1
DA:1225,3
DA:1226,3
DA:1229,5
DA:1231,4
DA:1232,4
DA:1233,4
DA:1234,4
DA:1235,1
DA:1237,3
DA:1239,4
DA:1245,46
DA:1246,46
DA:1247,46
DA:1248,46
DA:1250,9
DA:1252,9
DA:1253,9
DA:1254,9
DA:1256,6
DA:1257,6
DA:1258,6
DA:1260,6
DA:1270,6
DA:1272,97
DA:1273,97
DA:1274,97
DA:1275,97
DA:1276,97
DA:1277,97
DA:1280,97
DA:1282,94
DA:1285,3
DA:1288,97
DA:1289,97
DA:1290,97
DA:1292,0
DA:1293,0
DA:1294,0
DA:1295,0
DA:1296,0
DA:1298,0
DA:1299,0
DA:1300,0
DA:1301,0
DA:1302,0
DA:1304,2
DA:1305,2
DA:1306,2
DA:1307,2
DA:1308,2
DA:1314,24
DA:1315,24
DA:1316,24
DA:1317,24
DA:1319,3
DA:1320,3
DA:1321,3
DA:1323,12
DA:1324,12
DA:1325,12
DA:1326,12
DA:1328,11
DA:1329,11
DA:1330,11
DA:1331,11
DA:1333,11
DA:1334,11
DA:1335,11
DA:1336,11
DA:1338,7
DA:1339,7
DA:1340,7
DA:1341,7
DA:1343,2
DA:1344,2
DA:1345,2
DA:1346,2
DA:1348,5
DA:1349,5
DA:1350,5
DA:1351,5
DA:1352,5
DA:1364,1
DA:1365,1
DA:1366,1
DA:1367,1
DA:1368,1
DA:1371,1
DA:1377,1
DA:1378,1
DA:1381,1
DA:1382,1
DA:1383,1
DA:1386,1
DA:1389,1
DA:1391,1
DA:1392,1
DA:1394,1
DA:1395,1
DA:1397,1
DA:1399,0
DA:1401,1
DA:1402,1
DA:1403,1
DA:1406,1
DA:1411,1
DA:1412,1
DA:1413,1
DA:1414,1
DA:1417,1
DA:1420,1
DA:1421,1
DA:1425,1
DA:1426,1
DA:1427,1
DA:1430,1
DA:1432,1
DA:1433,1
DA:1437,1
DA:1440,1
DA:1443,1
DA:1444,1
DA:1449,1
DA:1450,1
DA:1451,1
DA:1452,1
DA:1453,1
DA:1454,1
DA:1455,1
DA:1458,1
DA:1459,1
DA:1460,1
DA:1463,1
DA:1464,1
DA:1467,1
DA:1468,1
DA:1469,1
DA:1470,1
DA:1471,1
DA:1474,1
DA:1475,1
DA:1478,1
DA:1479,1
DA:1480,1
DA:1481,1
DA:1482,1
DA:1485,1
DA:1488,1
DA:1490,1
DA:1491,1
DA:1492,1
DA:1493,1
DA:1494,1
DA:1497,1
DA:1498,1
DA:1501,1
DA:1505,4
DA:1506,4
DA:1507,4
DA:1508,4
DA:1509,4
DA:1512,1
DA:1513,1
DA:1515,1
DA:1516,1
DA:1517,1
DA:1520,1
DA:1521,1
DA:1523,1
DA:1524,1
DA:1525,1
DA:1528,1
DA:1529,1
DA:1530,1
DA:1531,1
DA:1532,1
DA:1535,1
DA:1536,1
DA:1538,1
DA:1539,1
DA:1540,0
DA:1543,1
DA:1544,1
DA:1547,1
DA:1548,1
DA:1549,1
DA:1550,1
DA:1551,1
DA:1552,1
DA:1553,1
DA:1554,1
DA:1557,1
DA:1559,1
DA:1560,1
DA:1561,1
DA:1562,1
DA:1563,1
DA:1564,1
DA:1565,1
DA:1566,1
DA:1569,1
DA:1570,1
DA:1571,1
DA:1572,1
DA:1575,1
DA:1576,1
DA:1577,1
DA:1578,1
DA:1579,1
DA:1587,1
DA:1589,1
DA:1590,1
DA:1591,1
DA:1592,1
DA:1594,1
DA:1595,1
DA:1596,1
DA:1599,1
DA:1600,1
DA:1601,1
DA:1602,1
DA:1603,1
DA:1604,1
DA:1607,1
DA:1609,1
DA:1610,1
DA:1611,1
DA:1612,1
DA:1613,1
DA:1614,1
DA:1615,1
DA:1616,1
DA:1617,1
DA:1619,1
DA:1621,1
DA:1624,2
DA:1625,1
DA:1626,1
DA:1627,1
DA:1628,1
DA:1631,1
DA:1632,1
DA:1633,1
DA:1636,1
DA:1637,1
DA:1638,1
DA:1639,1
DA:1640,1
DA:1641,1
DA:1642,1
DA:1643,1
DA:1644,1
DA:1646,1
DA:1647,1
DA:1648,1
DA:1650,1
DA:1651,1
DA:1652,1
BRF:0
BRH:0
LF:882
LH:851
end_of_record
SF:/app/src/errors/mod.rs
FN:143,_RINvMNtCsluBEq34Hdgp_6glossa6errorsNtB3_11GlossaError17parse_with_sourceppEB5_
FN:175,_RINvMNtCsluBEq34Hdgp_6glossa6errorsNtB3_11GlossaError7codegenpEB5_
FN:168,_RINvMNtCsluBEq34Hdgp_6glossa6errorsNtB3_11GlossaError9agreementpEB5_
FN:134,_RINvMNtCsluBEq34Hdgp_6glossa6errorsNtB3_11GlossaError5parseNtNtCsgag4BwXrjBQ_5alloc6string6StringEB5_
FN:156,_RINvMNtCsluBEq34Hdgp_6glossa6errorsNtB3_11GlossaError8semanticNtNtCsgag4BwXrjBQ_5alloc6string6StringEB5_
FN:156,_RINvMNtCsluBEq34Hdgp_6glossa6errorsNtB3_11GlossaError8semanticReEB5_
FN:163,_RINvMNtCsluBEq34Hdgp_6glossa6errorsNtB3_11GlossaError9undefinedNtNtCsgag4BwXrjBQ_5alloc6string6StringEB5_
FN:182,_RNvMNtCsluBEq34Hdgp_6glossa6errorsNtB2_11GlossaError14category_greek
FN:143,_RINvMNtCs4cnvRHYBibt_6glossa6errorsNtB3_11GlossaError17parse_with_sourceppEB5_
FN:175,_RINvMNtCs4cnvRHYBibt_6glossa6errorsNtB3_11GlossaError7codegenpEB5_
FN:168,_RINvMNtCs4cnvRHYBibt_6glossa6errorsNtB3_11GlossaError9agreementpEB5_
FN:229,_RNvNtNtCs4cnvRHYBibt_6glossa6errors5testss_16test_parse_error
FN:242,_RNvNtNtCs4cnvRHYBibt_6glossa6errors5testss_19test_category_greek
FN:235,_RNvNtNtCs4cnvRHYBibt_6glossa6errors5testss_20test_undefined_error
FN:182,_RNvMNtCs4cnvRHYBibt_6glossa6errorsNtB2_11GlossaError14category_greek
FN:134,_RINvMNtCs4cnvRHYBibt_6glossa6errorsNtB3_11GlossaError5parseNtNtCsgag4BwXrjBQ_5alloc6string6StringEB5_
FN:134,_RINvMNtCs4cnvRHYBibt_6glossa6errorsNtB3_11GlossaError5parseReEB5_
FN:156,_RINvMNtCs4cnvRHYBibt_6glossa6errorsNtB3_11GlossaError8semanticNtNtCsgag4BwXrjBQ_5alloc6string6StringEB5_
FN:156,_RINvMNtCs4cnvRHYBibt_6glossa6errorsNtB3_11GlossaError8semanticReEB5_
FN:163,_RINvMNtCs4cnvRHYBibt_6glossa6errorsNtB3_11GlossaError9undefinedNtNtCsgag4BwXrjBQ_5alloc6string6StringEB5_
FN:163,_RINvMNtCs4cnvRHYBibt_6glossa6errorsNtB3_11GlossaError9undefinedReEB5_
FN:134,_RINvMNtCsluBEq34Hdgp_6glossa6errorsNtB3_11GlossaError5parseReECs1R9NhYCXWHW_14razor_coverage
FN:175,_RINvMNtCsluBEq34Hdgp_6glossa6errorsNtB3_11GlossaError7codegenReECs1R9NhYCXWHW_14razor_coverage
FN:168,_RINvMNtCsluBEq34Hdgp_6glossa6errorsNtB3_11GlossaError9agreementReECs1R9NhYCXWHW_14razor_coverage
FN:163,_RINvMNtCsluBEq34Hdgp_6glossa6errorsNtB3_11GlossaError9undefinedReECs1R9NhYCXWHW_14razor_coverage
FNDA:0,_RINvMNtCsluBEq34Hdgp_6glossa6errorsNtB3_11GlossaError17parse_with_sourceppEB5_
FNDA:0,_RINvMNtCsluBEq34Hdgp_6glossa6errorsNtB3_11GlossaError7codegenpEB5_
FNDA:0,_RINvMNtCsluBEq34Hdgp_6glossa6errorsNtB3_11GlossaError9agreementpEB5_
FNDA:1785,_RINvMNtCsluBEq34Hdgp_6glossa6errorsNtB3_11GlossaError5parseNtNtCsgag4BwXrjBQ_5alloc6string6StringEB5_
FNDA:11,_RINvMNtCsluBEq34Hdgp_6glossa6errorsNtB3_11GlossaError8semanticNtNtCsgag4BwXrjBQ_5alloc6string6StringEB5_
FNDA:187,_RINvMNtCsluBEq34Hdgp_6glossa6errorsNtB3_11GlossaError8semanticReEB5_
FNDA:1,_RINvMNtCsluBEq34Hdgp_6glossa6errorsNtB3_11GlossaError9undefinedNtNtCsgag4BwXrjBQ_5alloc6string6StringEB5_
FNDA:7,_RNvMNtCsluBEq34Hdgp_6glossa6errorsNtB2_11GlossaError14category_greek
FNDA:0,_RINvMNtCs4cnvRHYBibt_6glossa6errorsNtB3_11GlossaError17parse_with_sourceppEB5_
FNDA:0,_RINvMNtCs4cnvRHYBibt_6glossa6errorsNtB3_11GlossaError7codegenpEB5_
FNDA:0,_RINvMNtCs4cnvRHYBibt_6glossa6errorsNtB3_11GlossaError9agreementpEB5_
FNDA:1,_RNvNtNtCs4cnvRHYBibt_6glossa6errors5testss_16test_parse_error
FNDA:1,_RNvNtNtCs4cnvRHYBibt_6glossa6errors5testss_19test_category_greek
FNDA:1,_RNvNtNtCs4cnvRHYBibt_6glossa6errors5testss_20test_undefined_error
FNDA:1,_RNvMNtCs4cnvRHYBibt_6glossa6errorsNtB2_11GlossaError14category_greek
FNDA:5,_RINvMNtCs4cnvRHYBibt_6glossa6errorsNtB3_11GlossaError5parseNtNtCsgag4BwXrjBQ_5alloc6string6StringEB5_
FNDA:1,_RINvMNtCs4cnvRHYBibt_6glossa6errorsNtB3_11GlossaError5parseReEB5_
FNDA:6,_RINvMNtCs4cnvRHYBibt_6glossa6errorsNtB3_11GlossaError8semanticNtNtCsgag4BwXrjBQ_5alloc6string6StringEB5_
FNDA:47,_RINvMNtCs4cnvRHYBibt_6glossa6errorsNtB3_11GlossaError8semanticReEB5_
FNDA:0,_RINvMNtCs4cnvRHYBibt_6glossa6errorsNtB3_11GlossaError9undefinedNtNtCsgag4BwXrjBQ_5alloc6string6StringEB5_
FNDA:1,_RINvMNtCs4cnvRHYBibt_6glossa6errorsNtB3_11GlossaError9undefinedReEB5_
FNDA:1,_RINvMNtCsluBEq34Hdgp_6glossa6errorsNtB3_11GlossaError5parseReECs1R9NhYCXWHW_14razor_coverage
FNDA:1,_RINvMNtCsluBEq34Hdgp_6glossa6errorsNtB3_11GlossaError7codegenReECs1R9NhYCXWHW_14razor_coverage
FNDA:1,_RINvMNtCsluBEq34Hdgp_6glossa6errorsNtB3_11GlossaError9agreementReECs1R9NhYCXWHW_14razor_coverage
FNDA:1,_RINvMNtCsluBEq34Hdgp_6glossa6errorsNtB3_11GlossaError9undefinedReECs1R9NhYCXWHW_14razor_coverage
FNF:10
FNH:9
DA:134,1792
DA:135,1792
DA:136,1792
DA:137,1792
DA:138,1792
DA:139,1792
DA:140,1792
DA:143,0
DA:144,0
DA:145,0
DA:146,0
DA:147,0
DA:148,0
DA:149,0
DA:150,0
DA:151,0
DA:152,0
DA:153,0
DA:156,251
DA:157,251
DA:158,251
DA:159,251
DA:160,251
DA:163,3
DA:164,3
DA:165,3
DA:168,1
DA:169,1
DA:170,1
DA:171,1
DA:172,1
DA:175,1
DA:176,1
DA:177,1
DA:178,1
DA:179,1
DA:182,8
DA:183,8
DA:184,1
DA:185,2
DA:186,1
DA:187,1
DA:188,1
DA:189,1
DA:190,1
DA:192,8
DA:229,1
DA:230,1
DA:231,1
DA:232,1
DA:235,1
DA:236,1
DA:237,1
DA:238,1
DA:239,1
DA:242,1
DA:243,1
DA:244,1
DA:245,1
BRF:0
BRH:0
LF:59
LH:48
end_of_record
SF:/app/src/main.rs
FN:13,_RNvCs3zEMbssav1o_6glossa4main
FN:13,_RNvCsaiTyBLPZn7k_6glossa4main
FN:84,_RNvNtCsaiTyBLPZn7k_6glossa5testss_13test_cli_help
FNDA:0,_RNvCs3zEMbssav1o_6glossa4main
FNDA:0,_RNvCsaiTyBLPZn7k_6glossa4main
FNDA:1,_RNvNtCsaiTyBLPZn7k_6glossa5testss_13test_cli_help
FNF:2
FNH:1
DA:13,0
DA:14,0
DA:17,0
DA:18,0
DA:19,0
DA:21,0
DA:22,0
DA:23,0
DA:28,0
DA:31,0
DA:32,0
DA:35,0
DA:36,0
DA:39,0
DA:40,0
DA:43,0
DA:44,0
DA:47,0
DA:48,0
DA:51,0
DA:52,0
DA:56,0
DA:57,0
DA:61,0
DA:62,0
DA:66,0
DA:67,0
DA:71,0
DA:75,0
DA:76,0
DA:84,1
DA:86,1
DA:87,1
DA:88,1
BRF:0
BRH:0
LF:34
LH:4
end_of_record
SF:/app/src/morphology/conjugation.rs
FN:458,_RINvNtNtCsluBEq34Hdgp_6glossa10morphology11conjugation22match_verb_endings_allNCNvB2_21analyze_verb_all_into0EB6_
FN:466,_RNCINvNtNtCsluBEq34Hdgp_6glossa10morphology11conjugation22match_verb_endings_allNCNvB4_21analyze_verb_all_into0Es_0B8_
FN:445,_RNCNvNtNtCsluBEq34Hdgp_6glossa10morphology11conjugation18match_verb_endingss_0B7_
FN:511,_RNCNvNtNtCsluBEq34Hdgp_6glossa10morphology11conjugation21analyze_verb_all_into0B7_
FN:587,_RNCNvNtNtCsluBEq34Hdgp_6glossa10morphology11conjugation21analyze_verb_all_intos_0B7_
FN:681,_RNvNtNtCsluBEq34Hdgp_6glossa10morphology11conjugation10infinitive
FN:332,_RNvNtNtCsluBEq34Hdgp_6glossa10morphology11conjugation12analyze_verb
FN:152,_RNvNtNtCsluBEq34Hdgp_6glossa10morphology11conjugation13strip_augment
FN:479,_RNvNtNtCsluBEq34Hdgp_6glossa10morphology11conjugation16analyze_verb_all
FN:436,_RNvNtNtCsluBEq34Hdgp_6glossa10morphology11conjugation18match_verb_endings
FN:488,_RNvNtNtCsluBEq34Hdgp_6glossa10morphology11conjugation21analyze_verb_all_into
FN:638,_RNvNtNtCsluBEq34Hdgp_6glossa10morphology11conjugation9conjugate
FN:458,_RINvNtNtCs4cnvRHYBibt_6glossa10morphology11conjugation22match_verb_endings_allNCNvB2_21analyze_verb_all_into0EB6_
FN:466,_RNCINvNtNtCs4cnvRHYBibt_6glossa10morphology11conjugation22match_verb_endings_allNCNvB4_21analyze_verb_all_into0Es_0B8_
FN:445,_RNCNvNtNtCs4cnvRHYBibt_6glossa10morphology11conjugation18match_verb_endingss_0B7_
FN:511,_RNCNvNtNtCs4cnvRHYBibt_6glossa10morphology11conjugation21analyze_verb_all_into0B7_
FN:587,_RNCNvNtNtCs4cnvRHYBibt_6glossa10morphology11conjugation21analyze_verb_all_intos_0B7_
FN:681,_RNvNtNtCs4cnvRHYBibt_6glossa10morphology11conjugation10infinitive
FN:332,_RNvNtNtCs4cnvRHYBibt_6glossa10morphology11conjugation12analyze_verb
FN:152,_RNvNtNtCs4cnvRHYBibt_6glossa10morphology11conjugation13strip_augment
FN:479,_RNvNtNtCs4cnvRHYBibt_6glossa10morphology11conjugation16analyze_verb_all
FN:436,_RNvNtNtCs4cnvRHYBibt_6glossa10morphology11conjugation18match_verb_endings
FN:488,_RNvNtNtCs4cnvRHYBibt_6glossa10morphology11conjugation21analyze_verb_all_into
FN:638,_RNvNtNtCs4cnvRHYBibt_6glossa10morphology11conjugation9conjugate
FN:876,_RNCNvNtNtNtCs4cnvRHYBibt_6glossa10morphology11conjugation5testss_35test_analyze_verb_all_discrepancies0B9_
FN:901,_RNCNvNtNtNtCs4cnvRHYBibt_6glossa10morphology11conjugation5testss_35test_analyze_verb_all_discrepanciess0_0B9_
FN:895,_RNCNvNtNtNtCs4cnvRHYBibt_6glossa10morphology11conjugation5testss_35test_analyze_verb_all_discrepanciess_0B9_
FN:777,_RNvNtNtNtCs4cnvRHYBibt_6glossa10morphology11conjugation5testss_14test_conjugate
FN:760,_RNvNtNtNtCs4cnvRHYBibt_6glossa10morphology11conjugation5testss_15test_infinitive
FN:716,_RNvNtNtNtCs4cnvRHYBibt_6glossa10morphology11conjugation5testss_18test_aorist_active
FN:803,_RNvNtNtNtCs4cnvRHYBibt_6glossa10morphology11conjugation5testss_20test_infinitive_form
FN:834,_RNvNtNtNtCs4cnvRHYBibt_6glossa10morphology11conjugation5testss_21test_constants_sorted
FN:767,_RNvNtNtNtCs4cnvRHYBibt_6glossa10morphology11conjugation5testss_21test_eimi_subjunctive
FN:726,_RNvNtNtNtCs4cnvRHYBibt_6glossa10morphology11conjugation5testss_22test_augment_stripping
FN:739,_RNvNtNtNtCs4cnvRHYBibt_6glossa10morphology11conjugation5testss_27test_strip_augment_function
FN:707,_RNvNtNtNtCs4cnvRHYBibt_6glossa10morphology11conjugation5testss_30test_present_active_imperative
FN:694,_RNvNtNtNtCs4cnvRHYBibt_6glossa10morphology11conjugation5testss_30test_present_active_indicative
FN:809,_RNvNtNtNtCs4cnvRHYBibt_6glossa10morphology11conjugation5testss_32test_analyze_verb_coverage_forms
FN:870,_RNvNtNtNtCs4cnvRHYBibt_6glossa10morphology11conjugation5testss_35test_analyze_verb_all_discrepancies
FNDA:38424,_RINvNtNtCsluBEq34Hdgp_6glossa10morphology11conjugation22match_verb_endings_allNCNvB2_21analyze_verb_all_into0EB6_
FNDA:852,_RNCINvNtNtCsluBEq34Hdgp_6glossa10morphology11conjugation22match_verb_endings_allNCNvB4_21analyze_verb_all_into0Es_0B8_
FNDA:2,_RNCNvNtNtCsluBEq34Hdgp_6glossa10morphology11conjugation18match_verb_endingss_0B7_
FNDA:852,_RNCNvNtNtCsluBEq34Hdgp_6glossa10morphology11conjugation21analyze_verb_all_into0B7_
FNDA:189,_RNCNvNtNtCsluBEq34Hdgp_6glossa10morphology11conjugation21analyze_verb_all_intos_0B7_
FNDA:0,_RNvNtNtCsluBEq34Hdgp_6glossa10morphology11conjugation10infinitive
FNDA:259,_RNvNtNtCsluBEq34Hdgp_6glossa10morphology11conjugation12analyze_verb
FNDA:0,_RNvNtNtCsluBEq34Hdgp_6glossa10morphology11conjugation13strip_augment
FNDA:0,_RNvNtNtCsluBEq34Hdgp_6glossa10morphology11conjugation16analyze_verb_all
FNDA:2067,_RNvNtNtCsluBEq34Hdgp_6glossa10morphology11conjugation18match_verb_endings
FNDA:4803,_RNvNtNtCsluBEq34Hdgp_6glossa10morphology11conjugation21analyze_verb_all_into
FNDA:0,_RNvNtNtCsluBEq34Hdgp_6glossa10morphology11conjugation9conjugate
FNDA:33592,_RINvNtNtCs4cnvRHYBibt_6glossa10morphology11conjugation22match_verb_endings_allNCNvB2_21analyze_verb_all_into0EB6_
FNDA:4135,_RNCINvNtNtCs4cnvRHYBibt_6glossa10morphology11conjugation22match_verb_endings_allNCNvB4_21analyze_verb_all_into0Es_0B8_
FNDA:9,_RNCNvNtNtCs4cnvRHYBibt_6glossa10morphology11conjugation18match_verb_endingss_0B7_
FNDA:4135,_RNCNvNtNtCs4cnvRHYBibt_6glossa10morphology11conjugation21analyze_verb_all_into0B7_
FNDA:1362,_RNCNvNtNtCs4cnvRHYBibt_6glossa10morphology11conjugation21analyze_verb_all_intos_0B7_
FNDA:2,_RNvNtNtCs4cnvRHYBibt_6glossa10morphology11conjugation10infinitive
FNDA:12,_RNvNtNtCs4cnvRHYBibt_6glossa10morphology11conjugation12analyze_verb
FNDA:14,_RNvNtNtCs4cnvRHYBibt_6glossa10morphology11conjugation13strip_augment
FNDA:2,_RNvNtNtCs4cnvRHYBibt_6glossa10morphology11conjugation16analyze_verb_all
FNDA:48,_RNvNtNtCs4cnvRHYBibt_6glossa10morphology11conjugation18match_verb_endings
FNDA:4199,_RNvNtNtCs4cnvRHYBibt_6glossa10morphology11conjugation21analyze_verb_all_into
FNDA:2,_RNvNtNtCs4cnvRHYBibt_6glossa10morphology11conjugation9conjugate
FNDA:2,_RNCNvNtNtNtCs4cnvRHYBibt_6glossa10morphology11conjugation5testss_35test_analyze_verb_all_discrepancies0B9_
FNDA:1,_RNCNvNtNtNtCs4cnvRHYBibt_6glossa10morphology11conjugation5testss_35test_analyze_verb_all_discrepanciess0_0B9_
FNDA:1,_RNCNvNtNtNtCs4cnvRHYBibt_6glossa10morphology11conjugation5testss_35test_analyze_verb_all_discrepanciess_0B9_
FNDA:1,_RNvNtNtNtCs4cnvRHYBibt_6glossa10morphology11conjugation5testss_14test_conjugate
FNDA:1,_RNvNtNtNtCs4cnvRHYBibt_6glossa10morphology11conjugation5testss_15test_infinitive
FNDA:1,_RNvNtNtNtCs4cnvRHYBibt_6glossa10morphology11conjugation5testss_18test_aorist_active
FNDA:1,_RNvNtNtNtCs4cnvRHYBibt_6glossa10morphology11conjugation5testss_20test_infinitive_form
FNDA:1,_RNvNtNtNtCs4cnvRHYBibt_6glossa10morphology11conjugation5testss_21test_constants_sorted
FNDA:1,_RNvNtNtNtCs4cnvRHYBibt_6glossa10morphology11conjugation5testss_21test_eimi_subjunctive
FNDA:1,_RNvNtNtNtCs4cnvRHYBibt_6glossa10morphology11conjugation5testss_22test_augment_stripping
FNDA:1,_RNvNtNtNtCs4cnvRHYBibt_6glossa10morphology11conjugation5testss_27test_strip_augment_function
FNDA:1,_RNvNtNtNtCs4cnvRHYBibt_6glossa10morphology11conjugation5testss_30test_present_active_imperative
FNDA:1,_RNvNtNtNtCs4cnvRHYBibt_6glossa10morphology11conjugation5testss_30test_present_active_indicative
FNDA:1,_RNvNtNtNtCs4cnvRHYBibt_6glossa10morphology11conjugation5testss_32test_analyze_verb_coverage_forms
FNDA:1,_RNvNtNtNtCs4cnvRHYBibt_6glossa10morphology11conjugation5testss_35test_analyze_verb_all_discrepancies
FNF:27
FNH:27
DA:152,14
DA:154,65
DA:155,53
DA:156,2
DA:157,2
DA:158,51
DA:162,53
DA:163,43
DA:164,2
DA:165,41
DA:170,10
DA:173,6
DA:174,6
DA:175,0
DA:176,4
DA:180,4
DA:183,1
DA:184,1
DA:185,0
DA:186,3
DA:189,3
DA:190,1
DA:192,1
DA:193,2
DA:200,2
DA:201,14
DA:332,271
DA:333,271
DA:334,271
DA:338,2163
DA:339,1893
DA:340,1
DA:341,1
DA:342,1
DA:343,1
DA:344,1
DA:345,1
DA:346,1
DA:347,1
DA:348,1
DA:349,1
DA:350,1
DA:351,1
DA:352,1892
DA:356,2374
DA:357,2115
DA:358,11
DA:361,6
DA:362,1
DA:364,5
DA:368,3
DA:369,3
DA:374,2
DA:375,2
DA:379,11
DA:380,11
DA:381,11
DA:382,11
DA:383,11
DA:384,11
DA:385,11
DA:386,11
DA:387,11
DA:388,11
DA:389,11
DA:390,11
DA:391,2104
DA:395,259
DA:396,1
DA:398,1
DA:399,1
DA:400,1
DA:401,1
DA:402,1
DA:403,1
DA:404,1
DA:405,1
DA:406,1
DA:407,1
DA:408,1
DA:409,1
DA:410,258
DA:413,258
DA:414,1
DA:416,1
DA:417,1
DA:418,1
DA:419,1
DA:420,1
DA:421,1
DA:422,1
DA:423,1
DA:424,1
DA:425,1
DA:426,1
DA:427,1
DA:428,257
DA:430,257
DA:431,271
DA:436,2115
DA:437,2115
DA:438,2115
DA:439,2115
DA:440,2115
DA:441,2115
DA:442,2115
DA:443,2115
DA:445,11
DA:446,11
DA:447,11
DA:448,11
DA:450,0
DA:452,11
DA:454,2115
DA:455,2115
DA:458,72016
DA:459,72016
DA:460,72016
DA:462,72016
DA:463,72016
DA:464,72016
DA:466,4987
DA:467,4987
DA:468,4987
DA:469,4987
DA:471,72016
DA:479,2
DA:480,2
DA:481,2
DA:482,2
DA:483,2
DA:488,9002
DA:489,9002
DA:493,72016
DA:494,63014
DA:495,15
DA:496,15
DA:497,15
DA:498,15
DA:499,15
DA:500,15
DA:501,15
DA:502,15
DA:503,15
DA:504,15
DA:505,15
DA:506,15
DA:507,62999
DA:510,81018
DA:511,72016
DA:513,4987
DA:514,4982
DA:515,2
DA:517,3
DA:522,4987
DA:523,4987
DA:524,4987
DA:527,4987
DA:528,4982
DA:529,3096
DA:531,3096
DA:533,1891
DA:536,4987
DA:537,4987
DA:538,4987
DA:539,4987
DA:540,4987
DA:541,4987
DA:542,4987
DA:543,4987
DA:544,4987
DA:545,4987
DA:546,4987
DA:547,4987
DA:548,4987
DA:552,9002
DA:553,2
DA:554,2
DA:555,2
DA:556,2
DA:557,2
DA:558,2
DA:559,2
DA:560,2
DA:561,2
DA:562,2
DA:563,2
DA:564,2
DA:565,2
DA:566,2
DA:567,9000
DA:569,9002
DA:570,1
DA:571,1
DA:572,1
DA:573,1
DA:574,1
DA:575,1
DA:576,1
DA:577,1
DA:578,1
DA:579,1
DA:580,1
DA:581,1
DA:582,1
DA:583,1
DA:584,9001
DA:587,9002
DA:588,1551
DA:589,1551
DA:590,1551
DA:591,1551
DA:594,9002
DA:595,9002
DA:596,1551
DA:597,1551
DA:598,1551
DA:599,1551
DA:600,1551
DA:601,1551
DA:602,1548
DA:603,0
DA:604,0
DA:605,0
DA:608,1551
DA:609,1551
DA:610,0
DA:611,1551
DA:612,1551
DA:613,0
DA:615,1551
DA:616,7451
DA:617,9002
DA:638,2
DA:639,2
DA:640,2
DA:641,2
DA:642,2
DA:643,2
DA:644,2
DA:645,2
DA:646,2
DA:647,1
DA:648,1
DA:649,0
DA:650,0
DA:651,0
DA:654,11
DA:655,11
DA:656,2
DA:657,9
DA:660,0
DA:661,2
DA:681,2
DA:682,2
DA:683,1
DA:684,1
DA:685,0
DA:687,2
DA:694,1
DA:695,1
DA:696,1
DA:697,1
DA:698,1
DA:699,1
DA:701,1
DA:702,1
DA:703,1
DA:704,1
DA:707,1
DA:708,1
DA:709,1
DA:710,1
DA:711,1
DA:712,1
DA:713,1
DA:716,1
DA:717,1
DA:718,1
DA:719,1
DA:720,1
DA:722,1
DA:723,1
DA:726,1
DA:729,1
DA:730,1
DA:731,1
DA:734,1
DA:735,1
DA:736,1
DA:739,1
DA:740,1
DA:741,1
DA:742,1
DA:743,1
DA:746,1
DA:747,1
DA:750,1
DA:751,1
DA:756,1
DA:757,1
DA:760,1
DA:761,1
DA:762,1
DA:763,1
DA:764,1
DA:767,1
DA:769,1
DA:770,1
DA:771,1
DA:772,1
DA:773,1
DA:774,1
DA:777,1
DA:778,1
DA:779,1
DA:780,1
DA:781,1
DA:782,1
DA:783,1
DA:784,1
DA:785,1
DA:789,1
DA:790,1
DA:791,1
DA:792,1
DA:793,1
DA:794,1
DA:795,1
DA:796,1
DA:800,1
DA:803,1
DA:804,1
DA:805,1
DA:806,1
DA:809,1
DA:811,1
DA:812,1
DA:813,1
DA:814,1
DA:817,1
DA:818,1
DA:819,1
DA:822,1
DA:823,1
DA:824,1
DA:827,1
DA:828,1
DA:829,1
DA:830,1
DA:831,1
DA:834,1
DA:837,1
DA:838,1
DA:839,1
DA:840,1
DA:841,1
DA:842,1
DA:843,1
DA:844,1
DA:845,1
DA:848,9
DA:849,40
DA:850,40
DA:851,40
DA:852,40
DA:853,40
DA:854,40
DA:855,40
DA:856,0
DA:861,0
DA:867,1
DA:870,1
DA:872,1
DA:873,1
DA:874,1
DA:875,1
DA:876,2
DA:877,1
DA:878,1
DA:879,0
DA:881,1
DA:882,1
DA:884,0
DA:886,0
DA:890,1
DA:891,1
DA:892,1
DA:895,1
DA:896,0
DA:897,0
DA:898,0
DA:899,1
DA:901,1
DA:902,1
DA:903,1
BRF:0
BRH:0
LF:401
LH:378
end_of_record
SF:/app/src/morphology/declension.rs
FN:168,_RNvNtNtCsluBEq34Hdgp_6glossa10morphology10declension12analyze_noun
FN:203,_RNvNtNtCsluBEq34Hdgp_6glossa10morphology10declension16analyze_noun_all
FN:212,_RNvNtNtCsluBEq34Hdgp_6glossa10morphology10declension21analyze_noun_all_into
FN:345,_RNvNtNtCsluBEq34Hdgp_6glossa10morphology10declension7decline
FN:297,_RNvNtNtCsluBEq34Hdgp_6glossa10morphology10declension8get_stem
FN:181,_RINvNtNtCsluBEq34Hdgp_6glossa10morphology10declension17match_endings_allNCNvB2_21analyze_noun_all_into0EB6_
FN:189,_RNCINvNtNtCsluBEq34Hdgp_6glossa10morphology10declension17match_endings_allNCNvB4_21analyze_noun_all_into0Es_0B8_
FN:175,_RNCNvNtNtCsluBEq34Hdgp_6glossa10morphology10declension12analyze_noun0B7_
FN:216,_RNCNvNtNtCsluBEq34Hdgp_6glossa10morphology10declension21analyze_noun_all_into0B7_
FN:253,_RNCNvNtNtCsluBEq34Hdgp_6glossa10morphology10declension21analyze_noun_all_intos_0B7_
FN:556,_RNvNtNtNtCs4cnvRHYBibt_6glossa10morphology10declension5testss_13test_get_stem
FN:638,_RNvNtNtNtCs4cnvRHYBibt_6glossa10morphology10declension5testss_18test_decline_table
FN:384,_RNvNtNtNtCs4cnvRHYBibt_6glossa10morphology10declension5testss_21test_constants_sorted
FN:759,_RNvNtNtNtCs4cnvRHYBibt_6glossa10morphology10declension5testss_24test_decline_fallthrough
FN:510,_RNvNtNtNtCs4cnvRHYBibt_6glossa10morphology10declension5testss_24test_third_declension_ma
FN:500,_RNvNtNtNtCs4cnvRHYBibt_6glossa10morphology10declension5testss_25test_first_declension_eta
FN:618,_RNvNtNtNtCs4cnvRHYBibt_6glossa10morphology10declension5testss_27test_decline_alpha_mismatch
FN:598,_RNvNtNtNtCs4cnvRHYBibt_6glossa10morphology10declension5testss_27test_first_declension_alpha
FN:522,_RNvNtNtNtCs4cnvRHYBibt_6glossa10morphology10declension5testss_29test_decline_second_masculine
FN:432,_RNvNtNtNtCs4cnvRHYBibt_6glossa10morphology10declension5testss_29test_second_declension_dative
FN:453,_RNvNtNtNtCs4cnvRHYBibt_6glossa10morphology10declension5testss_29test_second_declension_plural
FN:563,_RNvNtNtNtCs4cnvRHYBibt_6glossa10morphology10declension5testss_31test_analyze_noun_all_ambiguity
FN:424,_RNvNtNtNtCs4cnvRHYBibt_6glossa10morphology10declension5testss_31test_second_declension_genitive
FN:446,_RNvNtNtNtCs4cnvRHYBibt_6glossa10morphology10declension5testss_31test_second_declension_vocative
FN:439,_RNvNtNtNtCs4cnvRHYBibt_6glossa10morphology10declension5testss_33test_second_declension_accusative
FN:416,_RNvNtNtNtCs4cnvRHYBibt_6glossa10morphology10declension5testss_33test_second_declension_nominative
FN:464,_RNvNtNtNtCs4cnvRHYBibt_6glossa10morphology10declension5testss_36test_second_declension_neuter_plural
FN:487,_RNvNtNtNtCs4cnvRHYBibt_6glossa10morphology10declension5testss_38test_analyze_noun_disambiguation_alpha
FN:168,_RNvNtNtCs4cnvRHYBibt_6glossa10morphology10declension12analyze_noun
FN:203,_RNvNtNtCs4cnvRHYBibt_6glossa10morphology10declension16analyze_noun_all
FN:212,_RNvNtNtCs4cnvRHYBibt_6glossa10morphology10declension21analyze_noun_all_into
FN:345,_RNvNtNtCs4cnvRHYBibt_6glossa10morphology10declension7decline
FN:297,_RNvNtNtCs4cnvRHYBibt_6glossa10morphology10declension8get_stem
FN:604,_RNCNvNtNtNtCs4cnvRHYBibt_6glossa10morphology10declension5testss_27test_first_declension_alpha0B9_
FN:578,_RNCNvNtNtNtCs4cnvRHYBibt_6glossa10morphology10declension5testss_31test_analyze_noun_all_ambiguity0B9_
FN:586,_RNCNvNtNtNtCs4cnvRHYBibt_6glossa10morphology10declension5testss_31test_analyze_noun_all_ambiguitys_0B9_
FN:472,_RNCNvNtNtNtCs4cnvRHYBibt_6glossa10morphology10declension5testss_36test_second_declension_neuter_plural0B9_
FN:181,_RINvNtNtCs4cnvRHYBibt_6glossa10morphology10declension17match_endings_allNCNvB2_21analyze_noun_all_into0EB6_
FN:189,_RNCINvNtNtCs4cnvRHYBibt_6glossa10morphology10declension17match_endings_allNCNvB4_21analyze_noun_all_into0Es_0B8_
FN:175,_RNCNvNtNtCs4cnvRHYBibt_6glossa10morphology10declension12analyze_noun0B7_
FN:216,_RNCNvNtNtCs4cnvRHYBibt_6glossa10morphology10declension21analyze_noun_all_into0B7_
FN:253,_RNCNvNtNtCs4cnvRHYBibt_6glossa10morphology10declension21analyze_noun_all_intos_0B7_
FNDA:258,_RNvNtNtCsluBEq34Hdgp_6glossa10morphology10declension12analyze_noun
FNDA:258,_RNvNtNtCsluBEq34Hdgp_6glossa10morphology10declension16analyze_noun_all
FNDA:5061,_RNvNtNtCsluBEq34Hdgp_6glossa10morphology10declension21analyze_noun_all_into
FNDA:0,_RNvNtNtCsluBEq34Hdgp_6glossa10morphology10declension7decline
FNDA:256,_RNvNtNtCsluBEq34Hdgp_6glossa10morphology10declension8get_stem
FNDA:25305,_RINvNtNtCsluBEq34Hdgp_6glossa10morphology10declension17match_endings_allNCNvB2_21analyze_noun_all_into0EB6_
FNDA:11280,_RNCINvNtNtCsluBEq34Hdgp_6glossa10morphology10declension17match_endings_allNCNvB4_21analyze_noun_all_into0Es_0B8_
FNDA:0,_RNCNvNtNtCsluBEq34Hdgp_6glossa10morphology10declension12analyze_noun0B7_
FNDA:11280,_RNCNvNtNtCsluBEq34Hdgp_6glossa10morphology10declension21analyze_noun_all_into0B7_
FNDA:16571,_RNCNvNtNtCsluBEq34Hdgp_6glossa10morphology10declension21analyze_noun_all_intos_0B7_
FNDA:1,_RNvNtNtNtCs4cnvRHYBibt_6glossa10morphology10declension5testss_13test_get_stem
FNDA:1,_RNvNtNtNtCs4cnvRHYBibt_6glossa10morphology10declension5testss_18test_decline_table
FNDA:1,_RNvNtNtNtCs4cnvRHYBibt_6glossa10morphology10declension5testss_21test_constants_sorted
FNDA:1,_RNvNtNtNtCs4cnvRHYBibt_6glossa10morphology10declension5testss_24test_decline_fallthrough
FNDA:1,_RNvNtNtNtCs4cnvRHYBibt_6glossa10morphology10declension5testss_24test_third_declension_ma
FNDA:1,_RNvNtNtNtCs4cnvRHYBibt_6glossa10morphology10declension5testss_25test_first_declension_eta
FNDA:1,_RNvNtNtNtCs4cnvRHYBibt_6glossa10morphology10declension5testss_27test_decline_alpha_mismatch
FNDA:1,_RNvNtNtNtCs4cnvRHYBibt_6glossa10morphology10declension5testss_27test_first_declension_alpha
FNDA:1,_RNvNtNtNtCs4cnvRHYBibt_6glossa10morphology10declension5testss_29test_decline_second_masculine
FNDA:1,_RNvNtNtNtCs4cnvRHYBibt_6glossa10morphology10declension5testss_29test_second_declension_dative
FNDA:1,_RNvNtNtNtCs4cnvRHYBibt_6glossa10morphology10declension5testss_29test_second_declension_plural
FNDA:1,_RNvNtNtNtCs4cnvRHYBibt_6glossa10morphology10declension5testss_31test_analyze_noun_all_ambiguity
FNDA:1,_RNvNtNtNtCs4cnvRHYBibt_6glossa10morphology10declension5testss_31test_second_declension_genitive
FNDA:1,_RNvNtNtNtCs4cnvRHYBibt_6glossa10morphology10declension5testss_31test_second_declension_vocative
FNDA:1,_RNvNtNtNtCs4cnvRHYBibt_6glossa10morphology10declension5testss_33test_second_declension_accusative
FNDA:1,_RNvNtNtNtCs4cnvRHYBibt_6glossa10morphology10declension5testss_33test_second_declension_nominative
FNDA:1,_RNvNtNtNtCs4cnvRHYBibt_6glossa10morphology10declension5testss_36test_second_declension_neuter_plural
FNDA:1,_RNvNtNtNtCs4cnvRHYBibt_6glossa10morphology10declension5testss_38test_analyze_noun_disambiguation_alpha
FNDA:12,_RNvNtNtCs4cnvRHYBibt_6glossa10morphology10declension12analyze_noun
FNDA:15,_RNvNtNtCs4cnvRHYBibt_6glossa10morphology10declension16analyze_noun_all
FNDA:4212,_RNvNtNtCs4cnvRHYBibt_6glossa10morphology10declension21analyze_noun_all_into
FNDA:14,_RNvNtNtCs4cnvRHYBibt_6glossa10morphology10declension7decline
FNDA:3,_RNvNtNtCs4cnvRHYBibt_6glossa10morphology10declension8get_stem
FNDA:1,_RNCNvNtNtNtCs4cnvRHYBibt_6glossa10morphology10declension5testss_27test_first_declension_alpha0B9_
FNDA:2,_RNCNvNtNtNtCs4cnvRHYBibt_6glossa10morphology10declension5testss_31test_analyze_noun_all_ambiguity0B9_
FNDA:1,_RNCNvNtNtNtCs4cnvRHYBibt_6glossa10morphology10declension5testss_31test_analyze_noun_all_ambiguitys_0B9_
FNDA:2,_RNCNvNtNtNtCs4cnvRHYBibt_6glossa10morphology10declension5testss_36test_second_declension_neuter_plural0B9_
FNDA:21060,_RINvNtNtCs4cnvRHYBibt_6glossa10morphology10declension17match_endings_allNCNvB2_21analyze_noun_all_into0EB6_
FNDA:4342,_RNCINvNtNtCs4cnvRHYBibt_6glossa10morphology10declension17match_endings_allNCNvB4_21analyze_noun_all_into0Es_0B8_
FNDA:31,_RNCNvNtNtCs4cnvRHYBibt_6glossa10morphology10declension12analyze_noun0B7_
FNDA:4342,_RNCNvNtNtCs4cnvRHYBibt_6glossa10morphology10declension21analyze_noun_all_into0B7_
FNDA:1630,_RNCNvNtNtCs4cnvRHYBibt_6glossa10morphology10declension21analyze_noun_all_intos_0B7_
FNF:32
FNH:32
DA:168,270
DA:169,270
DA:175,270
DA:177,270
DA:178,270
DA:181,46365
DA:182,46365
DA:183,46365
DA:185,46365
DA:186,46365
DA:187,46365
DA:189,15622
DA:190,15622
DA:191,15622
DA:192,15622
DA:194,46365
DA:203,273
DA:204,273
DA:205,273
DA:206,273
DA:207,273
DA:212,9273
DA:213,9273
DA:215,55638
DA:216,46365
DA:218,15622
DA:219,15622
DA:226,15622
DA:229,15622
DA:230,8448
DA:232,7554
DA:234,8068
DA:237,15622
DA:238,15622
DA:239,15622
DA:240,15622
DA:241,15622
DA:242,15622
DA:243,15622
DA:244,15622
DA:245,15622
DA:246,15622
DA:247,15622
DA:248,15622
DA:249,15622
DA:253,18201
DA:254,18201
DA:255,18201
DA:256,18201
DA:257,18201
DA:260,9273
DA:261,9273
DA:262,3350
DA:263,9120
DA:264,9120
DA:265,9120
DA:266,9120
DA:267,9120
DA:268,5770
DA:269,4071
DA:270,292
DA:273,9120
DA:274,9120
DA:275,0
DA:276,9120
DA:277,9120
DA:278,0
DA:280,3350
DA:281,5923
DA:282,9273
DA:297,259
DA:298,259
DA:300,257
DA:301,1
DA:302,256
DA:303,0
DA:305,256
DA:309,1
DA:310,1
DA:311,0
DA:312,0
DA:314,0
DA:318,1
DA:319,1
DA:321,0
DA:325,259
DA:345,14
DA:346,14
DA:347,14
DA:348,14
DA:349,14
DA:350,14
DA:351,14
DA:352,14
DA:353,4
DA:354,1
DA:359,7
DA:360,5
DA:363,2
DA:366,1
DA:367,1
DA:370,50
DA:371,50
DA:372,13
DA:373,37
DA:376,0
DA:377,14
DA:384,1
DA:386,1
DA:387,1
DA:388,1
DA:389,1
DA:390,1
DA:391,1
DA:394,6
DA:395,40
DA:396,40
DA:397,40
DA:398,40
DA:399,40
DA:400,40
DA:401,40
DA:402,0
DA:407,0
DA:413,1
DA:416,1
DA:417,1
DA:418,1
DA:419,1
DA:420,1
DA:421,1
DA:424,1
DA:425,1
DA:426,1
DA:427,1
DA:428,1
DA:429,1
DA:432,1
DA:433,1
DA:434,1
DA:435,1
DA:436,1
DA:439,1
DA:440,1
DA:441,1
DA:442,1
DA:443,1
DA:446,1
DA:447,1
DA:448,1
DA:449,1
DA:450,1
DA:453,1
DA:454,1
DA:455,1
DA:456,1
DA:458,1
DA:459,1
DA:460,1
DA:461,1
DA:464,1
DA:470,1
DA:472,2
DA:473,2
DA:474,2
DA:475,1
DA:476,1
DA:477,1
DA:478,2
DA:480,1
DA:481,1
DA:482,0
DA:484,1
DA:487,1
DA:492,1
DA:494,1
DA:495,1
DA:496,1
DA:497,1
DA:500,1
DA:501,1
DA:502,1
DA:503,1
DA:505,1
DA:506,1
DA:507,1
DA:510,1
DA:511,1
DA:512,1
DA:513,1
DA:515,1
DA:516,1
DA:518,1
DA:519,1
DA:522,1
DA:523,1
DA:524,1
DA:525,1
DA:526,1
DA:527,1
DA:528,1
DA:529,1
DA:533,1
DA:534,1
DA:535,1
DA:536,1
DA:537,1
DA:538,1
DA:539,1
DA:543,1
DA:544,1
DA:545,1
DA:546,1
DA:547,1
DA:548,1
DA:549,1
DA:553,1
DA:556,1
DA:557,1
DA:558,1
DA:559,1
DA:560,1
DA:563,1
DA:567,1
DA:570,1
DA:571,1
DA:572,0
DA:573,0
DA:578,2
DA:579,2
DA:580,1
DA:581,1
DA:582,2
DA:583,1
DA:586,1
DA:587,1
DA:588,1
DA:589,1
DA:590,1
DA:591,1
DA:592,1
DA:593,0
DA:595,1
DA:598,1
DA:602,1
DA:604,1
DA:605,1
DA:606,1
DA:607,1
DA:608,1
DA:609,1
DA:611,1
DA:612,1
DA:613,0
DA:615,1
DA:618,1
DA:623,1
DA:624,1
DA:625,1
DA:626,1
DA:627,1
DA:628,1
DA:631,1
DA:633,0
DA:635,1
DA:638,1
DA:650,1
DA:652,1
DA:653,1
DA:654,1
DA:655,1
DA:656,1
DA:657,1
DA:658,1
DA:659,1
DA:660,1
DA:661,1
DA:662,1
DA:663,1
DA:664,1
DA:665,1
DA:666,1
DA:667,1
DA:668,1
DA:669,1
DA:671,1
DA:672,1
DA:673,1
DA:674,1
DA:675,1
DA:676,1
DA:677,1
DA:678,1
DA:679,1
DA:680,1
DA:681,1
DA:682,1
DA:683,1
DA:684,1
DA:685,1
DA:686,1
DA:687,1
DA:688,1
DA:690,1
DA:691,1
DA:692,1
DA:693,1
DA:694,1
DA:695,1
DA:696,1
DA:697,1
DA:698,1
DA:701,1
DA:702,1
DA:703,1
DA:704,1
DA:705,1
DA:706,1
DA:707,1
DA:708,1
DA:709,1
DA:711,1
DA:712,1
DA:713,1
DA:714,1
DA:715,1
DA:716,1
DA:717,1
DA:718,1
DA:719,1
DA:721,1
DA:722,1
DA:723,1
DA:724,1
DA:725,1
DA:726,1
DA:727,1
DA:728,1
DA:729,1
DA:731,1
DA:732,1
DA:733,1
DA:734,1
DA:735,1
DA:736,1
DA:737,1
DA:738,1
DA:739,1
DA:742,10
DA:743,9
DA:744,9
DA:745,9
DA:746,9
DA:747,9
DA:748,9
DA:750,9
DA:752,0
DA:756,1
DA:759,1
DA:765,1
DA:766,1
DA:767,1
DA:768,1
DA:769,1
DA:770,1
DA:771,1
DA:774,1
DA:775,1
BRF:0
BRH:0
LF:375
LH:356
end_of_record
SF:/app/src/morphology/disambiguation.rs
FN:141,_RNCNvNtNtCsluBEq34Hdgp_6glossa10morphology14disambiguation12disambiguate0B7_
FN:57,_RNvMNtNtCsluBEq34Hdgp_6glossa10morphology14disambiguationNtB2_21DisambiguationContext12from_article
FN:95,_RNvMNtNtCsluBEq34Hdgp_6glossa10morphology14disambiguationNtB2_21DisambiguationContext14expecting_case
FN:41,_RNvMNtNtCsluBEq34Hdgp_6glossa10morphology14disambiguationNtB2_21DisambiguationContext3new
FN:78,_RNvMNtNtCsluBEq34Hdgp_6glossa10morphology14disambiguationNtB2_21DisambiguationContext9from_verb
FN:121,_RNvNtNtCsluBEq34Hdgp_6glossa10morphology14disambiguation12disambiguate
FN:223,_RNvNtNtCsluBEq34Hdgp_6glossa10morphology14disambiguation12resolve_best
FN:164,_RNvNtNtCsluBEq34Hdgp_6glossa10morphology14disambiguation14score_analysis
FN:248,_RNvNtNtCsluBEq34Hdgp_6glossa10morphology14disambiguation15analyze_article
FN:57,_RNvMNtNtCs4cnvRHYBibt_6glossa10morphology14disambiguationNtB2_21DisambiguationContext12from_article
FN:95,_RNvMNtNtCs4cnvRHYBibt_6glossa10morphology14disambiguationNtB2_21DisambiguationContext14expecting_case
FN:402,_RNvNtNtNtCs4cnvRHYBibt_6glossa10morphology14disambiguation5testss_17test_verb_context
FN:391,_RNvNtNtNtCs4cnvRHYBibt_6glossa10morphology14disambiguation5testss_20test_article_context
FN:424,_RNvNtNtNtCs4cnvRHYBibt_6glossa10morphology14disambiguation5testss_29test_neuter_article_ambiguity
FN:372,_RNvNtNtNtCs4cnvRHYBibt_6glossa10morphology14disambiguation5testss_30test_disambiguate_with_article
FN:414,_RNvNtNtNtCs4cnvRHYBibt_6glossa10morphology14disambiguation5testss_31test_no_context_preserves_order
FN:41,_RNvMNtNtCs4cnvRHYBibt_6glossa10morphology14disambiguationNtB2_21DisambiguationContext3new
FN:78,_RNvMNtNtCs4cnvRHYBibt_6glossa10morphology14disambiguationNtB2_21DisambiguationContext9from_verb
FN:121,_RNvNtNtCs4cnvRHYBibt_6glossa10morphology14disambiguation12disambiguate
FN:223,_RNvNtNtCs4cnvRHYBibt_6glossa10morphology14disambiguation12resolve_best
FN:164,_RNvNtNtCs4cnvRHYBibt_6glossa10morphology14disambiguation14score_analysis
FN:248,_RNvNtNtCs4cnvRHYBibt_6glossa10morphology14disambiguation15analyze_article
FN:141,_RNCNvNtNtCs4cnvRHYBibt_6glossa10morphology14disambiguation12disambiguate0B7_
FNDA:1,_RNCNvNtNtCsluBEq34Hdgp_6glossa10morphology14disambiguation12disambiguate0B7_
FNDA:0,_RNvMNtNtCsluBEq34Hdgp_6glossa10morphology14disambiguationNtB2_21DisambiguationContext12from_article
FNDA:0,_RNvMNtNtCsluBEq34Hdgp_6glossa10morphology14disambiguationNtB2_21DisambiguationContext14expecting_case
FNDA:5103,_RNvMNtNtCsluBEq34Hdgp_6glossa10morphology14disambiguationNtB2_21DisambiguationContext3new
FNDA:1,_RNvMNtNtCsluBEq34Hdgp_6glossa10morphology14disambiguationNtB2_21DisambiguationContext9from_verb
FNDA:4267,_RNvNtNtCsluBEq34Hdgp_6glossa10morphology14disambiguation12disambiguate
FNDA:2,_RNvNtNtCsluBEq34Hdgp_6glossa10morphology14disambiguation12resolve_best
FNDA:5,_RNvNtNtCsluBEq34Hdgp_6glossa10morphology14disambiguation14score_analysis
FNDA:4832,_RNvNtNtCsluBEq34Hdgp_6glossa10morphology14disambiguation15analyze_article
FNDA:0,_RNvMNtNtCs4cnvRHYBibt_6glossa10morphology14disambiguationNtB2_21DisambiguationContext12from_article
FNDA:0,_RNvMNtNtCs4cnvRHYBibt_6glossa10morphology14disambiguationNtB2_21DisambiguationContext14expecting_case
FNDA:1,_RNvNtNtNtCs4cnvRHYBibt_6glossa10morphology14disambiguation5testss_17test_verb_context
FNDA:1,_RNvNtNtNtCs4cnvRHYBibt_6glossa10morphology14disambiguation5testss_20test_article_context
FNDA:1,_RNvNtNtNtCs4cnvRHYBibt_6glossa10morphology14disambiguation5testss_29test_neuter_article_ambiguity
FNDA:1,_RNvNtNtNtCs4cnvRHYBibt_6glossa10morphology14disambiguation5testss_30test_disambiguate_with_article
FNDA:1,_RNvNtNtNtCs4cnvRHYBibt_6glossa10morphology14disambiguation5testss_31test_no_context_preserves_order
FNDA:5558,_RNvMNtNtCs4cnvRHYBibt_6glossa10morphology14disambiguationNtB2_21DisambiguationContext3new
FNDA:29,_RNvMNtNtCs4cnvRHYBibt_6glossa10morphology14disambiguationNtB2_21DisambiguationContext9from_verb
FNDA:4156,_RNvNtNtCs4cnvRHYBibt_6glossa10morphology14disambiguation12disambiguate
FNDA:62,_RNvNtNtCs4cnvRHYBibt_6glossa10morphology14disambiguation12resolve_best
FNDA:83,_RNvNtNtCs4cnvRHYBibt_6glossa10morphology14disambiguation14score_analysis
FNDA:4176,_RNvNtNtCs4cnvRHYBibt_6glossa10morphology14disambiguation15analyze_article
FNDA:24,_RNCNvNtNtCs4cnvRHYBibt_6glossa10morphology14disambiguation12disambiguate0B7_
FNF:14
FNH:12
DA:41,10661
DA:42,10661
DA:43,10661
DA:57,0
DA:58,0
DA:59,0
DA:60,0
DA:61,0
DA:62,0
DA:63,0
DA:64,0
DA:78,30
DA:79,30
DA:80,30
DA:81,30
DA:82,30
DA:83,30
DA:84,30
DA:85,30
DA:95,0
DA:96,0
DA:97,0
DA:98,0
DA:99,0
DA:100,0
DA:101,0
DA:102,0
DA:121,8423
DA:122,8423
DA:123,8423
DA:124,8423
DA:125,8423
DA:126,0
DA:127,8423
DA:130,8423
DA:131,8406
DA:132,8405
DA:133,8405
DA:135,8405
DA:136,18
DA:141,25
DA:142,25
DA:143,25
DA:145,25
DA:147,25
DA:148,12
DA:150,13
DA:152,25
DA:155,56
DA:156,38
DA:157,38
DA:158,38
DA:160,18
DA:161,8423
DA:164,88
DA:165,88
DA:168,88
DA:169,63
DA:170,23
DA:171,40
DA:172,16
DA:173,24
DA:174,25
DA:177,88
DA:178,79
DA:179,65
DA:180,65
DA:181,14
DA:182,14
DA:183,9
DA:186,88
DA:187,77
DA:188,37
DA:189,40
DA:190,19
DA:191,21
DA:192,11
DA:195,88
DA:196,2
DA:197,0
DA:198,2
DA:199,0
DA:200,2
DA:201,86
DA:204,88
DA:205,88
DA:223,64
DA:224,64
DA:225,64
DA:226,64
DA:227,64
DA:228,64
DA:229,0
DA:232,64
DA:234,64
DA:248,9008
DA:250,9008
DA:252,9008
DA:253,5
DA:254,5
DA:255,5
DA:256,5
DA:257,5
DA:258,9003
DA:259,0
DA:260,0
DA:261,0
DA:262,0
DA:263,0
DA:264,9003
DA:265,3
DA:266,3
DA:267,3
DA:268,3
DA:269,3
DA:270,9000
DA:271,4
DA:272,4
DA:273,4
DA:274,4
DA:275,4
DA:276,8996
DA:277,0
DA:278,0
DA:279,0
DA:280,0
DA:281,0
DA:282,8996
DA:283,0
DA:284,0
DA:285,0
DA:286,0
DA:287,0
DA:288,8996
DA:289,0
DA:290,0
DA:291,0
DA:292,0
DA:293,0
DA:294,8996
DA:295,0
DA:296,0
DA:297,0
DA:298,0
DA:299,0
DA:302,8996
DA:303,0
DA:304,0
DA:305,0
DA:306,0
DA:307,0
DA:308,8996
DA:309,0
DA:310,0
DA:311,0
DA:312,0
DA:313,0
DA:314,8996
DA:315,0
DA:316,0
DA:317,0
DA:318,0
DA:319,0
DA:320,8996
DA:321,1
DA:322,1
DA:323,1
DA:324,1
DA:325,1
DA:326,8995
DA:327,0
DA:328,0
DA:329,0
DA:330,0
DA:331,0
DA:332,8995
DA:333,0
DA:334,0
DA:335,0
DA:336,0
DA:337,0
DA:338,8995
DA:339,0
DA:340,0
DA:341,0
DA:342,0
DA:343,0
DA:349,8995
DA:350,2
DA:351,2
DA:352,2
DA:353,2
DA:354,2
DA:355,8993
DA:356,2
DA:357,2
DA:358,2
DA:359,2
DA:360,2
DA:362,8991
DA:364,9008
DA:372,1
DA:374,1
DA:377,1
DA:378,1
DA:379,1
DA:380,1
DA:381,1
DA:382,1
DA:384,1
DA:385,1
DA:387,1
DA:388,1
DA:391,1
DA:392,1
DA:393,1
DA:394,1
DA:396,1
DA:397,1
DA:398,1
DA:399,1
DA:402,1
DA:405,1
DA:406,1
DA:408,1
DA:409,1
DA:410,1
DA:411,1
DA:414,1
DA:415,1
DA:416,1
DA:417,1
DA:420,1
DA:421,1
DA:424,1
DA:426,1
DA:427,1
DA:428,1
DA:429,1
DA:432,1
DA:433,1
DA:434,1
DA:435,1
DA:436,1
BRF:0
BRH:0
LF:245
LH:170
end_of_record
SF:/app/src/morphology/lexicon.rs
FN:2382,_RNCNvNtNtCsluBEq34Hdgp_6glossa10morphology7lexicon19get_binary_operator0B7_
FN:2383,_RNCNvNtNtCsluBEq34Hdgp_6glossa10morphology7lexicon19get_binary_operators_0B7_
FN:136,_RNCNvNtNtCsluBEq34Hdgp_6glossa10morphology7lexicon7LEXICON0B7_
FN:2213,_RNCNvNtNtCsluBEq34Hdgp_6glossa10morphology7lexicon7is_verb0B7_
FN:119,_RNvMNtNtCsluBEq34Hdgp_6glossa10morphology7lexiconNtB2_12LexiconEntry11to_analysis
FN:2502,_RNvNtNtCsluBEq34Hdgp_6glossa10morphology7lexicon10is_ok_word
FN:2445,_RNvNtNtCsluBEq34Hdgp_6glossa10morphology7lexicon10is_ordinal
FN:2507,_RNvNtNtCsluBEq34Hdgp_6glossa10morphology7lexicon11is_err_word
FN:2356,_RNvNtNtCsluBEq34Hdgp_6glossa10morphology7lexicon11is_negation
FN:2435,_RNvNtNtCsluBEq34Hdgp_6glossa10morphology7lexicon11is_pop_verb
FN:2232,_RNvNtNtCsluBEq34Hdgp_6glossa10morphology7lexicon12is_find_verb
FN:2529,_RNvNtNtCsluBEq34Hdgp_6glossa10morphology7lexicon12is_join_verb
FN:2492,_RNvNtNtCsluBEq34Hdgp_6glossa10morphology7lexicon12is_none_word
FN:2430,_RNvNtNtCsluBEq34Hdgp_6glossa10morphology7lexicon12is_push_verb
FN:2497,_RNvNtNtCsluBEq34Hdgp_6glossa10morphology7lexicon12is_some_word
FN:2411,_RNvNtNtCsluBEq34Hdgp_6glossa10morphology7lexicon13is_break_verb
FN:2227,_RNvNtNtCsluBEq34Hdgp_6glossa10morphology7lexicon13is_print_verb
FN:2523,_RNvNtNtCsluBEq34Hdgp_6glossa10morphology7lexicon13is_split_verb
FN:2268,_RNvNtNtCsluBEq34Hdgp_6glossa10morphology7lexicon13numeral_value
FN:2237,_RNvNtNtCsluBEq34Hdgp_6glossa10morphology7lexicon14is_assert_verb
FN:2242,_RNvNtNtCsluBEq34Hdgp_6glossa10morphology7lexicon14is_equals_verb
FN:2517,_RNvNtNtCsluBEq34Hdgp_6glossa10morphology7lexicon14is_insert_verb
FN:2219,_RNvNtNtCsluBEq34Hdgp_6glossa10morphology7lexicon15is_binding_verb
FN:2396,_RNvNtNtCsluBEq34Hdgp_6glossa10morphology7lexicon15is_else_pattern
FN:2347,_RNvNtNtCsluBEq34Hdgp_6glossa10morphology7lexicon16boolean_operator
FN:2416,_RNvNtNtCsluBEq34Hdgp_6glossa10morphology7lexicon16is_continue_verb
FN:2401,_RNvNtNtCsluBEq34Hdgp_6glossa10morphology7lexicon16is_loop_particle
FN:2373,_RNvNtNtCsluBEq34Hdgp_6glossa10morphology7lexicon16is_operator_word
FN:2463,_RNvNtNtCsluBEq34Hdgp_6glossa10morphology7lexicon16ordinal_to_index
FN:2252,_RNvNtNtCsluBEq34Hdgp_6glossa10morphology7lexicon17is_all_quantifier
FN:2247,_RNvNtNtCsluBEq34Hdgp_6glossa10morphology7lexicon17is_any_quantifier
FN:2421,_RNvNtNtCsluBEq34Hdgp_6glossa10morphology7lexicon17is_match_particle
FN:2257,_RNvNtNtCsluBEq34Hdgp_6glossa10morphology7lexicon17is_mutable_marker
FN:2406,_RNvNtNtCsluBEq34Hdgp_6glossa10morphology7lexicon17is_range_particle
FN:2262,_RNvNtNtCsluBEq34Hdgp_6glossa10morphology7lexicon18is_assignment_verb
FN:2440,_RNvNtNtCsluBEq34Hdgp_6glossa10morphology7lexicon18is_length_property
FN:2361,_RNvNtNtCsluBEq34Hdgp_6glossa10morphology7lexicon19arithmetic_operator
FN:2336,_RNvNtNtCsluBEq34Hdgp_6glossa10morphology7lexicon19comparison_operator
FN:2380,_RNvNtNtCsluBEq34Hdgp_6glossa10morphology7lexicon19get_binary_operator
FN:2487,_RNvNtNtCsluBEq34Hdgp_6glossa10morphology7lexicon21is_consequence_marker
FN:2476,_RNvNtNtCsluBEq34Hdgp_6glossa10morphology7lexicon21is_necessity_particle
FN:2482,_RNvNtNtCsluBEq34Hdgp_6glossa10morphology7lexicon22is_obligation_particle
FN:2391,_RNvNtNtCsluBEq34Hdgp_6glossa10morphology7lexicon23is_conditional_particle
FN:2541,_RNvNtNtCsluBEq34Hdgp_6glossa10morphology7lexicon24is_delimiter_preposition
FN:2535,_RNvNtNtCsluBEq34Hdgp_6glossa10morphology7lexicon26is_containment_preposition
FN:2206,_RNvNtNtCsluBEq34Hdgp_6glossa10morphology7lexicon6lookup
FN:2211,_RNvNtNtCsluBEq34Hdgp_6glossa10morphology7lexicon7is_verb
FN:2382,_RNCNvNtNtCs4cnvRHYBibt_6glossa10morphology7lexicon19get_binary_operator0B7_
FN:2383,_RNCNvNtNtCs4cnvRHYBibt_6glossa10morphology7lexicon19get_binary_operators_0B7_
FN:2213,_RNCNvNtNtCs4cnvRHYBibt_6glossa10morphology7lexicon7is_verb0B7_
FN:2373,_RNvNtNtCs4cnvRHYBibt_6glossa10morphology7lexicon16is_operator_word
FN:2406,_RNvNtNtCs4cnvRHYBibt_6glossa10morphology7lexicon17is_range_particle
FN:2380,_RNvNtNtCs4cnvRHYBibt_6glossa10morphology7lexicon19get_binary_operator
FN:2487,_RNvNtNtCs4cnvRHYBibt_6glossa10morphology7lexicon21is_consequence_marker
FN:2476,_RNvNtNtCs4cnvRHYBibt_6glossa10morphology7lexicon21is_necessity_particle
FN:2482,_RNvNtNtCs4cnvRHYBibt_6glossa10morphology7lexicon22is_obligation_particle
FN:2211,_RNvNtNtCs4cnvRHYBibt_6glossa10morphology7lexicon7is_verb
FN:119,_RNvMNtNtCs4cnvRHYBibt_6glossa10morphology7lexiconNtB2_12LexiconEntry11to_analysis
FN:2502,_RNvNtNtCs4cnvRHYBibt_6glossa10morphology7lexicon10is_ok_word
FN:2445,_RNvNtNtCs4cnvRHYBibt_6glossa10morphology7lexicon10is_ordinal
FN:2507,_RNvNtNtCs4cnvRHYBibt_6glossa10morphology7lexicon11is_err_word
FN:2356,_RNvNtNtCs4cnvRHYBibt_6glossa10morphology7lexicon11is_negation
FN:2435,_RNvNtNtCs4cnvRHYBibt_6glossa10morphology7lexicon11is_pop_verb
FN:2232,_RNvNtNtCs4cnvRHYBibt_6glossa10morphology7lexicon12is_find_verb
FN:2529,_RNvNtNtCs4cnvRHYBibt_6glossa10morphology7lexicon12is_join_verb
FN:2492,_RNvNtNtCs4cnvRHYBibt_6glossa10morphology7lexicon12is_none_word
FN:2430,_RNvNtNtCs4cnvRHYBibt_6glossa10morphology7lexicon12is_push_verb
FN:2497,_RNvNtNtCs4cnvRHYBibt_6glossa10morphology7lexicon12is_some_word
FN:2411,_RNvNtNtCs4cnvRHYBibt_6glossa10morphology7lexicon13is_break_verb
FN:2227,_RNvNtNtCs4cnvRHYBibt_6glossa10morphology7lexicon13is_print_verb
FN:2523,_RNvNtNtCs4cnvRHYBibt_6glossa10morphology7lexicon13is_split_verb
FN:2268,_RNvNtNtCs4cnvRHYBibt_6glossa10morphology7lexicon13numeral_value
FN:2237,_RNvNtNtCs4cnvRHYBibt_6glossa10morphology7lexicon14is_assert_verb
FN:2242,_RNvNtNtCs4cnvRHYBibt_6glossa10morphology7lexicon14is_equals_verb
FN:2517,_RNvNtNtCs4cnvRHYBibt_6glossa10morphology7lexicon14is_insert_verb
FN:2219,_RNvNtNtCs4cnvRHYBibt_6glossa10morphology7lexicon15is_binding_verb
FN:2396,_RNvNtNtCs4cnvRHYBibt_6glossa10morphology7lexicon15is_else_pattern
FN:2347,_RNvNtNtCs4cnvRHYBibt_6glossa10morphology7lexicon16boolean_operator
FN:2416,_RNvNtNtCs4cnvRHYBibt_6glossa10morphology7lexicon16is_continue_verb
FN:2401,_RNvNtNtCs4cnvRHYBibt_6glossa10morphology7lexicon16is_loop_particle
FN:2463,_RNvNtNtCs4cnvRHYBibt_6glossa10morphology7lexicon16ordinal_to_index
FN:2252,_RNvNtNtCs4cnvRHYBibt_6glossa10morphology7lexicon17is_all_quantifier
FN:2247,_RNvNtNtCs4cnvRHYBibt_6glossa10morphology7lexicon17is_any_quantifier
FN:2421,_RNvNtNtCs4cnvRHYBibt_6glossa10morphology7lexicon17is_match_particle
FN:2257,_RNvNtNtCs4cnvRHYBibt_6glossa10morphology7lexicon17is_mutable_marker
FN:2262,_RNvNtNtCs4cnvRHYBibt_6glossa10morphology7lexicon18is_assignment_verb
FN:2440,_RNvNtNtCs4cnvRHYBibt_6glossa10morphology7lexicon18is_length_property
FN:2361,_RNvNtNtCs4cnvRHYBibt_6glossa10morphology7lexicon19arithmetic_operator
FN:2336,_RNvNtNtCs4cnvRHYBibt_6glossa10morphology7lexicon19comparison_operator
FN:2391,_RNvNtNtCs4cnvRHYBibt_6glossa10morphology7lexicon23is_conditional_particle
FN:2541,_RNvNtNtCs4cnvRHYBibt_6glossa10morphology7lexicon24is_delimiter_preposition
FN:2535,_RNvNtNtCs4cnvRHYBibt_6glossa10morphology7lexicon26is_containment_preposition
FN:2206,_RNvNtNtCs4cnvRHYBibt_6glossa10morphology7lexicon6lookup
FN:2564,_RNvNtNtNtCs4cnvRHYBibt_6glossa10morphology7lexicon5testss_16test_lookup_type
FN:2550,_RNvNtNtNtCs4cnvRHYBibt_6glossa10morphology7lexicon5testss_16test_lookup_verb
FN:2698,_RNvNtNtNtCs4cnvRHYBibt_6glossa10morphology7lexicon5testss_17test_is_join_verb
FN:2571,_RNvNtNtNtCs4cnvRHYBibt_6glossa10morphology7lexicon5testss_18test_is_print_verb
FN:2690,_RNvNtNtNtCs4cnvRHYBibt_6glossa10morphology7lexicon5testss_18test_is_split_verb
FN:2578,_RNvNtNtNtCs4cnvRHYBibt_6glossa10morphology7lexicon5testss_18test_numeral_value
FN:2585,_RNvNtNtNtCs4cnvRHYBibt_6glossa10morphology7lexicon5testss_19test_boolean_lookup
FN:2769,_RNvNtNtNtCs4cnvRHYBibt_6glossa10morphology7lexicon5testss_19test_is_assert_verb
FN:2777,_RNvNtNtNtCs4cnvRHYBibt_6glossa10morphology7lexicon5testss_19test_is_equals_verb
FN:2681,_RNvNtNtNtCs4cnvRHYBibt_6glossa10morphology7lexicon5testss_19test_is_insert_verb
FN:2557,_RNvNtNtNtCs4cnvRHYBibt_6glossa10morphology7lexicon5testss_19test_lookup_binding
FN:2603,_RNvNtNtNtCs4cnvRHYBibt_6glossa10morphology7lexicon5testss_22test_boolean_operators
FN:2644,_RNvNtNtNtCs4cnvRHYBibt_6glossa10morphology7lexicon5testss_23test_meta_lexicon_entry
FN:2651,_RNvNtNtNtCs4cnvRHYBibt_6glossa10morphology7lexicon5testss_23test_non_mutable_marker
FN:2671,_RNvNtNtNtCs4cnvRHYBibt_6glossa10morphology7lexicon5testss_24test_non_assignment_verb
FN:2612,_RNvNtNtNtCs4cnvRHYBibt_6glossa10morphology7lexicon5testss_25test_arithmetic_operators
FN:2594,_RNvNtNtNtCs4cnvRHYBibt_6glossa10morphology7lexicon5testss_25test_comparison_operators
FN:2663,_RNvNtNtNtCs4cnvRHYBibt_6glossa10morphology7lexicon5testss_27test_gignetai_lexicon_entry
FN:2639,_RNvNtNtNtCs4cnvRHYBibt_6glossa10morphology7lexicon5testss_27test_meta_is_mutable_marker
FN:2713,_RNvNtNtNtCs4cnvRHYBibt_6glossa10morphology7lexicon5testss_29test_is_delimiter_preposition
FN:2621,_RNvNtNtNtCs4cnvRHYBibt_6glossa10morphology7lexicon5testss_29test_operator_lexicon_entries
FN:2787,_RNvNtNtNtCs4cnvRHYBibt_6glossa10morphology7lexicon5testss_30test_assert_verb_lexicon_entry
FN:2748,_RNvNtNtNtCs4cnvRHYBibt_6glossa10morphology7lexicon5testss_30test_declined_collection_nouns
FN:2797,_RNvNtNtNtCs4cnvRHYBibt_6glossa10morphology7lexicon5testss_30test_equals_verb_lexicon_entry
FN:2740,_RNvNtNtNtCs4cnvRHYBibt_6glossa10morphology7lexicon5testss_30test_join_verb_lexicon_entries
FN:2706,_RNvNtNtNtCs4cnvRHYBibt_6glossa10morphology7lexicon5testss_31test_is_containment_preposition
FN:2732,_RNvNtNtNtCs4cnvRHYBibt_6glossa10morphology7lexicon5testss_31test_split_verb_lexicon_entries
FN:2657,_RNvNtNtNtCs4cnvRHYBibt_6glossa10morphology7lexicon5testss_32test_gignetai_is_assignment_verb
FN:2721,_RNvNtNtNtCs4cnvRHYBibt_6glossa10morphology7lexicon5testss_32test_insert_verb_lexicon_entries
FN:136,_RNCNvNtNtCs4cnvRHYBibt_6glossa10morphology7lexicon7LEXICON0B7_
FNDA:0,_RNCNvNtNtCsluBEq34Hdgp_6glossa10morphology7lexicon19get_binary_operator0B7_
FNDA:0,_RNCNvNtNtCsluBEq34Hdgp_6glossa10morphology7lexicon19get_binary_operators_0B7_
FNDA:33,_RNCNvNtNtCsluBEq34Hdgp_6glossa10morphology7lexicon7LEXICON0B7_
FNDA:0,_RNCNvNtNtCsluBEq34Hdgp_6glossa10morphology7lexicon7is_verb0B7_
FNDA:2601,_RNvMNtNtCsluBEq34Hdgp_6glossa10morphology7lexiconNtB2_12LexiconEntry11to_analysis
FNDA:299,_RNvNtNtCsluBEq34Hdgp_6glossa10morphology7lexicon10is_ok_word
FNDA:2779,_RNvNtNtCsluBEq34Hdgp_6glossa10morphology7lexicon10is_ordinal
FNDA:274,_RNvNtNtCsluBEq34Hdgp_6glossa10morphology7lexicon11is_err_word
FNDA:0,_RNvNtNtCsluBEq34Hdgp_6glossa10morphology7lexicon11is_negation
FNDA:335,_RNvNtNtCsluBEq34Hdgp_6glossa10morphology7lexicon11is_pop_verb
FNDA:604,_RNvNtNtCsluBEq34Hdgp_6glossa10morphology7lexicon12is_find_verb
FNDA:4281,_RNvNtNtCsluBEq34Hdgp_6glossa10morphology7lexicon12is_join_verb
FNDA:474,_RNvNtNtCsluBEq34Hdgp_6glossa10morphology7lexicon12is_none_word
FNDA:332,_RNvNtNtCsluBEq34Hdgp_6glossa10morphology7lexicon12is_push_verb
FNDA:364,_RNvNtNtCsluBEq34Hdgp_6glossa10morphology7lexicon12is_some_word
FNDA:555,_RNvNtNtCsluBEq34Hdgp_6glossa10morphology7lexicon13is_break_verb
FNDA:2304,_RNvNtNtCsluBEq34Hdgp_6glossa10morphology7lexicon13is_print_verb
FNDA:4283,_RNvNtNtCsluBEq34Hdgp_6glossa10morphology7lexicon13is_split_verb
FNDA:7789,_RNvNtNtCsluBEq34Hdgp_6glossa10morphology7lexicon13numeral_value
FNDA:543,_RNvNtNtCsluBEq34Hdgp_6glossa10morphology7lexicon14is_assert_verb
FNDA:541,_RNvNtNtCsluBEq34Hdgp_6glossa10morphology7lexicon14is_equals_verb
FNDA:329,_RNvNtNtCsluBEq34Hdgp_6glossa10morphology7lexicon14is_insert_verb
FNDA:1726,_RNvNtNtCsluBEq34Hdgp_6glossa10morphology7lexicon15is_binding_verb
FNDA:105,_RNvNtNtCsluBEq34Hdgp_6glossa10morphology7lexicon15is_else_pattern
FNDA:0,_RNvNtNtCsluBEq34Hdgp_6glossa10morphology7lexicon16boolean_operator
FNDA:554,_RNvNtNtCsluBEq34Hdgp_6glossa10morphology7lexicon16is_continue_verb
FNDA:583,_RNvNtNtCsluBEq34Hdgp_6glossa10morphology7lexicon16is_loop_particle
FNDA:0,_RNvNtNtCsluBEq34Hdgp_6glossa10morphology7lexicon16is_operator_word
FNDA:264,_RNvNtNtCsluBEq34Hdgp_6glossa10morphology7lexicon16ordinal_to_index
FNDA:305,_RNvNtNtCsluBEq34Hdgp_6glossa10morphology7lexicon17is_all_quantifier
FNDA:305,_RNvNtNtCsluBEq34Hdgp_6glossa10morphology7lexicon17is_any_quantifier
FNDA:582,_RNvNtNtCsluBEq34Hdgp_6glossa10morphology7lexicon17is_match_particle
FNDA:4299,_RNvNtNtCsluBEq34Hdgp_6glossa10morphology7lexicon17is_mutable_marker
FNDA:2,_RNvNtNtCsluBEq34Hdgp_6glossa10morphology7lexicon17is_range_particle
FNDA:342,_RNvNtNtCsluBEq34Hdgp_6glossa10morphology7lexicon18is_assignment_verb
FNDA:3041,_RNvNtNtCsluBEq34Hdgp_6glossa10morphology7lexicon18is_length_property
FNDA:3977,_RNvNtNtCsluBEq34Hdgp_6glossa10morphology7lexicon19arithmetic_operator
FNDA:4017,_RNvNtNtCsluBEq34Hdgp_6glossa10morphology7lexicon19comparison_operator
FNDA:0,_RNvNtNtCsluBEq34Hdgp_6glossa10morphology7lexicon19get_binary_operator
FNDA:0,_RNvNtNtCsluBEq34Hdgp_6glossa10morphology7lexicon21is_consequence_marker
FNDA:0,_RNvNtNtCsluBEq34Hdgp_6glossa10morphology7lexicon21is_necessity_particle
FNDA:0,_RNvNtNtCsluBEq34Hdgp_6glossa10morphology7lexicon22is_obligation_particle
FNDA:704,_RNvNtNtCsluBEq34Hdgp_6glossa10morphology7lexicon23is_conditional_particle
FNDA:4284,_RNvNtNtCsluBEq34Hdgp_6glossa10morphology7lexicon24is_delimiter_preposition
FNDA:4292,_RNvNtNtCsluBEq34Hdgp_6glossa10morphology7lexicon26is_containment_preposition
FNDA:9691,_RNvNtNtCsluBEq34Hdgp_6glossa10morphology7lexicon6lookup
FNDA:0,_RNvNtNtCsluBEq34Hdgp_6glossa10morphology7lexicon7is_verb
FNDA:0,_RNCNvNtNtCs4cnvRHYBibt_6glossa10morphology7lexicon19get_binary_operator0B7_
FNDA:0,_RNCNvNtNtCs4cnvRHYBibt_6glossa10morphology7lexicon19get_binary_operators_0B7_
FNDA:0,_RNCNvNtNtCs4cnvRHYBibt_6glossa10morphology7lexicon7is_verb0B7_
FNDA:0,_RNvNtNtCs4cnvRHYBibt_6glossa10morphology7lexicon16is_operator_word
FNDA:0,_RNvNtNtCs4cnvRHYBibt_6glossa10morphology7lexicon17is_range_particle
FNDA:0,_RNvNtNtCs4cnvRHYBibt_6glossa10morphology7lexicon19get_binary_operator
FNDA:0,_RNvNtNtCs4cnvRHYBibt_6glossa10morphology7lexicon21is_consequence_marker
FNDA:0,_RNvNtNtCs4cnvRHYBibt_6glossa10morphology7lexicon21is_necessity_particle
FNDA:0,_RNvNtNtCs4cnvRHYBibt_6glossa10morphology7lexicon22is_obligation_particle
FNDA:0,_RNvNtNtCs4cnvRHYBibt_6glossa10morphology7lexicon7is_verb
FNDA:2802,_RNvMNtNtCs4cnvRHYBibt_6glossa10morphology7lexiconNtB2_12LexiconEntry11to_analysis
FNDA:2709,_RNvNtNtCs4cnvRHYBibt_6glossa10morphology7lexicon10is_ok_word
FNDA:7173,_RNvNtNtCs4cnvRHYBibt_6glossa10morphology7lexicon10is_ordinal
FNDA:2707,_RNvNtNtCs4cnvRHYBibt_6glossa10morphology7lexicon11is_err_word
FNDA:3,_RNvNtNtCs4cnvRHYBibt_6glossa10morphology7lexicon11is_negation
FNDA:37,_RNvNtNtCs4cnvRHYBibt_6glossa10morphology7lexicon11is_pop_verb
FNDA:1402,_RNvNtNtCs4cnvRHYBibt_6glossa10morphology7lexicon12is_find_verb
FNDA:10586,_RNvNtNtCs4cnvRHYBibt_6glossa10morphology7lexicon12is_join_verb
FNDA:2740,_RNvNtNtCs4cnvRHYBibt_6glossa10morphology7lexicon12is_none_word
FNDA:36,_RNvNtNtCs4cnvRHYBibt_6glossa10morphology7lexicon12is_push_verb
FNDA:2712,_RNvNtNtCs4cnvRHYBibt_6glossa10morphology7lexicon12is_some_word
FNDA:1358,_RNvNtNtCs4cnvRHYBibt_6glossa10morphology7lexicon13is_break_verb
FNDA:4261,_RNvNtNtCs4cnvRHYBibt_6glossa10morphology7lexicon13is_print_verb
FNDA:10589,_RNvNtNtCs4cnvRHYBibt_6glossa10morphology7lexicon13is_split_verb
FNDA:13461,_RNvNtNtCs4cnvRHYBibt_6glossa10morphology7lexicon13numeral_value
FNDA:1401,_RNvNtNtCs4cnvRHYBibt_6glossa10morphology7lexicon14is_assert_verb
FNDA:1403,_RNvNtNtCs4cnvRHYBibt_6glossa10morphology7lexicon14is_equals_verb
FNDA:38,_RNvNtNtCs4cnvRHYBibt_6glossa10morphology7lexicon14is_insert_verb
FNDA:4193,_RNvNtNtCs4cnvRHYBibt_6glossa10morphology7lexicon15is_binding_verb
FNDA:0,_RNvNtNtCs4cnvRHYBibt_6glossa10morphology7lexicon15is_else_pattern
FNDA:2,_RNvNtNtCs4cnvRHYBibt_6glossa10morphology7lexicon16boolean_operator
FNDA:1358,_RNvNtNtCs4cnvRHYBibt_6glossa10morphology7lexicon16is_continue_verb
FNDA:1358,_RNvNtNtCs4cnvRHYBibt_6glossa10morphology7lexicon16is_loop_particle
FNDA:258,_RNvNtNtCs4cnvRHYBibt_6glossa10morphology7lexicon16ordinal_to_index
FNDA:21,_RNvNtNtCs4cnvRHYBibt_6glossa10morphology7lexicon17is_all_quantifier
FNDA:21,_RNvNtNtCs4cnvRHYBibt_6glossa10morphology7lexicon17is_any_quantifier
FNDA:1358,_RNvNtNtCs4cnvRHYBibt_6glossa10morphology7lexicon17is_match_particle
FNDA:10599,_RNvNtNtCs4cnvRHYBibt_6glossa10morphology7lexicon17is_mutable_marker
FNDA:44,_RNvNtNtCs4cnvRHYBibt_6glossa10morphology7lexicon18is_assignment_verb
FNDA:7943,_RNvNtNtCs4cnvRHYBibt_6glossa10morphology7lexicon18is_length_property
FNDA:9554,_RNvNtNtCs4cnvRHYBibt_6glossa10morphology7lexicon19arithmetic_operator
FNDA:9812,_RNvNtNtCs4cnvRHYBibt_6glossa10morphology7lexicon19comparison_operator
FNDA:1359,_RNvNtNtCs4cnvRHYBibt_6glossa10morphology7lexicon23is_conditional_particle
FNDA:10594,_RNvNtNtCs4cnvRHYBibt_6glossa10morphology7lexicon24is_delimiter_preposition
FNDA:10596,_RNvNtNtCs4cnvRHYBibt_6glossa10morphology7lexicon26is_containment_preposition
FNDA:8445,_RNvNtNtCs4cnvRHYBibt_6glossa10morphology7lexicon6lookup
FNDA:1,_RNvNtNtNtCs4cnvRHYBibt_6glossa10morphology7lexicon5testss_16test_lookup_type
FNDA:1,_RNvNtNtNtCs4cnvRHYBibt_6glossa10morphology7lexicon5testss_16test_lookup_verb
FNDA:1,_RNvNtNtNtCs4cnvRHYBibt_6glossa10morphology7lexicon5testss_17test_is_join_verb
FNDA:1,_RNvNtNtNtCs4cnvRHYBibt_6glossa10morphology7lexicon5testss_18test_is_print_verb
FNDA:1,_RNvNtNtNtCs4cnvRHYBibt_6glossa10morphology7lexicon5testss_18test_is_split_verb
FNDA:1,_RNvNtNtNtCs4cnvRHYBibt_6glossa10morphology7lexicon5testss_18test_numeral_value
FNDA:1,_RNvNtNtNtCs4cnvRHYBibt_6glossa10morphology7lexicon5testss_19test_boolean_lookup
FNDA:1,_RNvNtNtNtCs4cnvRHYBibt_6glossa10morphology7lexicon5testss_19test_is_assert_verb
FNDA:1,_RNvNtNtNtCs4cnvRHYBibt_6glossa10morphology7lexicon5testss_19test_is_equals_verb
FNDA:1,_RNvNtNtNtCs4cnvRHYBibt_6glossa10morphology7lexicon5testss_19test_is_insert_verb
FNDA:1,_RNvNtNtNtCs4cnvRHYBibt_6glossa10morphology7lexicon5testss_19test_lookup_binding
FNDA:1,_RNvNtNtNtCs4cnvRHYBibt_6glossa10morphology7lexicon5testss_22test_boolean_operators
FNDA:1,_RNvNtNtNtCs4cnvRHYBibt_6glossa10morphology7lexicon5testss_23test_meta_lexicon_entry
FNDA:1,_RNvNtNtNtCs4cnvRHYBibt_6glossa10morphology7lexicon5testss_23test_non_mutable_marker
FNDA:1,_RNvNtNtNtCs4cnvRHYBibt_6glossa10morphology7lexicon5testss_24test_non_assignment_verb
FNDA:1,_RNvNtNtNtCs4cnvRHYBibt_6glossa10morphology7lexicon5testss_25test_arithmetic_operators
FNDA:1,_RNvNtNtNtCs4cnvRHYBibt_6glossa10morphology7lexicon5testss_25test_comparison_operators
FNDA:1,_RNvNtNtNtCs4cnvRHYBibt_6glossa10morphology7lexicon5testss_27test_gignetai_lexicon_entry
FNDA:1,_RNvNtNtNtCs4cnvRHYBibt_6glossa10morphology7lexicon5testss_27test_meta_is_mutable_marker
FNDA:1,_RNvNtNtNtCs4cnvRHYBibt_6glossa10morphology7lexicon5testss_29test_is_delimiter_preposition
FNDA:1,_RNvNtNtNtCs4cnvRHYBibt_6glossa10morphology7lexicon5testss_29test_operator_lexicon_entries
FNDA:1,_RNvNtNtNtCs4cnvRHYBibt_6glossa10morphology7lexicon5testss_30test_assert_verb_lexicon_entry
FNDA:1,_RNvNtNtNtCs4cnvRHYBibt_6glossa10morphology7lexicon5testss_30test_declined_collection_nouns
FNDA:1,_RNvNtNtNtCs4cnvRHYBibt_6glossa10morphology7lexicon5testss_30test_equals_verb_lexicon_entry
FNDA:1,_RNvNtNtNtCs4cnvRHYBibt_6glossa10morphology7lexicon5testss_30test_join_verb_lexicon_entries
FNDA:1,_RNvNtNtNtCs4cnvRHYBibt_6glossa10morphology7lexicon5testss_31test_is_containment_preposition
FNDA:1,_RNvNtNtNtCs4cnvRHYBibt_6glossa10morphology7lexicon5testss_31test_split_verb_lexicon_entries
FNDA:1,_RNvNtNtNtCs4cnvRHYBibt_6glossa10morphology7lexicon5testss_32test_gignetai_is_assignment_verb
FNDA:1,_RNvNtNtNtCs4cnvRHYBibt_6glossa10morphology7lexicon5testss_32test_insert_verb_lexicon_entries
FNDA:1,_RNCNvNtNtCs4cnvRHYBibt_6glossa10morphology7lexicon7LEXICON0B7_
FNF:76
FNH:67
DA:119,5403
DA:120,5403
DA:121,5403
DA:122,5403
DA:123,5403
DA:124,5403
DA:125,5403
DA:126,5403
DA:127,5403
DA:128,5403
DA:129,5403
DA:130,5403
DA:131,5403
DA:132,5403
DA:136,34
DA:137,34
DA:144,34
DA:146,34
DA:147,34
DA:148,34
DA:149,34
DA:150,34
DA:151,34
DA:152,34
DA:153,34
DA:154,34
DA:155,34
DA:156,34
DA:157,34
DA:158,34
DA:161,34
DA:162,34
DA:163,34
DA:164,34
DA:165,34
DA:166,34
DA:167,34
DA:168,34
DA:169,34
DA:170,34
DA:171,34
DA:172,34
DA:173,34
DA:174,34
DA:175,34
DA:179,34
DA:180,34
DA:181,34
DA:182,34
DA:183,34
DA:184,34
DA:185,34
DA:186,34
DA:187,34
DA:188,34
DA:189,34
DA:190,34
DA:191,34
DA:192,34
DA:193,34
DA:197,34
DA:198,34
DA:199,34
DA:200,34
DA:201,34
DA:202,34
DA:203,34
DA:204,34
DA:205,34
DA:206,34
DA:207,34
DA:208,34
DA:209,34
DA:210,34
DA:211,34
DA:215,34
DA:216,34
DA:217,34
DA:218,34
DA:219,34
DA:220,34
DA:221,34
DA:222,34
DA:223,34
DA:224,34
DA:225,34
DA:226,34
DA:227,34
DA:228,34
DA:229,34
DA:233,34
DA:234,34
DA:235,34
DA:236,34
DA:237,34
DA:238,34
DA:239,34
DA:240,34
DA:241,34
DA:242,34
DA:243,34
DA:244,34
DA:245,34
DA:246,34
DA:247,34
DA:251,34
DA:252,34
DA:253,34
DA:254,34
DA:255,34
DA:256,34
DA:257,34
DA:258,34
DA:259,34
DA:260,34
DA:261,34
DA:262,34
DA:263,34
DA:264,34
DA:265,34
DA:269,34
DA:270,34
DA:271,34
DA:272,34
DA:273,34
DA:274,34
DA:275,34
DA:276,34
DA:277,34
DA:278,34
DA:279,34
DA:280,34
DA:281,34
DA:282,34
DA:283,34
DA:286,34
DA:287,34
DA:288,34
DA:289,34
DA:290,34
DA:291,34
DA:292,34
DA:293,34
DA:294,34
DA:295,34
DA:296,34
DA:297,34
DA:298,34
DA:299,34
DA:300,34
DA:304,34
DA:305,34
DA:306,34
DA:307,34
DA:308,34
DA:309,34
DA:310,34
DA:311,34
DA:312,34
DA:313,34
DA:314,34
DA:315,34
DA:316,34
DA:317,34
DA:318,34
DA:322,34
DA:323,34
DA:324,34
DA:325,34
DA:326,34
DA:327,34
DA:328,34
DA:329,34
DA:330,34
DA:331,34
DA:332,34
DA:333,34
DA:334,34
DA:335,34
DA:336,34
DA:340,34
DA:341,34
DA:342,34
DA:343,34
DA:344,34
DA:345,34
DA:346,34
DA:347,34
DA:348,34
DA:349,34
DA:350,34
DA:351,34
DA:352,34
DA:353,34
DA:354,34
DA:362,34
DA:363,34
DA:364,34
DA:365,34
DA:366,34
DA:367,34
DA:368,34
DA:369,34
DA:370,34
DA:371,34
DA:372,34
DA:373,34
DA:374,34
DA:375,34
DA:376,34
DA:380,34
DA:381,34
DA:382,34
DA:383,34
DA:384,34
DA:385,34
DA:386,34
DA:387,34
DA:388,34
DA:389,34
DA:390,34
DA:391,34
DA:392,34
DA:393,34
DA:394,34
DA:398,34
DA:399,34
DA:400,34
DA:401,34
DA:402,34
DA:403,34
DA:404,34
DA:405,34
DA:406,34
DA:407,34
DA:408,34
DA:409,34
DA:410,34
DA:411,34
DA:412,34
DA:416,34
DA:417,34
DA:418,34
DA:419,34
DA:420,34
DA:421,34
DA:422,34
DA:423,34
DA:424,34
DA:425,34
DA:426,34
DA:427,34
DA:428,34
DA:429,34
DA:430,34
DA:433,34
DA:434,34
DA:435,34
DA:436,34
DA:437,34
DA:438,34
DA:439,34
DA:440,34
DA:441,34
DA:442,34
DA:443,34
DA:444,34
DA:445,34
DA:446,34
DA:447,34
DA:451,34
DA:452,34
DA:453,34
DA:454,34
DA:455,34
DA:456,34
DA:457,34
DA:458,34
DA:459,34
DA:460,34
DA:461,34
DA:462,34
DA:463,34
DA:464,34
DA:465,34
DA:469,34
DA:470,34
DA:471,34
DA:472,34
DA:473,34
DA:474,34
DA:475,34
DA:476,34
DA:477,34
DA:478,34
DA:479,34
DA:480,34
DA:481,34
DA:482,34
DA:483,34
DA:487,34
DA:488,34
DA:489,34
DA:490,34
DA:491,34
DA:492,34
DA:493,34
DA:494,34
DA:495,34
DA:496,34
DA:497,34
DA:498,34
DA:499,34
DA:500,34
DA:501,34
DA:505,34
DA:506,34
DA:507,34
DA:508,34
DA:509,34
DA:510,34
DA:511,34
DA:512,34
DA:513,34
DA:514,34
DA:515,34
DA:516,34
DA:517,34
DA:518,34
DA:519,34
DA:523,34
DA:524,34
DA:525,34
DA:526,34
DA:527,34
DA:528,34
DA:529,34
DA:530,34
DA:531,34
DA:532,34
DA:533,34
DA:534,34
DA:535,34
DA:536,34
DA:537,34
DA:541,34
DA:542,34
DA:543,34
DA:544,34
DA:545,34
DA:546,34
DA:547,34
DA:548,34
DA:549,34
DA:550,34
DA:551,34
DA:552,34
DA:553,34
DA:554,34
DA:555,34
DA:559,34
DA:560,34
DA:561,34
DA:562,34
DA:563,34
DA:564,34
DA:565,34
DA:566,34
DA:567,34
DA:568,34
DA:569,34
DA:570,34
DA:571,34
DA:572,34
DA:573,34
DA:577,34
DA:578,34
DA:579,34
DA:580,34
DA:581,34
DA:582,34
DA:583,34
DA:584,34
DA:585,34
DA:586,34
DA:587,34
DA:588,34
DA:589,34
DA:590,34
DA:591,34
DA:595,34
DA:596,34
DA:597,34
DA:598,34
DA:599,34
DA:600,34
DA:601,34
DA:602,34
DA:603,34
DA:604,34
DA:605,34
DA:606,34
DA:607,34
DA:608,34
DA:609,34
DA:617,34
DA:618,34
DA:619,34
DA:620,34
DA:621,34
DA:622,34
DA:623,34
DA:624,34
DA:625,34
DA:626,34
DA:627,34
DA:628,34
DA:629,34
DA:630,34
DA:631,34
DA:635,34
DA:636,34
DA:637,34
DA:638,34
DA:639,34
DA:640,34
DA:641,34
DA:642,34
DA:643,34
DA:644,34
DA:645,34
DA:646,34
DA:647,34
DA:648,34
DA:649,34
DA:653,34
DA:654,34
DA:655,34
DA:656,34
DA:657,34
DA:658,34
DA:659,34
DA:660,34
DA:661,34
DA:662,34
DA:663,34
DA:664,34
DA:665,34
DA:666,34
DA:667,34
DA:671,34
DA:672,34
DA:673,34
DA:674,34
DA:675,34
DA:676,34
DA:677,34
DA:678,34
DA:679,34
DA:680,34
DA:681,34
DA:682,34
DA:683,34
DA:684,34
DA:685,34
DA:693,34
DA:694,34
DA:695,34
DA:696,34
DA:697,34
DA:698,34
DA:699,34
DA:700,34
DA:701,34
DA:702,34
DA:703,34
DA:704,34
DA:705,34
DA:706,34
DA:707,34
DA:710,34
DA:711,34
DA:712,34
DA:713,34
DA:714,34
DA:715,34
DA:716,34
DA:717,34
DA:718,34
DA:719,34
DA:720,34
DA:721,34
DA:722,34
DA:723,34
DA:724,34
DA:728,34
DA:729,34
DA:730,34
DA:731,34
DA:732,34
DA:733,34
DA:734,34
DA:735,34
DA:736,34
DA:737,34
DA:738,34
DA:739,34
DA:740,34
DA:741,34
DA:742,34
DA:745,34
DA:746,34
DA:747,34
DA:748,34
DA:749,34
DA:750,34
DA:751,34
DA:752,34
DA:753,34
DA:754,34
DA:755,34
DA:756,34
DA:757,34
DA:758,34
DA:759,34
DA:763,34
DA:764,34
DA:765,34
DA:766,34
DA:767,34
DA:768,34
DA:769,34
DA:770,34
DA:771,34
DA:772,34
DA:773,34
DA:774,34
DA:775,34
DA:776,34
DA:777,34
DA:781,34
DA:782,34
DA:783,34
DA:784,34
DA:785,34
DA:786,34
DA:787,34
DA:788,34
DA:789,34
DA:790,34
DA:791,34
DA:792,34
DA:793,34
DA:794,34
DA:795,34
DA:799,34
DA:800,34
DA:801,34
DA:802,34
DA:803,34
DA:804,34
DA:805,34
DA:806,34
DA:807,34
DA:808,34
DA:809,34
DA:810,34
DA:811,34
DA:812,34
DA:813,34
DA:821,34
DA:822,34
DA:823,34
DA:824,34
DA:825,34
DA:826,34
DA:827,34
DA:828,34
DA:829,34
DA:830,34
DA:831,34
DA:832,34
DA:833,34
DA:834,34
DA:835,34
DA:838,34
DA:839,34
DA:840,34
DA:841,34
DA:842,34
DA:843,34
DA:844,34
DA:845,34
DA:846,34
DA:847,34
DA:848,34
DA:849,34
DA:850,34
DA:851,34
DA:852,34
DA:855,34
DA:856,34
DA:857,34
DA:858,34
DA:859,34
DA:860,34
DA:861,34
DA:862,34
DA:863,34
DA:864,34
DA:865,34
DA:866,34
DA:867,34
DA:868,34
DA:869,34
DA:873,34
DA:874,34
DA:875,34
DA:876,34
DA:877,34
DA:878,34
DA:879,34
DA:880,34
DA:881,34
DA:882,34
DA:883,34
DA:884,34
DA:885,34
DA:886,34
DA:887,34
DA:890,34
DA:891,34
DA:892,34
DA:893,34
DA:894,34
DA:895,34
DA:896,34
DA:897,34
DA:898,34
DA:899,34
DA:900,34
DA:901,34
DA:902,34
DA:903,34
DA:904,34
DA:907,34
DA:908,34
DA:909,34
DA:910,34
DA:911,34
DA:912,34
DA:913,34
DA:914,34
DA:915,34
DA:916,34
DA:917,34
DA:918,34
DA:919,34
DA:920,34
DA:921,34
DA:925,34
DA:926,34
DA:927,34
DA:928,34
DA:929,34
DA:930,34
DA:931,34
DA:932,34
DA:933,34
DA:934,34
DA:935,34
DA:936,34
DA:937,34
DA:938,34
DA:939,34
DA:942,34
DA:943,34
DA:944,34
DA:945,34
DA:946,34
DA:947,34
DA:948,34
DA:949,34
DA:950,34
DA:951,34
DA:952,34
DA:953,34
DA:954,34
DA:955,34
DA:956,34
DA:959,34
DA:960,34
DA:961,34
DA:962,34
DA:963,34
DA:964,34
DA:965,34
DA:966,34
DA:967,34
DA:968,34
DA:969,34
DA:970,34
DA:971,34
DA:972,34
DA:973,34
DA:981,34
DA:982,34
DA:983,34
DA:984,34
DA:985,34
DA:986,34
DA:987,34
DA:988,34
DA:989,34
DA:990,34
DA:991,34
DA:992,34
DA:993,34
DA:994,34
DA:995,34
DA:998,34
DA:999,34
DA:1000,34
DA:1001,34
DA:1002,34
DA:1003,34
DA:1004,34
DA:1005,34
DA:1006,34
DA:1007,34
DA:1008,34
DA:1009,34
DA:1010,34
DA:1011,34
DA:1012,34
DA:1016,34
DA:1017,34
DA:1018,34
DA:1019,34
DA:1020,34
DA:1021,34
DA:1022,34
DA:1023,34
DA:1024,34
DA:1025,34
DA:1026,34
DA:1027,34
DA:1028,34
DA:1029,34
DA:1030,34
DA:1033,34
DA:1034,34
DA:1035,34
DA:1036,34
DA:1037,34
DA:1038,34
DA:1039,34
DA:1040,34
DA:1041,34
DA:1042,34
DA:1043,34
DA:1044,34
DA:1045,34
DA:1046,34
DA:1047,34
DA:1051,34
DA:1052,34
DA:1053,34
DA:1054,34
DA:1055,34
DA:1056,34
DA:1057,34
DA:1058,34
DA:1059,34
DA:1060,34
DA:1061,34
DA:1062,34
DA:1063,34
DA:1064,34
DA:1065,34
DA:1068,34
DA:1069,34
DA:1070,34
DA:1071,34
DA:1072,34
DA:1073,34
DA:1074,34
DA:1075,34
DA:1076,34
DA:1077,34
DA:1078,34
DA:1079,34
DA:1080,34
DA:1081,34
DA:1082,34
DA:1085,34
DA:1086,34
DA:1087,34
DA:1088,34
DA:1089,34
DA:1090,34
DA:1091,34
DA:1092,34
DA:1093,34
DA:1094,34
DA:1095,34
DA:1096,34
DA:1097,34
DA:1098,34
DA:1099,34
DA:1107,34
DA:1108,34
DA:1109,34
DA:1110,34
DA:1111,34
DA:1112,34
DA:1113,34
DA:1114,34
DA:1115,34
DA:1116,34
DA:1117,34
DA:1118,34
DA:1119,34
DA:1120,34
DA:1121,34
DA:1124,34
DA:1125,34
DA:1126,34
DA:1127,34
DA:1128,34
DA:1129,34
DA:1130,34
DA:1131,34
DA:1132,34
DA:1133,34
DA:1134,34
DA:1135,34
DA:1136,34
DA:1137,34
DA:1138,34
DA:1142,34
DA:1143,34
DA:1144,34
DA:1145,34
DA:1146,34
DA:1147,34
DA:1148,34
DA:1149,34
DA:1150,34
DA:1151,34
DA:1152,34
DA:1153,34
DA:1154,34
DA:1155,34
DA:1156,34
DA:1159,34
DA:1160,34
DA:1161,34
DA:1162,34
DA:1163,34
DA:1164,34
DA:1165,34
DA:1166,34
DA:1167,34
DA:1168,34
DA:1169,34
DA:1170,34
DA:1171,34
DA:1172,34
DA:1173,34
DA:1177,34
DA:1178,34
DA:1179,34
DA:1180,34
DA:1181,34
DA:1182,34
DA:1183,34
DA:1184,34
DA:1185,34
DA:1186,34
DA:1187,34
DA:1188,34
DA:1189,34
DA:1190,34
DA:1191,34
DA:1194,34
DA:1195,34
DA:1196,34
DA:1197,34
DA:1198,34
DA:1199,34
DA:1200,34
DA:1201,34
DA:1202,34
DA:1203,34
DA:1204,34
DA:1205,34
DA:1206,34
DA:1207,34
DA:1208,34
DA:1212,34
DA:1213,34
DA:1214,34
DA:1215,34
DA:1216,34
DA:1217,34
DA:1218,34
DA:1219,34
DA:1220,34
DA:1221,34
DA:1222,34
DA:1223,34
DA:1224,34
DA:1225,34
DA:1226,34
DA:1230,34
DA:1231,34
DA:1232,34
DA:1233,34
DA:1234,34
DA:1235,34
DA:1236,34
DA:1237,34
DA:1238,34
DA:1239,34
DA:1240,34
DA:1241,34
DA:1242,34
DA:1243,34
DA:1244,34
DA:1248,34
DA:1249,34
DA:1250,34
DA:1251,34
DA:1252,34
DA:1253,34
DA:1254,34
DA:1255,34
DA:1256,34
DA:1257,34
DA:1258,34
DA:1259,34
DA:1260,34
DA:1261,34
DA:1262,34
DA:1265,34
DA:1266,34
DA:1267,34
DA:1268,34
DA:1269,34
DA:1270,34
DA:1271,34
DA:1272,34
DA:1273,34
DA:1274,34
DA:1275,34
DA:1276,34
DA:1277,34
DA:1278,34
DA:1279,34
DA:1283,34
DA:1284,34
DA:1285,34
DA:1286,34
DA:1287,34
DA:1288,34
DA:1289,34
DA:1290,34
DA:1291,34
DA:1292,34
DA:1293,34
DA:1294,34
DA:1295,34
DA:1296,34
DA:1297,34
DA:1301,34
DA:1302,34
DA:1303,34
DA:1304,34
DA:1305,34
DA:1306,34
DA:1307,34
DA:1308,34
DA:1309,34
DA:1310,34
DA:1311,34
DA:1312,34
DA:1313,34
DA:1314,34
DA:1315,34
DA:1319,34
DA:1320,34
DA:1321,34
DA:1322,34
DA:1323,34
DA:1324,34
DA:1325,34
DA:1326,34
DA:1327,34
DA:1328,34
DA:1329,34
DA:1330,34
DA:1331,34
DA:1332,34
DA:1333,34
DA:1337,34
DA:1338,34
DA:1339,34
DA:1340,34
DA:1341,34
DA:1342,34
DA:1343,34
DA:1344,34
DA:1345,34
DA:1346,34
DA:1347,34
DA:1348,34
DA:1349,34
DA:1350,34
DA:1351,34
DA:1355,34
DA:1356,34
DA:1357,34
DA:1358,34
DA:1359,34
DA:1360,34
DA:1361,34
DA:1362,34
DA:1363,34
DA:1364,34
DA:1365,34
DA:1366,34
DA:1367,34
DA:1368,34
DA:1369,34
DA:1373,34
DA:1374,34
DA:1375,34
DA:1376,34
DA:1377,34
DA:1378,34
DA:1379,34
DA:1380,34
DA:1381,34
DA:1382,34
DA:1383,34
DA:1384,34
DA:1385,34
DA:1386,34
DA:1387,34
DA:1390,34
DA:1391,34
DA:1392,34
DA:1393,34
DA:1394,34
DA:1395,34
DA:1396,34
DA:1397,34
DA:1398,34
DA:1399,34
DA:1400,34
DA:1401,34
DA:1402,34
DA:1403,34
DA:1404,34
DA:1408,34
DA:1409,34
DA:1410,34
DA:1411,34
DA:1412,34
DA:1413,34
DA:1414,34
DA:1415,34
DA:1416,34
DA:1417,34
DA:1418,34
DA:1419,34
DA:1420,34
DA:1421,34
DA:1422,34
DA:1426,34
DA:1427,34
DA:1428,34
DA:1429,34
DA:1430,34
DA:1431,34
DA:1432,34
DA:1433,34
DA:1434,34
DA:1435,34
DA:1436,34
DA:1437,34
DA:1438,34
DA:1439,34
DA:1440,34
DA:1444,34
DA:1445,34
DA:1446,34
DA:1447,34
DA:1448,34
DA:1449,34
DA:1450,34
DA:1451,34
DA:1452,34
DA:1453,34
DA:1454,34
DA:1455,34
DA:1456,34
DA:1457,34
DA:1458,34
DA:1462,34
DA:1463,34
DA:1464,34
DA:1465,34
DA:1466,34
DA:1467,34
DA:1468,34
DA:1469,34
DA:1470,34
DA:1471,34
DA:1472,34
DA:1473,34
DA:1474,34
DA:1475,34
DA:1476,34
DA:1480,34
DA:1481,34
DA:1482,34
DA:1483,34
DA:1484,34
DA:1485,34
DA:1486,34
DA:1487,34
DA:1488,34
DA:1489,34
DA:1490,34
DA:1491,34
DA:1492,34
DA:1493,34
DA:1494,34
DA:1498,34
DA:1499,34
DA:1500,34
DA:1501,34
DA:1502,34
DA:1503,34
DA:1504,34
DA:1505,34
DA:1506,34
DA:1507,34
DA:1508,34
DA:1509,34
DA:1510,34
DA:1511,34
DA:1512,34
DA:1516,34
DA:1517,34
DA:1518,34
DA:1519,34
DA:1520,34
DA:1521,34
DA:1522,34
DA:1523,34
DA:1524,34
DA:1525,34
DA:1526,34
DA:1527,34
DA:1528,34
DA:1529,34
DA:1530,34
DA:1541,34
DA:1542,34
DA:1543,34
DA:1544,34
DA:1545,34
DA:1546,34
DA:1547,34
DA:1548,34
DA:1549,34
DA:1550,34
DA:1551,34
DA:1552,34
DA:1553,34
DA:1554,34
DA:1555,34
DA:1559,34
DA:1560,34
DA:1561,34
DA:1562,34
DA:1563,34
DA:1564,34
DA:1565,34
DA:1566,34
DA:1567,34
DA:1568,34
DA:1569,34
DA:1570,34
DA:1571,34
DA:1572,34
DA:1573,34
DA:1581,34
DA:1582,34
DA:1583,34
DA:1584,34
DA:1585,34
DA:1586,34
DA:1587,34
DA:1588,34
DA:1589,34
DA:1590,34
DA:1591,34
DA:1592,34
DA:1593,34
DA:1594,34
DA:1595,34
DA:1598,34
DA:1599,34
DA:1600,34
DA:1601,34
DA:1602,34
DA:1603,34
DA:1604,34
DA:1605,34
DA:1606,34
DA:1607,34
DA:1608,34
DA:1609,34
DA:1610,34
DA:1611,34
DA:1612,34
DA:1620,34
DA:1621,34
DA:1622,34
DA:1623,34
DA:1624,34
DA:1625,34
DA:1626,34
DA:1627,34
DA:1628,34
DA:1629,34
DA:1630,34
DA:1631,34
DA:1632,34
DA:1633,34
DA:1634,34
DA:1638,34
DA:1639,34
DA:1640,34
DA:1641,34
DA:1642,34
DA:1643,34
DA:1644,34
DA:1645,34
DA:1646,34
DA:1647,34
DA:1648,34
DA:1649,34
DA:1650,34
DA:1651,34
DA:1652,34
DA:1656,34
DA:1657,34
DA:1658,34
DA:1659,34
DA:1660,34
DA:1661,34
DA:1662,34
DA:1663,34
DA:1664,34
DA:1665,34
DA:1666,34
DA:1667,34
DA:1668,34
DA:1669,34
DA:1670,34
DA:1674,34
DA:1675,34
DA:1676,34
DA:1677,34
DA:1678,34
DA:1679,34
DA:1680,34
DA:1681,34
DA:1682,34
DA:1683,34
DA:1684,34
DA:1685,34
DA:1686,34
DA:1687,34
DA:1688,34
DA:1692,34
DA:1693,34
DA:1694,34
DA:1695,34
DA:1696,34
DA:1697,34
DA:1698,34
DA:1699,34
DA:1700,34
DA:1701,34
DA:1702,34
DA:1703,34
DA:1704,34
DA:1705,34
DA:1706,34
DA:1713,34
DA:1714,34
DA:1715,34
DA:1716,34
DA:1717,34
DA:1718,34
DA:1719,34
DA:1720,34
DA:1721,34
DA:1722,34
DA:1723,34
DA:1724,34
DA:1725,34
DA:1726,34
DA:1727,34
DA:1730,34
DA:1731,34
DA:1732,34
DA:1733,34
DA:1734,34
DA:1735,34
DA:1736,34
DA:1737,34
DA:1738,34
DA:1739,34
DA:1740,34
DA:1741,34
DA:1742,34
DA:1743,34
DA:1744,34
DA:1753,34
DA:1754,34
DA:1755,34
DA:1756,34
DA:1757,34
DA:1758,34
DA:1759,34
DA:1760,34
DA:1761,34
DA:1762,34
DA:1763,34
DA:1764,34
DA:1765,34
DA:1766,34
DA:1767,34
DA:1772,34
DA:1773,34
DA:1774,34
DA:1775,34
DA:1776,34
DA:1777,34
DA:1778,34
DA:1779,34
DA:1780,34
DA:1781,34
DA:1782,34
DA:1783,34
DA:1784,34
DA:1785,34
DA:1786,34
DA:1791,34
DA:1792,34
DA:1793,34
DA:1794,34
DA:1795,34
DA:1796,34
DA:1797,34
DA:1798,34
DA:1799,34
DA:1800,34
DA:1801,34
DA:1802,34
DA:1803,34
DA:1804,34
DA:1805,34
DA:1810,34
DA:1811,34
DA:1812,34
DA:1813,34
DA:1814,34
DA:1815,34
DA:1816,34
DA:1817,34
DA:1818,34
DA:1819,34
DA:1820,34
DA:1821,34
DA:1822,34
DA:1823,34
DA:1824,34
DA:1832,34
DA:1833,34
DA:1834,34
DA:1835,34
DA:1836,34
DA:1837,34
DA:1838,34
DA:1839,34
DA:1840,34
DA:1841,34
DA:1842,34
DA:1843,34
DA:1844,34
DA:1845,34
DA:1846,34
DA:1850,34
DA:1851,34
DA:1852,34
DA:1853,34
DA:1854,34
DA:1855,34
DA:1856,34
DA:1857,34
DA:1858,34
DA:1859,34
DA:1860,34
DA:1861,34
DA:1862,34
DA:1863,34
DA:1864,34
DA:1868,34
DA:1869,34
DA:1870,34
DA:1871,34
DA:1872,34
DA:1873,34
DA:1874,34
DA:1875,34
DA:1876,34
DA:1877,34
DA:1878,34
DA:1879,34
DA:1880,34
DA:1881,34
DA:1882,34
DA:1890,34
DA:1891,34
DA:1892,34
DA:1893,34
DA:1894,34
DA:1895,34
DA:1896,34
DA:1897,34
DA:1898,34
DA:1899,34
DA:1900,34
DA:1901,34
DA:1902,34
DA:1903,34
DA:1904,34
DA:1912,34
DA:1913,34
DA:1914,34
DA:1915,34
DA:1916,34
DA:1917,34
DA:1918,34
DA:1919,34
DA:1920,34
DA:1921,34
DA:1922,34
DA:1923,34
DA:1924,34
DA:1925,34
DA:1926,34
DA:1930,34
DA:1931,34
DA:1932,34
DA:1933,34
DA:1934,34
DA:1935,34
DA:1936,34
DA:1937,34
DA:1938,34
DA:1939,34
DA:1940,34
DA:1941,34
DA:1942,34
DA:1943,34
DA:1944,34
DA:1948,34
DA:1949,34
DA:1950,34
DA:1951,34
DA:1952,34
DA:1953,34
DA:1954,34
DA:1955,34
DA:1956,34
DA:1957,34
DA:1958,34
DA:1959,34
DA:1960,34
DA:1961,34
DA:1962,34
DA:1966,34
DA:1967,34
DA:1968,34
DA:1969,34
DA:1970,34
DA:1971,34
DA:1972,34
DA:1973,34
DA:1974,34
DA:1975,34
DA:1976,34
DA:1977,34
DA:1978,34
DA:1979,34
DA:1980,34
DA:1988,34
DA:1989,34
DA:1990,34
DA:1991,34
DA:1992,34
DA:1993,34
DA:1994,34
DA:1995,34
DA:1996,34
DA:1997,34
DA:1998,34
DA:1999,34
DA:2000,34
DA:2001,34
DA:2002,34
DA:2010,34
DA:2011,34
DA:2012,34
DA:2013,34
DA:2014,34
DA:2015,34
DA:2016,34
DA:2017,34
DA:2018,34
DA:2019,34
DA:2020,34
DA:2021,34
DA:2022,34
DA:2023,34
DA:2024,34
DA:2031,102
DA:2032,102
DA:2033,102
DA:2034,102
DA:2035,102
DA:2036,102
DA:2037,102
DA:2038,102
DA:2039,102
DA:2040,102
DA:2041,102
DA:2042,102
DA:2043,102
DA:2044,102
DA:2045,102
DA:2046,102
DA:2047,102
DA:2048,102
DA:2055,34
DA:2056,34
DA:2057,34
DA:2058,34
DA:2059,34
DA:2060,34
DA:2061,34
DA:2062,34
DA:2063,34
DA:2064,34
DA:2065,34
DA:2066,34
DA:2067,34
DA:2068,34
DA:2069,34
DA:2073,34
DA:2074,34
DA:2075,34
DA:2076,34
DA:2077,34
DA:2078,34
DA:2079,34
DA:2080,34
DA:2081,34
DA:2082,34
DA:2083,34
DA:2084,34
DA:2085,34
DA:2086,34
DA:2087,34
DA:2091,34
DA:2092,34
DA:2093,34
DA:2094,34
DA:2095,34
DA:2096,34
DA:2097,34
DA:2098,34
DA:2099,34
DA:2100,34
DA:2101,34
DA:2102,34
DA:2103,34
DA:2104,34
DA:2105,34
DA:2109,34
DA:2110,34
DA:2111,34
DA:2112,34
DA:2113,34
DA:2114,34
DA:2115,34
DA:2116,34
DA:2117,34
DA:2118,34
DA:2119,34
DA:2120,34
DA:2121,34
DA:2122,34
DA:2123,34
DA:2127,34
DA:2128,34
DA:2129,34
DA:2130,34
DA:2131,34
DA:2132,34
DA:2133,34
DA:2134,34
DA:2135,34
DA:2136,34
DA:2137,34
DA:2138,34
DA:2139,34
DA:2140,34
DA:2141,34
DA:2148,544
DA:2149,34
DA:2150,34
DA:2151,34
DA:2152,34
DA:2153,34
DA:2154,34
DA:2155,34
DA:2156,34
DA:2157,34
DA:2158,34
DA:2159,34
DA:2160,34
DA:2161,34
DA:2162,34
DA:2163,34
DA:2164,34
DA:2165,544
DA:2166,544
DA:2167,544
DA:2168,544
DA:2169,544
DA:2170,544
DA:2171,544
DA:2172,544
DA:2173,544
DA:2174,544
DA:2175,544
DA:2176,544
DA:2177,544
DA:2178,544
DA:2179,544
DA:2180,544
DA:2181,544
DA:2182,544
DA:2185,34
DA:2186,34
DA:2187,34
DA:2188,34
DA:2189,34
DA:2190,34
DA:2191,34
DA:2192,34
DA:2193,34
DA:2194,34
DA:2195,34
DA:2196,34
DA:2197,34
DA:2198,34
DA:2199,34
DA:2202,34
DA:2203,34
DA:2206,18136
DA:2207,18136
DA:2208,18136
DA:2211,0
DA:2212,0
DA:2213,0
DA:2214,0
DA:2215,0
DA:2219,5919
DA:2220,4731
DA:2221,5919
DA:2222,5919
DA:2224,5919
DA:2227,6565
DA:2228,6565
DA:2229,6565
DA:2232,2006
DA:2233,2006
DA:2234,2006
DA:2237,1944
DA:2238,1944
DA:2239,1944
DA:2242,1944
DA:2243,1944
DA:2244,1944
DA:2247,326
DA:2248,326
DA:2249,326
DA:2252,326
DA:2253,326
DA:2254,326
DA:2257,14898
DA:2258,14898
DA:2259,14898
DA:2262,386
DA:2263,386
DA:2264,386
DA:2268,21250
DA:2269,21250
DA:2271,21250
DA:2273,21234
DA:2275,21222
DA:2277,21220
DA:2279,21193
DA:2280,2
DA:2283,21191
DA:2285,18325
DA:2287,18325
DA:2289,18325
DA:2291,18325
DA:2293,18325
DA:2295,18270
DA:2297,18270
DA:2298,18270
DA:2300,21250
DA:2336,13829
DA:2337,13829
DA:2338,13829
DA:2339,13544
DA:2340,13538
DA:2341,13530
DA:2342,13527
DA:2344,13829
DA:2347,2
DA:2348,2
DA:2349,2
DA:2350,1
DA:2351,0
DA:2353,2
DA:2356,3
DA:2357,3
DA:2358,3
DA:2361,13531
DA:2362,13531
DA:2363,13531
DA:2364,12467
DA:2365,12463
DA:2366,12459
DA:2367,12454
DA:2368,12451
DA:2370,13531
DA:2373,0
DA:2374,0
DA:2375,0
DA:2376,0
DA:2377,0
DA:2380,0
DA:2381,0
DA:2382,0
DA:2383,0
DA:2384,0
DA:2391,2063
DA:2392,2063
DA:2393,2063
DA:2396,105
DA:2397,105
DA:2398,105
DA:2401,1941
DA:2402,1941
DA:2403,1941
DA:2406,2
DA:2407,2
DA:2408,2
DA:2411,1913
DA:2412,1913
DA:2413,1913
DA:2416,1912
DA:2417,1912
DA:2418,1912
DA:2421,1940
DA:2422,1940
DA:2423,1940
DA:2430,368
DA:2431,368
DA:2432,368
DA:2435,372
DA:2436,372
DA:2437,372
DA:2440,10984
DA:2441,10984
DA:2442,10984
DA:2445,9952
DA:2446,523
DA:2447,9952
DA:2448,9952
DA:2449,9431
DA:2450,9431
DA:2451,9430
DA:2452,9430
DA:2453,9429
DA:2454,9429
DA:2455,9429
DA:2456,9429
DA:2457,9429
DA:2459,9952
DA:2463,522
DA:2464,522
DA:2465,522
DA:2466,2
DA:2467,1
DA:2468,0
DA:2469,0
DA:2470,0
DA:2472,522
DA:2476,0
DA:2477,0
DA:2478,0
DA:2482,0
DA:2483,0
DA:2484,0
DA:2487,0
DA:2488,0
DA:2489,0
DA:2492,3214
DA:2493,3214
DA:2494,3214
DA:2497,3076
DA:2498,3076
DA:2499,3076
DA:2502,3008
DA:2503,3008
DA:2504,3008
DA:2507,2981
DA:2508,2981
DA:2509,2981
DA:2517,367
DA:2518,367
DA:2519,367
DA:2523,14872
DA:2524,14872
DA:2525,14872
DA:2529,14867
DA:2530,14867
DA:2531,14867
DA:2535,14888
DA:2536,14888
DA:2537,14888
DA:2541,14878
DA:2542,14878
DA:2543,14878
DA:2550,1
DA:2551,1
DA:2552,1
DA:2553,1
DA:2554,1
DA:2557,1
DA:2558,1
DA:2559,1
DA:2560,1
DA:2561,1
DA:2564,1
DA:2565,1
DA:2566,1
DA:2567,1
DA:2568,1
DA:2571,1
DA:2572,1
DA:2573,1
DA:2574,1
DA:2575,1
DA:2578,1
DA:2579,1
DA:2580,1
DA:2581,1
DA:2582,1
DA:2585,1
DA:2586,1
DA:2587,1
DA:2589,1
DA:2590,1
DA:2591,1
DA:2594,1
DA:2595,1
DA:2596,1
DA:2597,1
DA:2598,1
DA:2599,1
DA:2600,1
DA:2603,1
DA:2604,1
DA:2605,1
DA:2606,1
DA:2607,1
DA:2608,1
DA:2609,1
DA:2612,1
DA:2613,1
DA:2614,1
DA:2615,1
DA:2616,1
DA:2617,1
DA:2618,1
DA:2621,1
DA:2623,1
DA:2624,1
DA:2625,1
DA:2628,1
DA:2629,1
DA:2630,1
DA:2633,1
DA:2634,1
DA:2635,1
DA:2636,1
DA:2639,1
DA:2640,1
DA:2641,1
DA:2644,1
DA:2645,1
DA:2646,1
DA:2647,1
DA:2648,1
DA:2651,1
DA:2652,1
DA:2653,1
DA:2654,1
DA:2657,1
DA:2658,1
DA:2659,1
DA:2660,1
DA:2663,1
DA:2664,1
DA:2665,1
DA:2666,1
DA:2667,1
DA:2668,1
DA:2671,1
DA:2672,1
DA:2673,1
DA:2674,1
DA:2681,1
DA:2682,1
DA:2683,1
DA:2684,1
DA:2685,1
DA:2686,1
DA:2687,1
DA:2690,1
DA:2691,1
DA:2692,1
DA:2693,1
DA:2694,1
DA:2695,1
DA:2698,1
DA:2699,1
DA:2700,1
DA:2701,1
DA:2702,1
DA:2703,1
DA:2706,1
DA:2707,1
DA:2708,1
DA:2709,1
DA:2710,1
DA:2713,1
DA:2714,1
DA:2715,1
DA:2716,1
DA:2717,1
DA:2718,1
DA:2721,1
DA:2722,1
DA:2723,1
DA:2724,1
DA:2725,1
DA:2727,1
DA:2728,1
DA:2729,1
DA:2732,1
DA:2733,1
DA:2734,1
DA:2735,1
DA:2736,1
DA:2737,1
DA:2740,1
DA:2741,1
DA:2742,1
DA:2743,1
DA:2744,1
DA:2745,1
DA:2748,1
DA:2750,1
DA:2751,1
DA:2752,1
DA:2754,1
DA:2755,1
DA:2758,1
DA:2759,1
DA:2760,1
DA:2763,1
DA:2764,1
DA:2765,1
DA:2766,1
DA:2769,1
DA:2770,1
DA:2771,1
DA:2772,1
DA:2773,1
DA:2774,1
DA:2777,1
DA:2778,1
DA:2779,1
DA:2780,1
DA:2781,1
DA:2782,1
DA:2783,1
DA:2784,1
DA:2787,1
DA:2788,1
DA:2789,1
DA:2790,1
DA:2791,1
DA:2792,1
DA:2793,1
DA:2794,1
DA:2797,1
DA:2798,1
DA:2799,1
DA:2800,1
DA:2801,1
DA:2802,1
DA:2803,1
DA:2804,1
DA:2805,1
BRF:0
BRH:0
LF:2056
LH:2025
end_of_record
SF:/app/src/morphology/matcher.rs
FN:20,_RINvNtNtCsluBEq34Hdgp_6glossa10morphology7matcher12match_suffixRNtNtB4_10participle17ParticiplePatternNCNvB12_18analyze_participle0NCB1E_s_0EB6_
FN:20,_RINvNtNtCsluBEq34Hdgp_6glossa10morphology7matcher12match_suffixTReNtNtB4_6models4CaseNtB14_6NumberENCINvNtB4_10declension17match_endings_allNCNvB1E_21analyze_noun_all_into0E0NCB1B_s_0EB6_
FN:20,_RINvNtNtCsluBEq34Hdgp_6glossa10morphology7matcher12match_suffixTReNtNtB4_6models6PersonNtB14_6NumberENCINvNtB4_11conjugation22match_verb_endings_allNCNvB1G_21analyze_verb_all_into0E0NCB1D_s_0EB6_
FN:20,_RINvNtNtCsluBEq34Hdgp_6glossa10morphology7matcher12match_suffixTReNtNtB4_6models6PersonNtB14_6NumberENCNvNtB4_11conjugation18match_verb_endings0NCB1D_s_0EB6_
FN:157,_RNCNvNtNtNtCs4cnvRHYBibt_6glossa10morphology7matcher5testss_13test_no_matchs_0B9_
FN:99,_RNCNvNtNtNtCs4cnvRHYBibt_6glossa10morphology7matcher5testss_15test_early_exits_0B9_
FN:54,_RNCNvNtNtNtCs4cnvRHYBibt_6glossa10morphology7matcher5testss_16test_basic_matchs_0B9_
FN:138,_RNCNvNtNtNtCs4cnvRHYBibt_6glossa10morphology7matcher5testss_19test_unicode_suffixs_0B9_
FN:119,_RNCNvNtNtNtCs4cnvRHYBibt_6glossa10morphology7matcher5testss_21test_empty_stem_checks_0B9_
FN:75,_RNCNvNtNtNtCs4cnvRHYBibt_6glossa10morphology7matcher5testss_21test_multiple_matchess_0B9_
FN:175,_RNCNvNtNtNtCs4cnvRHYBibt_6glossa10morphology7matcher5testss_27test_callback_mutable_states_0B9_
FN:149,_RNvNtNtNtCs4cnvRHYBibt_6glossa10morphology7matcher5testss_13test_no_match
FN:91,_RNvNtNtNtCs4cnvRHYBibt_6glossa10morphology7matcher5testss_15test_early_exit
FN:46,_RNvNtNtNtCs4cnvRHYBibt_6glossa10morphology7matcher5testss_16test_basic_match
FN:129,_RNvNtNtNtCs4cnvRHYBibt_6glossa10morphology7matcher5testss_19test_unicode_suffix
FN:110,_RNvNtNtNtCs4cnvRHYBibt_6glossa10morphology7matcher5testss_21test_empty_stem_check
FN:66,_RNvNtNtNtCs4cnvRHYBibt_6glossa10morphology7matcher5testss_21test_multiple_matches
FN:167,_RNvNtNtNtCs4cnvRHYBibt_6glossa10morphology7matcher5testss_27test_callback_mutable_state
FN:20,_RINvNtNtCs4cnvRHYBibt_6glossa10morphology7matcher12match_suffixRNtNtB4_10participle17ParticiplePatternNCNvB12_18analyze_participle0NCB1E_s_0EB6_
FN:20,_RINvNtNtCs4cnvRHYBibt_6glossa10morphology7matcher12match_suffixTReB10_ENCNvNtB2_5testss_19test_unicode_suffix0NCB19_s_0EB6_
FN:20,_RINvNtNtCs4cnvRHYBibt_6glossa10morphology7matcher12match_suffixTReNtNtB4_6models4CaseNtB14_6NumberENCINvNtB4_10declension17match_endings_allNCNvB1E_21analyze_noun_all_into0E0NCB1B_s_0EB6_
FN:20,_RINvNtNtCs4cnvRHYBibt_6glossa10morphology7matcher12match_suffixTReNtNtB4_6models6PersonNtB14_6NumberENCINvNtB4_11conjugation22match_verb_endings_allNCNvB1G_21analyze_verb_all_into0E0NCB1D_s_0EB6_
FN:20,_RINvNtNtCs4cnvRHYBibt_6glossa10morphology7matcher12match_suffixTReNtNtB4_6models6PersonNtB14_6NumberENCNvNtB4_11conjugation18match_verb_endings0NCB1D_s_0EB6_
FN:20,_RINvNtNtCs4cnvRHYBibt_6glossa10morphology7matcher12match_suffixTRelENCNvNtB2_5testss_13test_no_match0NCB16_s_0EB6_
FN:20,_RINvNtNtCs4cnvRHYBibt_6glossa10morphology7matcher12match_suffixTRelENCNvNtB2_5testss_15test_early_exit0NCB16_s_0EB6_
FN:20,_RINvNtNtCs4cnvRHYBibt_6glossa10morphology7matcher12match_suffixTRelENCNvNtB2_5testss_16test_basic_match0NCB16_s_0EB6_
FN:20,_RINvNtNtCs4cnvRHYBibt_6glossa10morphology7matcher12match_suffixTRelENCNvNtB2_5testss_21test_empty_stem_check0NCB16_s_0EB6_
FN:20,_RINvNtNtCs4cnvRHYBibt_6glossa10morphology7matcher12match_suffixTRelENCNvNtB2_5testss_21test_multiple_matches0NCB16_s_0EB6_
FN:20,_RINvNtNtCs4cnvRHYBibt_6glossa10morphology7matcher12match_suffixTRelENCNvNtB2_5testss_27test_callback_mutable_state0NCB16_s_0EB6_
FNDA:2269,_RINvNtNtCsluBEq34Hdgp_6glossa10morphology7matcher12match_suffixRNtNtB4_10participle17ParticiplePatternNCNvB12_18analyze_participle0NCB1E_s_0EB6_
FNDA:25305,_RINvNtNtCsluBEq34Hdgp_6glossa10morphology7matcher12match_suffixTReNtNtB4_6models4CaseNtB14_6NumberENCINvNtB4_10declension17match_endings_allNCNvB1E_21analyze_noun_all_into0E0NCB1B_s_0EB6_
FNDA:38424,_RINvNtNtCsluBEq34Hdgp_6glossa10morphology7matcher12match_suffixTReNtNtB4_6models6PersonNtB14_6NumberENCINvNtB4_11conjugation22match_verb_endings_allNCNvB1G_21analyze_verb_all_into0E0NCB1D_s_0EB6_
FNDA:2067,_RINvNtNtCsluBEq34Hdgp_6glossa10morphology7matcher12match_suffixTReNtNtB4_6models6PersonNtB14_6NumberENCNvNtB4_11conjugation18match_verb_endings0NCB1D_s_0EB6_
FNDA:0,_RNCNvNtNtNtCs4cnvRHYBibt_6glossa10morphology7matcher5testss_13test_no_matchs_0B9_
FNDA:1,_RNCNvNtNtNtCs4cnvRHYBibt_6glossa10morphology7matcher5testss_15test_early_exits_0B9_
FNDA:1,_RNCNvNtNtNtCs4cnvRHYBibt_6glossa10morphology7matcher5testss_16test_basic_matchs_0B9_
FNDA:1,_RNCNvNtNtNtCs4cnvRHYBibt_6glossa10morphology7matcher5testss_19test_unicode_suffixs_0B9_
FNDA:0,_RNCNvNtNtNtCs4cnvRHYBibt_6glossa10morphology7matcher5testss_21test_empty_stem_checks_0B9_
FNDA:2,_RNCNvNtNtNtCs4cnvRHYBibt_6glossa10morphology7matcher5testss_21test_multiple_matchess_0B9_
FNDA:2,_RNCNvNtNtNtCs4cnvRHYBibt_6glossa10morphology7matcher5testss_27test_callback_mutable_states_0B9_
FNDA:1,_RNvNtNtNtCs4cnvRHYBibt_6glossa10morphology7matcher5testss_13test_no_match
FNDA:1,_RNvNtNtNtCs4cnvRHYBibt_6glossa10morphology7matcher5testss_15test_early_exit
FNDA:1,_RNvNtNtNtCs4cnvRHYBibt_6glossa10morphology7matcher5testss_16test_basic_match
FNDA:1,_RNvNtNtNtCs4cnvRHYBibt_6glossa10morphology7matcher5testss_19test_unicode_suffix
FNDA:1,_RNvNtNtNtCs4cnvRHYBibt_6glossa10morphology7matcher5testss_21test_empty_stem_check
FNDA:1,_RNvNtNtNtCs4cnvRHYBibt_6glossa10morphology7matcher5testss_21test_multiple_matches
FNDA:1,_RNvNtNtNtCs4cnvRHYBibt_6glossa10morphology7matcher5testss_27test_callback_mutable_state
FNDA:1399,_RINvNtNtCs4cnvRHYBibt_6glossa10morphology7matcher12match_suffixRNtNtB4_10participle17ParticiplePatternNCNvB12_18analyze_participle0NCB1E_s_0EB6_
FNDA:1,_RINvNtNtCs4cnvRHYBibt_6glossa10morphology7matcher12match_suffixTReB10_ENCNvNtB2_5testss_19test_unicode_suffix0NCB19_s_0EB6_
FNDA:21060,_RINvNtNtCs4cnvRHYBibt_6glossa10morphology7matcher12match_suffixTReNtNtB4_6models4CaseNtB14_6NumberENCINvNtB4_10declension17match_endings_allNCNvB1E_21analyze_noun_all_into0E0NCB1B_s_0EB6_
FNDA:33592,_RINvNtNtCs4cnvRHYBibt_6glossa10morphology7matcher12match_suffixTReNtNtB4_6models6PersonNtB14_6NumberENCINvNtB4_11conjugation22match_verb_endings_allNCNvB1G_21analyze_verb_all_into0E0NCB1D_s_0EB6_
FNDA:48,_RINvNtNtCs4cnvRHYBibt_6glossa10morphology7matcher12match_suffixTReNtNtB4_6models6PersonNtB14_6NumberENCNvNtB4_11conjugation18match_verb_endings0NCB1D_s_0EB6_
FNDA:1,_RINvNtNtCs4cnvRHYBibt_6glossa10morphology7matcher12match_suffixTRelENCNvNtB2_5testss_13test_no_match0NCB16_s_0EB6_
FNDA:1,_RINvNtNtCs4cnvRHYBibt_6glossa10morphology7matcher12match_suffixTRelENCNvNtB2_5testss_15test_early_exit0NCB16_s_0EB6_
FNDA:1,_RINvNtNtCs4cnvRHYBibt_6glossa10morphology7matcher12match_suffixTRelENCNvNtB2_5testss_16test_basic_match0NCB16_s_0EB6_
FNDA:1,_RINvNtNtCs4cnvRHYBibt_6glossa10morphology7matcher12match_suffixTRelENCNvNtB2_5testss_21test_empty_stem_check0NCB16_s_0EB6_
FNDA:1,_RINvNtNtCs4cnvRHYBibt_6glossa10morphology7matcher12match_suffixTRelENCNvNtB2_5testss_21test_multiple_matches0NCB16_s_0EB6_
FNDA:1,_RINvNtNtCs4cnvRHYBibt_6glossa10morphology7matcher12match_suffixTRelENCNvNtB2_5testss_27test_callback_mutable_state0NCB16_s_0EB6_
FNF:15
FNH:13
DA:20,124171
DA:21,124171
DA:22,124171
DA:23,124171
DA:24,124171
DA:25,124171
DA:26,124171
DA:27,124171
DA:29,1144901
DA:30,1021097
DA:31,1021097
DA:34,21271
DA:35,367
DA:36,20904
DA:37,999826
DA:39,124171
DA:46,1
DA:47,1
DA:48,1
DA:50,1
DA:51,1
DA:52,1
DA:54,1
DA:55,1
DA:56,1
DA:57,1
DA:58,1
DA:59,1
DA:62,1
DA:63,1
DA:66,1
DA:68,1
DA:69,1
DA:71,1
DA:72,1
DA:73,1
DA:75,2
DA:76,2
DA:77,2
DA:78,2
DA:85,1
DA:86,1
DA:87,1
DA:88,1
DA:91,1
DA:92,1
DA:93,1
DA:95,1
DA:96,1
DA:97,1
DA:99,1
DA:100,1
DA:101,1
DA:102,1
DA:105,1
DA:106,1
DA:107,1
DA:110,1
DA:112,1
DA:113,1
DA:115,1
DA:116,1
DA:117,1
DA:119,0
DA:120,0
DA:121,0
DA:122,0
DA:125,1
DA:126,1
DA:129,1
DA:131,1
DA:132,1
DA:134,1
DA:135,1
DA:136,1
DA:138,1
DA:139,1
DA:140,1
DA:141,1
DA:144,1
DA:145,1
DA:146,1
DA:149,1
DA:150,1
DA:151,1
DA:153,1
DA:154,1
DA:155,1
DA:157,0
DA:158,0
DA:159,0
DA:160,0
DA:163,1
DA:164,1
DA:167,1
DA:168,1
DA:169,1
DA:171,1
DA:172,1
DA:173,1
DA:175,2
DA:176,2
DA:177,2
DA:178,2
DA:183,1
DA:184,1
BRF:0
BRH:0
LF:106
LH:98
end_of_record
SF:/app/src/morphology/mod.rs
FN:110,_RNCNvNtCsluBEq34Hdgp_6glossa10morphology27analyze_all_from_normalized0B5_
FN:113,_RNCNvNtCsluBEq34Hdgp_6glossa10morphology27analyze_all_from_normalizeds_0B5_
FN:85,_RNvNtCsluBEq34Hdgp_6glossa10morphology11analyze_all
FN:44,_RNvNtCsluBEq34Hdgp_6glossa10morphology18compare_confidenceB3_
FN:159,_RNvNtCsluBEq34Hdgp_6glossa10morphology22is_single_greek_letter
FN:91,_RNvNtCsluBEq34Hdgp_6glossa10morphology27analyze_all_from_normalized
FN:51,_RNvNtCsluBEq34Hdgp_6glossa10morphology7analyze
FN:250,_RNCNvNtNtCs4cnvRHYBibt_6glossa10morphology5testss_25test_sort_safety_with_nan0B7_
FN:307,_RNCNvNtNtCs4cnvRHYBibt_6glossa10morphology5testss_31test_analyze_all_coverage_forms0B7_
FN:319,_RNCNvNtNtCs4cnvRHYBibt_6glossa10morphology5testss_31test_analyze_all_coverage_formss0_0B7_
FN:327,_RNCNvNtNtCs4cnvRHYBibt_6glossa10morphology5testss_31test_analyze_all_coverage_formss1_0B7_
FN:312,_RNCNvNtNtCs4cnvRHYBibt_6glossa10morphology5testss_31test_analyze_all_coverage_formss_0B7_
FN:177,_RNvNtNtCs4cnvRHYBibt_6glossa10morphology5testss_18test_display_impls
FN:207,_RNvNtNtCs4cnvRHYBibt_6glossa10morphology5testss_19test_analyze_dative
FN:200,_RNvNtNtCs4cnvRHYBibt_6glossa10morphology5testss_21test_analyze_genitive
FN:214,_RNvNtNtCs4cnvRHYBibt_6glossa10morphology5testss_23test_analyze_accusative
FN:193,_RNvNtNtCs4cnvRHYBibt_6glossa10morphology5testss_23test_analyze_nominative
FN:228,_RNvNtNtCs4cnvRHYBibt_6glossa10morphology5testss_25test_analyze_verb_present
FN:243,_RNvNtNtCs4cnvRHYBibt_6glossa10morphology5testss_25test_sort_safety_with_nan
FN:258,_RNvNtNtCs4cnvRHYBibt_6glossa10morphology5testss_26test_unknown_word_fallback
FN:236,_RNvNtNtCs4cnvRHYBibt_6glossa10morphology5testss_27test_analyze_lexicon_lookup
FN:283,_RNvNtNtCs4cnvRHYBibt_6glossa10morphology5testss_28test_ambiguous_word_analysis
FN:221,_RNvNtNtCs4cnvRHYBibt_6glossa10morphology5testss_28test_analyze_verb_imperative
FN:299,_RNvNtNtCs4cnvRHYBibt_6glossa10morphology5testss_31test_analyze_all_coverage_forms
FN:268,_RNvNtNtCs4cnvRHYBibt_6glossa10morphology5testss_33test_single_greek_letter_fallback
FN:85,_RNvNtCs4cnvRHYBibt_6glossa10morphology11analyze_all
FN:44,_RNvNtCs4cnvRHYBibt_6glossa10morphology18compare_confidenceB3_
FN:159,_RNvNtCs4cnvRHYBibt_6glossa10morphology22is_single_greek_letter
FN:91,_RNvNtCs4cnvRHYBibt_6glossa10morphology27analyze_all_from_normalized
FN:51,_RNvNtCs4cnvRHYBibt_6glossa10morphology7analyze
FN:110,_RNCNvNtCs4cnvRHYBibt_6glossa10morphology27analyze_all_from_normalized0B5_
FN:113,_RNCNvNtCs4cnvRHYBibt_6glossa10morphology27analyze_all_from_normalizeds_0B5_
FNDA:18777,_RNCNvNtCsluBEq34Hdgp_6glossa10morphology27analyze_all_from_normalized0B5_
FNDA:3941,_RNCNvNtCsluBEq34Hdgp_6glossa10morphology27analyze_all_from_normalizeds_0B5_
FNDA:4522,_RNvNtCsluBEq34Hdgp_6glossa10morphology11analyze_all
FNDA:18779,_RNvNtCsluBEq34Hdgp_6glossa10morphology18compare_confidenceB3_
FNDA:862,_RNvNtCsluBEq34Hdgp_6glossa10morphology22is_single_greek_letter
FNDA:4803,_RNvNtCsluBEq34Hdgp_6glossa10morphology27analyze_all_from_normalized
FNDA:294,_RNvNtCsluBEq34Hdgp_6glossa10morphology7analyze
FNDA:1,_RNCNvNtNtCs4cnvRHYBibt_6glossa10morphology5testss_25test_sort_safety_with_nan0B7_
FNDA:2,_RNCNvNtNtCs4cnvRHYBibt_6glossa10morphology5testss_31test_analyze_all_coverage_forms0B7_
FNDA:1,_RNCNvNtNtCs4cnvRHYBibt_6glossa10morphology5testss_31test_analyze_all_coverage_formss0_0B7_
FNDA:1,_RNCNvNtNtCs4cnvRHYBibt_6glossa10morphology5testss_31test_analyze_all_coverage_formss1_0B7_
FNDA:3,_RNCNvNtNtCs4cnvRHYBibt_6glossa10morphology5testss_31test_analyze_all_coverage_formss_0B7_
FNDA:1,_RNvNtNtCs4cnvRHYBibt_6glossa10morphology5testss_18test_display_impls
FNDA:1,_RNvNtNtCs4cnvRHYBibt_6glossa10morphology5testss_19test_analyze_dative
FNDA:1,_RNvNtNtCs4cnvRHYBibt_6glossa10morphology5testss_21test_analyze_genitive
FNDA:1,_RNvNtNtCs4cnvRHYBibt_6glossa10morphology5testss_23test_analyze_accusative
FNDA:1,_RNvNtNtCs4cnvRHYBibt_6glossa10morphology5testss_23test_analyze_nominative
FNDA:1,_RNvNtNtCs4cnvRHYBibt_6glossa10morphology5testss_25test_analyze_verb_present
FNDA:1,_RNvNtNtCs4cnvRHYBibt_6glossa10morphology5testss_25test_sort_safety_with_nan
FNDA:1,_RNvNtNtCs4cnvRHYBibt_6glossa10morphology5testss_26test_unknown_word_fallback
FNDA:1,_RNvNtNtCs4cnvRHYBibt_6glossa10morphology5testss_27test_analyze_lexicon_lookup
FNDA:1,_RNvNtNtCs4cnvRHYBibt_6glossa10morphology5testss_28test_ambiguous_word_analysis
FNDA:1,_RNvNtNtCs4cnvRHYBibt_6glossa10morphology5testss_28test_analyze_verb_imperative
FNDA:1,_RNvNtNtCs4cnvRHYBibt_6glossa10morphology5testss_31test_analyze_all_coverage_forms
FNDA:1,_RNvNtNtCs4cnvRHYBibt_6glossa10morphology5testss_33test_single_greek_letter_fallback
FNDA:4165,_RNvNtCs4cnvRHYBibt_6glossa10morphology11analyze_all
FNDA:9860,_RNvNtCs4cnvRHYBibt_6glossa10morphology18compare_confidenceB3_
FNDA:1371,_RNvNtCs4cnvRHYBibt_6glossa10morphology22is_single_greek_letter
FNDA:4197,_RNvNtCs4cnvRHYBibt_6glossa10morphology27analyze_all_from_normalized
FNDA:61,_RNvNtCs4cnvRHYBibt_6glossa10morphology7analyze
FNDA:9793,_RNCNvNtCs4cnvRHYBibt_6glossa10morphology27analyze_all_from_normalized0B5_
FNDA:2826,_RNCNvNtCs4cnvRHYBibt_6glossa10morphology27analyze_all_from_normalizeds_0B5_
FNF:25
FNH:25
DA:44,28639
DA:47,28639
DA:48,28639
DA:51,355
DA:52,355
DA:57,355
DA:58,42
DA:59,42
DA:60,42
DA:61,313
DA:64,313
DA:65,313
DA:66,313
DA:67,313
DA:68,355
DA:85,8687
DA:86,8687
DA:87,8687
DA:88,8687
DA:91,9000
DA:94,9000
DA:97,9000
DA:98,5361
DA:99,5361
DA:100,5361
DA:101,5361
DA:104,9000
DA:107,9000
DA:110,28570
DA:113,9000
DA:116,2233
DA:117,1620
DA:118,1620
DA:119,1620
DA:120,1620
DA:121,1620
DA:122,1620
DA:123,1620
DA:124,1620
DA:125,1620
DA:126,1620
DA:127,1620
DA:128,1620
DA:129,1620
DA:130,1620
DA:131,1620
DA:132,1620
DA:133,6767
DA:136,9000
DA:137,613
DA:138,613
DA:139,613
DA:140,613
DA:141,613
DA:142,613
DA:143,613
DA:144,613
DA:145,613
DA:146,613
DA:147,613
DA:148,613
DA:149,8387
DA:151,9000
DA:152,9000
DA:159,2233
DA:160,2233
DA:161,2233
DA:165,1645
DA:166,1645
DA:167,25
DA:168,588
DA:169,588
DA:170,2233
DA:177,1
DA:178,1
DA:179,1
DA:180,1
DA:181,1
DA:182,1
DA:184,1
DA:185,1
DA:187,1
DA:188,1
DA:189,1
DA:190,1
DA:193,1
DA:194,1
DA:195,1
DA:196,1
DA:197,1
DA:200,1
DA:201,1
DA:202,1
DA:203,1
DA:204,1
DA:207,1
DA:208,1
DA:209,1
DA:210,1
DA:211,1
DA:214,1
DA:215,1
DA:216,1
DA:217,1
DA:218,1
DA:221,1
DA:222,1
DA:223,1
DA:224,1
DA:225,1
DA:228,1
DA:229,1
DA:230,1
DA:231,1
DA:232,1
DA:233,1
DA:236,1
DA:237,1
DA:238,1
DA:239,1
DA:240,1
DA:243,1
DA:244,1
DA:245,1
DA:246,1
DA:247,1
DA:250,1
DA:254,1
DA:255,1
DA:258,1
DA:260,1
DA:261,1
DA:262,1
DA:263,1
DA:264,1
DA:265,1
DA:268,1
DA:270,1
DA:271,1
DA:272,1
DA:273,1
DA:277,1
DA:278,1
DA:279,1
DA:280,1
DA:283,1
DA:289,1
DA:290,1
DA:293,3
DA:294,3
DA:296,1
DA:299,1
DA:303,1
DA:304,1
DA:305,1
DA:306,1
DA:307,2
DA:311,1
DA:312,3
DA:315,1
DA:316,1
DA:317,1
DA:318,1
DA:319,1
DA:323,1
DA:324,1
DA:325,1
DA:326,1
DA:327,1
DA:329,1
BRF:0
BRH:0
LF:177
LH:177
end_of_record
SF:/app/src/morphology/models.rs
FN:48,_RNvMNtNtCsluBEq34Hdgp_6glossa10morphology6modelsNtB2_13MorphAnalysis15with_confidence
FN:32,_RNvMNtNtCsluBEq34Hdgp_6glossa10morphology6modelsNtB2_13MorphAnalysis3new
FN:210,_RNvNtNtCsluBEq34Hdgp_6glossa10morphology6models19analyses_compatible
FN:173,_RNvXs0_NtNtCsluBEq34Hdgp_6glossa10morphology6modelsNtB5_6NumberNtNtCs3XFJfFEDSOQ_4core3fmt7Display3fmt
FN:182,_RNvXs1_NtNtCsluBEq34Hdgp_6glossa10morphology6modelsNtB5_6GenderNtNtCs3XFJfFEDSOQ_4core3fmt7Display3fmt
FN:161,_RNvXs_NtNtCsluBEq34Hdgp_6glossa10morphology6modelsNtB4_4CaseNtNtCs3XFJfFEDSOQ_4core3fmt7Display3fmt
FN:210,_RNvNtNtCs4cnvRHYBibt_6glossa10morphology6models19analyses_compatible
FN:48,_RNvMNtNtCs4cnvRHYBibt_6glossa10morphology6modelsNtB2_13MorphAnalysis15with_confidence
FN:32,_RNvMNtNtCs4cnvRHYBibt_6glossa10morphology6modelsNtB2_13MorphAnalysis3new
FN:173,_RNvXs0_NtNtCs4cnvRHYBibt_6glossa10morphology6modelsNtB5_6NumberNtNtCs3XFJfFEDSOQ_4core3fmt7Display3fmt
FN:182,_RNvXs1_NtNtCs4cnvRHYBibt_6glossa10morphology6modelsNtB5_6GenderNtNtCs3XFJfFEDSOQ_4core3fmt7Display3fmt
FN:161,_RNvXs_NtNtCs4cnvRHYBibt_6glossa10morphology6modelsNtB4_4CaseNtNtCs3XFJfFEDSOQ_4core3fmt7Display3fmt
FNDA:3,_RNvMNtNtCsluBEq34Hdgp_6glossa10morphology6modelsNtB2_13MorphAnalysis15with_confidence
FNDA:6,_RNvMNtNtCsluBEq34Hdgp_6glossa10morphology6modelsNtB2_13MorphAnalysis3new
FNDA:5,_RNvNtNtCsluBEq34Hdgp_6glossa10morphology6models19analyses_compatible
FNDA:2,_RNvXs0_NtNtCsluBEq34Hdgp_6glossa10morphology6modelsNtB5_6NumberNtNtCs3XFJfFEDSOQ_4core3fmt7Display3fmt
FNDA:3,_RNvXs1_NtNtCsluBEq34Hdgp_6glossa10morphology6modelsNtB5_6GenderNtNtCs3XFJfFEDSOQ_4core3fmt7Display3fmt
FNDA:5,_RNvXs_NtNtCsluBEq34Hdgp_6glossa10morphology6modelsNtB4_4CaseNtNtCs3XFJfFEDSOQ_4core3fmt7Display3fmt
FNDA:0,_RNvNtNtCs4cnvRHYBibt_6glossa10morphology6models19analyses_compatible
FNDA:2,_RNvMNtNtCs4cnvRHYBibt_6glossa10morphology6modelsNtB2_13MorphAnalysis15with_confidence
FNDA:2,_RNvMNtNtCs4cnvRHYBibt_6glossa10morphology6modelsNtB2_13MorphAnalysis3new
FNDA:20,_RNvXs0_NtNtCs4cnvRHYBibt_6glossa10morphology6modelsNtB5_6NumberNtNtCs3XFJfFEDSOQ_4core3fmt7Display3fmt
FNDA:14,_RNvXs1_NtNtCs4cnvRHYBibt_6glossa10morphology6modelsNtB5_6GenderNtNtCs3XFJfFEDSOQ_4core3fmt7Display3fmt
FNDA:18,_RNvXs_NtNtCs4cnvRHYBibt_6glossa10morphology6modelsNtB4_4CaseNtNtCs3XFJfFEDSOQ_4core3fmt7Display3fmt
FNF:6
FNH:6
DA:32,8
DA:33,8
DA:34,8
DA:35,8
DA:36,8
DA:37,8
DA:38,8
DA:39,8
DA:40,8
DA:41,8
DA:42,8
DA:43,8
DA:44,8
DA:45,8
DA:48,5
DA:49,5
DA:50,5
DA:51,5
DA:161,23
DA:162,23
DA:163,6
DA:164,2
DA:165,4
DA:166,6
DA:167,5
DA:169,23
DA:173,22
DA:174,22
DA:175,20
DA:176,2
DA:178,22
DA:182,17
DA:183,17
DA:184,6
DA:185,2
DA:186,9
DA:188,17
DA:210,5
DA:212,5
DA:213,2
DA:215,1
DA:216,4
DA:219,4
DA:220,1
DA:222,1
DA:223,3
DA:226,3
DA:227,1
DA:229,1
DA:230,2
DA:232,2
DA:233,5
BRF:0
BRH:0
LF:52
LH:52
end_of_record
SF:/app/src/morphology/participle.rs
FN:61,_RNvMNtNtCsluBEq34Hdgp_6glossa10morphology10participleNtB2_18ParticipleAnalysis10verb_lemma
FN:508,_RNvNtNtCsluBEq34Hdgp_6glossa10morphology10participle18analyze_participle
FN:487,_RNCNCNvNtNtCsluBEq34Hdgp_6glossa10morphology10participle12ALL_PATTERNS00B9_
FN:473,_RNCNvNtNtCsluBEq34Hdgp_6glossa10morphology10participle12ALL_PATTERNS0B7_
FN:514,_RNCNvNtNtCsluBEq34Hdgp_6glossa10morphology10participle18analyze_participles_0B7_
FN:606,_RNvNtNtNtCs4cnvRHYBibt_6glossa10morphology10participle5testss_15test_verb_lemma
FN:591,_RNvNtNtNtCs4cnvRHYBibt_6glossa10morphology10participle5testss_18test_aorist_neuter
FN:584,_RNvNtNtNtCs4cnvRHYBibt_6glossa10morphology10participle5testss_20test_aorist_feminine
FN:575,_RNvNtNtNtCs4cnvRHYBibt_6glossa10morphology10participle5testss_29test_aorist_active_participle
FN:566,_RNvNtNtNtCs4cnvRHYBibt_6glossa10morphology10participle5testss_30test_present_middle_participle
FN:598,_RNvNtNtNtCs4cnvRHYBibt_6glossa10morphology10participle5testss_31test_perfect_passive_participle
FN:558,_RNvNtNtNtCs4cnvRHYBibt_6glossa10morphology10participle5testss_37test_present_active_participle_neuter
FN:550,_RNvNtNtNtCs4cnvRHYBibt_6glossa10morphology10participle5testss_39test_present_active_participle_feminine
FN:539,_RNvNtNtNtCs4cnvRHYBibt_6glossa10morphology10participle5testss_40test_present_active_participle_masculine
FN:61,_RNvMNtNtCs4cnvRHYBibt_6glossa10morphology10participleNtB2_18ParticipleAnalysis10verb_lemma
FN:508,_RNvNtNtCs4cnvRHYBibt_6glossa10morphology10participle18analyze_participle
FN:487,_RNCNCNvNtNtCs4cnvRHYBibt_6glossa10morphology10participle12ALL_PATTERNS00B9_
FN:473,_RNCNvNtNtCs4cnvRHYBibt_6glossa10morphology10participle12ALL_PATTERNS0B7_
FN:514,_RNCNvNtNtCs4cnvRHYBibt_6glossa10morphology10participle18analyze_participles_0B7_
FNDA:314,_RNvMNtNtCsluBEq34Hdgp_6glossa10morphology10participleNtB2_18ParticipleAnalysis10verb_lemma
FNDA:2269,_RNvNtNtCsluBEq34Hdgp_6glossa10morphology10participle18analyze_participle
FNDA:5544,_RNCNCNvNtNtCsluBEq34Hdgp_6glossa10morphology10participle12ALL_PATTERNS00B9_
FNDA:28,_RNCNvNtNtCsluBEq34Hdgp_6glossa10morphology10participle12ALL_PATTERNS0B7_
FNDA:340,_RNCNvNtNtCsluBEq34Hdgp_6glossa10morphology10participle18analyze_participles_0B7_
FNDA:1,_RNvNtNtNtCs4cnvRHYBibt_6glossa10morphology10participle5testss_15test_verb_lemma
FNDA:1,_RNvNtNtNtCs4cnvRHYBibt_6glossa10morphology10participle5testss_18test_aorist_neuter
FNDA:1,_RNvNtNtNtCs4cnvRHYBibt_6glossa10morphology10participle5testss_20test_aorist_feminine
FNDA:1,_RNvNtNtNtCs4cnvRHYBibt_6glossa10morphology10participle5testss_29test_aorist_active_participle
FNDA:1,_RNvNtNtNtCs4cnvRHYBibt_6glossa10morphology10participle5testss_30test_present_middle_participle
FNDA:1,_RNvNtNtNtCs4cnvRHYBibt_6glossa10morphology10participle5testss_31test_perfect_passive_participle
FNDA:1,_RNvNtNtNtCs4cnvRHYBibt_6glossa10morphology10participle5testss_37test_present_active_participle_neuter
FNDA:1,_RNvNtNtNtCs4cnvRHYBibt_6glossa10morphology10participle5testss_39test_present_active_participle_feminine
FNDA:1,_RNvNtNtNtCs4cnvRHYBibt_6glossa10morphology10participle5testss_40test_present_active_participle_masculine
FNDA:515,_RNvMNtNtCs4cnvRHYBibt_6glossa10morphology10participleNtB2_18ParticipleAnalysis10verb_lemma
FNDA:1399,_RNvNtNtCs4cnvRHYBibt_6glossa10morphology10participle18analyze_participle
FNDA:198,_RNCNCNvNtNtCs4cnvRHYBibt_6glossa10morphology10participle12ALL_PATTERNS00B9_
FNDA:1,_RNCNvNtNtCs4cnvRHYBibt_6glossa10morphology10participle12ALL_PATTERNS0B7_
FNDA:15,_RNCNvNtNtCs4cnvRHYBibt_6glossa10morphology10participle18analyze_participles_0B7_
FNF:14
FNH:14
DA:61,829
DA:62,829
DA:63,829
DA:473,29
DA:474,29
DA:475,29
DA:476,29
DA:477,29
DA:478,29
DA:480,29
DA:481,29
DA:482,29
DA:483,29
DA:487,5742
DA:489,29
DA:490,29
DA:508,3668
DA:509,3668
DA:510,3668
DA:511,3668
DA:512,3668
DA:514,355
DA:515,355
DA:516,355
DA:517,355
DA:518,355
DA:519,355
DA:520,355
DA:521,355
DA:522,355
DA:523,355
DA:524,355
DA:525,355
DA:527,0
DA:529,355
DA:531,3668
DA:532,3668
DA:539,1
DA:540,1
DA:541,1
DA:542,1
DA:543,1
DA:544,1
DA:545,1
DA:546,1
DA:547,1
DA:550,1
DA:551,1
DA:552,1
DA:553,1
DA:554,1
DA:555,1
DA:558,1
DA:559,1
DA:560,1
DA:561,1
DA:562,1
DA:563,1
DA:566,1
DA:567,1
DA:568,1
DA:569,1
DA:570,1
DA:571,1
DA:572,1
DA:575,1
DA:576,1
DA:577,1
DA:578,1
DA:579,1
DA:580,1
DA:581,1
DA:584,1
DA:585,1
DA:586,1
DA:587,1
DA:588,1
DA:591,1
DA:592,1
DA:593,1
DA:594,1
DA:595,1
DA:598,1
DA:599,1
DA:600,1
DA:601,1
DA:602,1
DA:603,1
DA:606,1
DA:607,1
DA:608,1
DA:609,1
BRF:0
BRH:0
LF:93
LH:92
end_of_record
SF:/app/src/parser/common.rs
FN:11,_RNCNvNtNtCsluBEq34Hdgp_6glossa6parser6common20parse_number_literal0B7_
FN:6,_RNvNtNtCsluBEq34Hdgp_6glossa6parser6common20parse_number_literal
FN:6,_RNvNtNtCs4cnvRHYBibt_6glossa6parser6common20parse_number_literal
FN:11,_RNCNvNtNtCs4cnvRHYBibt_6glossa6parser6common20parse_number_literal0B7_
FNDA:56,_RNCNvNtNtCsluBEq34Hdgp_6glossa6parser6common20parse_number_literal0B7_
FNDA:1005658,_RNvNtNtCsluBEq34Hdgp_6glossa6parser6common20parse_number_literal
FNDA:1354,_RNvNtNtCs4cnvRHYBibt_6glossa6parser6common20parse_number_literal
FNDA:0,_RNCNvNtNtCs4cnvRHYBibt_6glossa6parser6common20parse_number_literal0B7_
FNF:2
FNH:2
DA:6,1007012
DA:7,1007012
DA:8,1006950
DA:10,62
DA:11,62
DA:13,1007012
BRF:0
BRH:0
LF:7
LH:7
end_of_record
SF:/app/src/parser/declarations.rs
FN:199,_RNvNtNtCsluBEq34Hdgp_6glossa6parser12declarations16build_trait_impl
FN:294,_RNvNtNtCsluBEq34Hdgp_6glossa6parser12declarations17build_impl_method
FN:143,_RNvNtNtCsluBEq34Hdgp_6glossa6parser12declarations18build_trait_method
FN:20,_RNvNtNtCsluBEq34Hdgp_6glossa6parser12declarations21build_type_definition
FN:247,_RNvNtNtCsluBEq34Hdgp_6glossa6parser12declarations22build_test_declaration
FN:85,_RNvNtNtCsluBEq34Hdgp_6glossa6parser12declarations22build_trait_definition
FN:56,_RNvNtNtCsluBEq34Hdgp_6glossa6parser12declarations23build_field_declaration
FN:121,_RNvNtNtCsluBEq34Hdgp_6glossa6parser12declarations23parse_method_parameters
FN:199,_RNvNtNtCs4cnvRHYBibt_6glossa6parser12declarations16build_trait_impl
FN:294,_RNvNtNtCs4cnvRHYBibt_6glossa6parser12declarations17build_impl_method
FN:143,_RNvNtNtCs4cnvRHYBibt_6glossa6parser12declarations18build_trait_method
FN:20,_RNvNtNtCs4cnvRHYBibt_6glossa6parser12declarations21build_type_definition
FN:247,_RNvNtNtCs4cnvRHYBibt_6glossa6parser12declarations22build_test_declaration
FN:85,_RNvNtNtCs4cnvRHYBibt_6glossa6parser12declarations22build_trait_definition
FN:56,_RNvNtNtCs4cnvRHYBibt_6glossa6parser12declarations23build_field_declaration
FN:121,_RNvNtNtCs4cnvRHYBibt_6glossa6parser12declarations23parse_method_parameters
FNDA:23,_RNvNtNtCsluBEq34Hdgp_6glossa6parser12declarations16build_trait_impl
FNDA:23,_RNvNtNtCsluBEq34Hdgp_6glossa6parser12declarations17build_impl_method
FNDA:35,_RNvNtNtCsluBEq34Hdgp_6glossa6parser12declarations18build_trait_method
FNDA:41,_RNvNtNtCsluBEq34Hdgp_6glossa6parser12declarations21build_type_definition
FNDA:13,_RNvNtNtCsluBEq34Hdgp_6glossa6parser12declarations22build_test_declaration
FNDA:31,_RNvNtNtCsluBEq34Hdgp_6glossa6parser12declarations22build_trait_definition
FNDA:41,_RNvNtNtCsluBEq34Hdgp_6glossa6parser12declarations23build_field_declaration
FNDA:58,_RNvNtNtCsluBEq34Hdgp_6glossa6parser12declarations23parse_method_parameters
FNDA:1,_RNvNtNtCs4cnvRHYBibt_6glossa6parser12declarations16build_trait_impl
FNDA:1,_RNvNtNtCs4cnvRHYBibt_6glossa6parser12declarations17build_impl_method
FNDA:3,_RNvNtNtCs4cnvRHYBibt_6glossa6parser12declarations18build_trait_method
FNDA:9,_RNvNtNtCs4cnvRHYBibt_6glossa6parser12declarations21build_type_definition
FNDA:1,_RNvNtNtCs4cnvRHYBibt_6glossa6parser12declarations22build_test_declaration
FNDA:3,_RNvNtNtCs4cnvRHYBibt_6glossa6parser12declarations22build_trait_definition
FNDA:9,_RNvNtNtCs4cnvRHYBibt_6glossa6parser12declarations23build_field_declaration
FNDA:4,_RNvNtNtCs4cnvRHYBibt_6glossa6parser12declarations23parse_method_parameters
FNF:8
FNH:8
DA:20,50
DA:21,50
DA:22,50
DA:23,50
DA:25,242
DA:26,192
DA:27,50
DA:28,50
DA:29,50
DA:30,50
DA:31,50
DA:32,50
DA:33,50
DA:35,98
DA:36,98
DA:37,50
DA:38,48
DA:41,100
DA:45,50
DA:46,0
DA:47,0
DA:48,0
DA:51,50
DA:52,50
DA:56,50
DA:57,50
DA:58,50
DA:60,150
DA:61,100
DA:62,100
DA:63,100
DA:64,100
DA:65,100
DA:66,100
DA:70,50
DA:71,0
DA:72,0
DA:73,0
DA:74,0
DA:75,50
DA:77,50
DA:78,50
DA:79,50
DA:80,50
DA:81,50
DA:85,34
DA:86,34
DA:87,34
DA:88,34
DA:90,169
DA:91,135
DA:92,34
DA:93,34
DA:94,34
DA:95,34
DA:96,34
DA:97,34
DA:98,34
DA:100,66
DA:101,66
DA:102,38
DA:103,28
DA:106,68
DA:110,34
DA:111,0
DA:112,0
DA:113,0
DA:116,34
DA:117,34
DA:121,62
DA:122,62
DA:123,62
DA:124,132
DA:126,70
DA:127,0
DA:128,70
DA:130,70
DA:131,70
DA:132,70
DA:133,70
DA:134,70
DA:135,70
DA:136,70
DA:138,62
DA:139,62
DA:143,38
DA:144,38
DA:145,38
DA:146,38
DA:147,38
DA:148,38
DA:150,212
DA:151,174
DA:152,30
DA:153,30
DA:154,30
DA:155,8
DA:156,8
DA:157,8
DA:158,120
DA:159,120
DA:160,120
DA:161,120
DA:162,120
DA:163,120
DA:165,8
DA:166,8
DA:168,8
DA:174,38
DA:175,0
DA:176,0
DA:177,0
DA:178,38
DA:180,38
DA:183,38
DA:186,38
DA:187,38
DA:188,38
DA:189,38
DA:190,8
DA:192,30
DA:195,38
DA:199,24
DA:200,24
DA:201,24
DA:202,24
DA:203,24
DA:205,167
DA:206,143
DA:209,48
DA:210,24
DA:211,24
DA:212,24
DA:213,24
DA:214,24
DA:215,24
DA:216,24
DA:217,24
DA:218,24
DA:219,24
DA:222,24
DA:223,24
DA:224,24
DA:225,0
DA:228,72
DA:232,24
DA:233,0
DA:234,0
DA:235,0
DA:238,24
DA:239,24
DA:240,24
DA:241,24
DA:242,24
DA:243,24
DA:247,14
DA:248,14
DA:249,14
DA:250,14
DA:252,70
DA:253,56
DA:256,14
DA:257,14
DA:258,14
DA:259,14
DA:264,23
DA:265,23
DA:266,23
DA:267,0
DA:272,0
DA:274,28
DA:275,28
DA:276,28
DA:277,0
DA:278,0
DA:279,0
DA:283,14
DA:284,0
DA:285,0
DA:286,0
DA:289,14
DA:290,14
DA:294,24
DA:295,24
DA:296,24
DA:297,24
DA:299,154
DA:300,130
DA:301,82
DA:302,82
DA:303,82
DA:304,82
DA:305,82
DA:306,82
DA:309,24
DA:311,24
DA:317,24
DA:318,0
DA:319,0
DA:320,0
DA:321,24
DA:323,24
DA:326,24
DA:329,24
DA:330,24
DA:331,24
DA:332,24
DA:334,0
DA:337,24
BRF:0
BRH:0
LF:209
LH:179
end_of_record
SF:/app/src/parser/expressions.rs
FN:146,_RNCNvNtNtCsluBEq34Hdgp_6glossa6parser11expressions13build_literal0B7_
FN:147,_RNCNvNtNtCsluBEq34Hdgp_6glossa6parser11expressions13build_literals_0B7_
FN:31,_RNvNtNtCsluBEq34Hdgp_6glossa6parser11expressions10build_term
FN:141,_RNvNtNtCsluBEq34Hdgp_6glossa6parser11expressions13build_literal
FN:56,_RNvNtNtCsluBEq34Hdgp_6glossa6parser11expressions16build_block_expr
FN:12,_RNvNtNtCsluBEq34Hdgp_6glossa6parser11expressions16build_expression
FN:123,_RNvNtNtCsluBEq34Hdgp_6glossa6parser11expressions17build_unwrap_expr
FN:136,_RNvNtNtCsluBEq34Hdgp_6glossa6parser11expressions19build_array_element
FN:87,_RNvNtNtCsluBEq34Hdgp_6glossa6parser11expressions23build_indexed_word_expr
FN:71,_RNvNtNtCsluBEq34Hdgp_6glossa6parser11expressions24build_array_literal_expr
FN:31,_RNvNtNtCs4cnvRHYBibt_6glossa6parser11expressions10build_term
FN:141,_RNvNtNtCs4cnvRHYBibt_6glossa6parser11expressions13build_literal
FN:56,_RNvNtNtCs4cnvRHYBibt_6glossa6parser11expressions16build_block_expr
FN:12,_RNvNtNtCs4cnvRHYBibt_6glossa6parser11expressions16build_expression
FN:123,_RNvNtNtCs4cnvRHYBibt_6glossa6parser11expressions17build_unwrap_expr
FN:136,_RNvNtNtCs4cnvRHYBibt_6glossa6parser11expressions19build_array_element
FN:87,_RNvNtNtCs4cnvRHYBibt_6glossa6parser11expressions23build_indexed_word_expr
FN:71,_RNvNtNtCs4cnvRHYBibt_6glossa6parser11expressions24build_array_literal_expr
FN:146,_RNCNvNtNtCs4cnvRHYBibt_6glossa6parser11expressions13build_literal0B7_
FN:147,_RNCNvNtNtCs4cnvRHYBibt_6glossa6parser11expressions13build_literals_0B7_
FNDA:200,_RNCNvNtNtCsluBEq34Hdgp_6glossa6parser11expressions13build_literal0B7_
FNDA:200,_RNCNvNtNtCsluBEq34Hdgp_6glossa6parser11expressions13build_literals_0B7_
FNDA:2010997,_RNvNtNtCsluBEq34Hdgp_6glossa6parser11expressions10build_term
FNDA:2011074,_RNvNtNtCsluBEq34Hdgp_6glossa6parser11expressions13build_literal
FNDA:6,_RNvNtNtCsluBEq34Hdgp_6glossa6parser11expressions16build_block_expr
FNDA:4804,_RNvNtNtCsluBEq34Hdgp_6glossa6parser11expressions16build_expression
FNDA:9,_RNvNtNtCsluBEq34Hdgp_6glossa6parser11expressions17build_unwrap_expr
FNDA:167,_RNvNtNtCsluBEq34Hdgp_6glossa6parser11expressions19build_array_element
FNDA:5,_RNvNtNtCsluBEq34Hdgp_6glossa6parser11expressions23build_indexed_word_expr
FNDA:59,_RNvNtNtCsluBEq34Hdgp_6glossa6parser11expressions24build_array_literal_expr
FNDA:5565,_RNvNtNtCs4cnvRHYBibt_6glossa6parser11expressions10build_term
FNDA:5561,_RNvNtNtCs4cnvRHYBibt_6glossa6parser11expressions13build_literal
FNDA:4,_RNvNtNtCs4cnvRHYBibt_6glossa6parser11expressions16build_block_expr
FNDA:1429,_RNvNtNtCs4cnvRHYBibt_6glossa6parser11expressions16build_expression
FNDA:1,_RNvNtNtCs4cnvRHYBibt_6glossa6parser11expressions17build_unwrap_expr
FNDA:5,_RNvNtNtCs4cnvRHYBibt_6glossa6parser11expressions19build_array_element
FNDA:1,_RNvNtNtCs4cnvRHYBibt_6glossa6parser11expressions23build_indexed_word_expr
FNDA:2,_RNvNtNtCs4cnvRHYBibt_6glossa6parser11expressions24build_array_literal_expr
FNDA:26,_RNCNvNtNtCs4cnvRHYBibt_6glossa6parser11expressions13build_literal0B7_
FNDA:26,_RNCNvNtNtCs4cnvRHYBibt_6glossa6parser11expressions13build_literals_0B7_
FNF:10
FNH:10
DA:12,6233
DA:13,6233
DA:14,6233
DA:16,2022739
DA:17,2016562
DA:18,2016562
DA:19,0
DA:23,6177
DA:24,2027
DA:27,4150
DA:29,6233
DA:31,2016562
DA:32,2016562
DA:34,2016562
DA:35,10
DA:36,61
DA:37,6
DA:40,12
DA:41,12
DA:43,10
DA:46,2016463
DA:48,0
DA:50,2016562
DA:56,10
DA:57,10
DA:58,10
DA:59,22
DA:60,12
DA:61,12
DA:62,0
DA:64,10
DA:65,10
DA:71,61
DA:72,61
DA:73,57
DA:74,57
DA:75,57
DA:76,229
DA:77,172
DA:78,172
DA:79,0
DA:81,57
DA:82,0
DA:84,4
DA:85,61
DA:87,6
DA:88,6
DA:90,6
DA:91,6
DA:92,6
DA:93,6
DA:94,6
DA:96,6
DA:97,6
DA:98,6
DA:99,6
DA:100,6
DA:101,6
DA:103,6
DA:104,6
DA:106,0
DA:107,0
DA:108,0
DA:109,0
DA:111,0
DA:112,0
DA:113,0
DA:114,0
DA:117,6
DA:118,6
DA:119,6
DA:120,6
DA:121,6
DA:123,10
DA:125,10
DA:126,10
DA:127,10
DA:128,10
DA:129,10
DA:130,10
DA:131,10
DA:132,10
DA:133,10
DA:134,10
DA:136,172
DA:137,172
DA:138,172
DA:139,172
DA:141,2016635
DA:142,2016635
DA:144,226
DA:145,226
DA:146,226
DA:147,226
DA:148,226
DA:149,226
DA:152,1007006
DA:153,1006950
DA:156,13
DA:157,13
DA:158,13
DA:160,1009390
DA:161,1009390
DA:162,1009390
DA:163,1009390
DA:164,0
DA:165,0
DA:166,0
DA:167,0
DA:169,2016635
BRF:0
BRH:0
LF:112
LH:95
end_of_record
SF:/app/src/parser/grammar.rs
FN:112,_RNvNtNtCsluBEq34Hdgp_6glossa6parser7grammar5parse
FN:121,_RNvNtNtNtCs4cnvRHYBibt_6glossa6parser7grammar5testss_23test_parse_hello_cosmos
FN:236,_RNvNtNtNtCs4cnvRHYBibt_6glossa6parser7grammar5testss_23test_parse_line_comment
FN:159,_RNvNtNtNtCs4cnvRHYBibt_6glossa6parser7grammar5testss_23test_parse_variable_use
FN:248,_RNvNtNtNtCs4cnvRHYBibt_6glossa6parser7grammar5testss_25test_parse_inline_comment
FN:181,_RNvNtNtNtCs4cnvRHYBibt_6glossa6parser7grammar5testss_25test_parse_number_literal
FN:148,_RNvNtNtNtCs4cnvRHYBibt_6glossa6parser7grammar5testss_27test_parse_variable_binding
FN:200,_RNvNtNtNtCs4cnvRHYBibt_6glossa6parser7grammar5testss_29test_parse_chained_statements
FN:224,_RNvNtNtNtCs4cnvRHYBibt_6glossa6parser7grammar5testss_30test_parse_ascii_question_mark
FN:212,_RNvNtNtNtCs4cnvRHYBibt_6glossa6parser7grammar5testss_30test_parse_greek_question_mark
FN:170,_RNvNtNtNtCs4cnvRHYBibt_6glossa6parser7grammar5testss_30test_parse_multiple_statements
FN:137,_RNvNtNtNtCs4cnvRHYBibt_6glossa6parser7grammar5testss_30test_parse_simple_string_print
FN:188,_RNvNtNtNtCs4cnvRHYBibt_6glossa6parser7grammar5testss_35test_parse_genitive_property_access
FN:112,_RNvNtNtCs4cnvRHYBibt_6glossa6parser7grammar5parse
FNDA:2319,_RNvNtNtCsluBEq34Hdgp_6glossa6parser7grammar5parse
FNDA:1,_RNvNtNtNtCs4cnvRHYBibt_6glossa6parser7grammar5testss_23test_parse_hello_cosmos
FNDA:1,_RNvNtNtNtCs4cnvRHYBibt_6glossa6parser7grammar5testss_23test_parse_line_comment
FNDA:1,_RNvNtNtNtCs4cnvRHYBibt_6glossa6parser7grammar5testss_23test_parse_variable_use
FNDA:1,_RNvNtNtNtCs4cnvRHYBibt_6glossa6parser7grammar5testss_25test_parse_inline_comment
FNDA:1,_RNvNtNtNtCs4cnvRHYBibt_6glossa6parser7grammar5testss_25test_parse_number_literal
FNDA:1,_RNvNtNtNtCs4cnvRHYBibt_6glossa6parser7grammar5testss_27test_parse_variable_binding
FNDA:1,_RNvNtNtNtCs4cnvRHYBibt_6glossa6parser7grammar5testss_29test_parse_chained_statements
FNDA:1,_RNvNtNtNtCs4cnvRHYBibt_6glossa6parser7grammar5testss_30test_parse_ascii_question_mark
FNDA:1,_RNvNtNtNtCs4cnvRHYBibt_6glossa6parser7grammar5testss_30test_parse_greek_question_mark
FNDA:1,_RNvNtNtNtCs4cnvRHYBibt_6glossa6parser7grammar5testss_30test_parse_multiple_statements
FNDA:1,_RNvNtNtNtCs4cnvRHYBibt_6glossa6parser7grammar5testss_30test_parse_simple_string_print
FNDA:1,_RNvNtNtNtCs4cnvRHYBibt_6glossa6parser7grammar5testss_35test_parse_genitive_property_access
FNDA:161,_RNvNtNtCs4cnvRHYBibt_6glossa6parser7grammar5parse
FNF:13
FNH:13
DA:112,2480
DA:113,2480
DA:114,2480
DA:121,1
DA:122,1
DA:123,1
DA:124,1
DA:125,1
DA:126,0
DA:127,0
DA:130,1
DA:132,1
DA:133,1
DA:134,1
DA:137,1
DA:138,1
DA:139,1
DA:140,1
DA:141,1
DA:142,0
DA:143,0
DA:145,1
DA:148,1
DA:149,1
DA:150,1
DA:151,1
DA:152,1
DA:153,0
DA:154,0
DA:156,1
DA:159,1
DA:160,1
DA:161,1
DA:162,1
DA:163,1
DA:164,0
DA:165,0
DA:167,1
DA:170,1
DA:171,1
DA:172,1
DA:173,1
DA:174,1
DA:175,0
DA:176,0
DA:178,1
DA:181,1
DA:182,1
DA:183,1
DA:184,1
DA:185,1
DA:188,1
DA:190,1
DA:191,1
DA:192,1
DA:193,1
DA:194,0
DA:195,0
DA:197,1
DA:200,1
DA:202,1
DA:203,1
DA:204,1
DA:205,1
DA:206,0
DA:207,0
DA:209,1
DA:212,1
DA:214,1
DA:215,1
DA:216,1
DA:217,1
DA:218,0
DA:219,0
DA:221,1
DA:224,1
DA:226,1
DA:227,1
DA:228,1
DA:229,1
DA:230,0
DA:231,0
DA:233,1
DA:236,1
DA:238,1
DA:239,1
DA:240,1
DA:241,1
DA:242,0
DA:243,0
DA:245,1
DA:248,1
DA:249,1
DA:250,1
DA:251,1
DA:252,1
DA:253,0
DA:254,0
DA:256,1
BRF:0
BRH:0
LF:99
LH:77
end_of_record
SF:/app/src/parser/mod.rs
FN:64,_RNvNtCsluBEq34Hdgp_6glossa6parser12parse_source
FN:89,_RNvNtCsluBEq34Hdgp_6glossa6parser15build_statement
FN:59,_RNvNtCsluBEq34Hdgp_6glossa6parser5parse
FN:68,_RNCNvNtCsluBEq34Hdgp_6glossa6parser12parse_source0B5_
FN:41,_RNvXNtCsluBEq34Hdgp_6glossa6parserNtNtB4_6errors11GlossaErrorINtNtCs3XFJfFEDSOQ_4core7convert4FromNtNtB2_6common10ParseErrorE4from
FN:64,_RNvNtCs4cnvRHYBibt_6glossa6parser12parse_source
FN:89,_RNvNtCs4cnvRHYBibt_6glossa6parser15build_statement
FN:59,_RNvNtCs4cnvRHYBibt_6glossa6parser5parse
FN:131,_RNvNtNtCs4cnvRHYBibt_6glossa6parser5tests10first_expr
FN:142,_RNvNtNtCs4cnvRHYBibt_6glossa6parser5testss_23test_parse_source_hello
FN:194,_RNvNtNtCs4cnvRHYBibt_6glossa6parser5testss_23test_parse_source_query
FN:210,_RNvNtNtCs4cnvRHYBibt_6glossa6parser5testss_23test_word_normalization
FN:224,_RNvNtNtCs4cnvRHYBibt_6glossa6parser5testss_28test_parse_source_with_comma
FN:234,_RNvNtNtCs4cnvRHYBibt_6glossa6parser5testss_29test_recursion_limit_exceeded
FN:183,_RNvNtNtCs4cnvRHYBibt_6glossa6parser5testss_32test_parse_source_number_literal
FN:151,_RNvNtNtCs4cnvRHYBibt_6glossa6parser5testss_32test_parse_source_string_literal
FN:246,_RNvNtNtCs4cnvRHYBibt_6glossa6parser5testss_33test_recursion_limit_not_exceeded
FN:164,_RNvNtNtCs4cnvRHYBibt_6glossa6parser5testss_34test_parse_source_variable_binding
FN:272,_RNvNtNtCs4cnvRHYBibt_6glossa6parser5testss_35test_recursion_limit_mixed_brackets
FN:202,_RNvNtNtCs4cnvRHYBibt_6glossa6parser5testss_37test_parse_source_multiple_statements
FN:256,_RNvNtNtCs4cnvRHYBibt_6glossa6parser5testss_38test_recursion_limit_ignored_in_string
FN:264,_RNvNtNtCs4cnvRHYBibt_6glossa6parser5testss_39test_recursion_limit_ignored_in_comment
FN:290,_RNvNtNtCs4cnvRHYBibt_6glossa6parser5testss_40test_recursion_limit_unbalanced_but_safe
FN:68,_RNCNvNtCs4cnvRHYBibt_6glossa6parser12parse_source0B5_
FN:41,_RNvXNtCs4cnvRHYBibt_6glossa6parserNtNtB4_6errors11GlossaErrorINtNtCs3XFJfFEDSOQ_4core7convert4FromNtNtB2_6common10ParseErrorE4from
FNDA:2322,_RNvNtCsluBEq34Hdgp_6glossa6parser12parse_source
FNDA:845,_RNvNtCsluBEq34Hdgp_6glossa6parser15build_statement
FNDA:2322,_RNvNtCsluBEq34Hdgp_6glossa6parser5parse
FNDA:1726,_RNCNvNtCsluBEq34Hdgp_6glossa6parser12parse_source0B5_
FNDA:1785,_RNvXNtCsluBEq34Hdgp_6glossa6parserNtNtB4_6errors11GlossaErrorINtNtCs3XFJfFEDSOQ_4core7convert4FromNtNtB2_6common10ParseErrorE4from
FNDA:150,_RNvNtCs4cnvRHYBibt_6glossa6parser12parse_source
FNDA:1439,_RNvNtCs4cnvRHYBibt_6glossa6parser15build_statement
FNDA:149,_RNvNtCs4cnvRHYBibt_6glossa6parser5parse
FNDA:4,_RNvNtNtCs4cnvRHYBibt_6glossa6parser5tests10first_expr
FNDA:1,_RNvNtNtCs4cnvRHYBibt_6glossa6parser5testss_23test_parse_source_hello
FNDA:1,_RNvNtNtCs4cnvRHYBibt_6glossa6parser5testss_23test_parse_source_query
FNDA:1,_RNvNtNtCs4cnvRHYBibt_6glossa6parser5testss_23test_word_normalization
FNDA:1,_RNvNtNtCs4cnvRHYBibt_6glossa6parser5testss_28test_parse_source_with_comma
FNDA:1,_RNvNtNtCs4cnvRHYBibt_6glossa6parser5testss_29test_recursion_limit_exceeded
FNDA:1,_RNvNtNtCs4cnvRHYBibt_6glossa6parser5testss_32test_parse_source_number_literal
FNDA:1,_RNvNtNtCs4cnvRHYBibt_6glossa6parser5testss_32test_parse_source_string_literal
FNDA:1,_RNvNtNtCs4cnvRHYBibt_6glossa6parser5testss_33test_recursion_limit_not_exceeded
FNDA:1,_RNvNtNtCs4cnvRHYBibt_6glossa6parser5testss_34test_parse_source_variable_binding
FNDA:1,_RNvNtNtCs4cnvRHYBibt_6glossa6parser5testss_35test_recursion_limit_mixed_brackets
FNDA:1,_RNvNtNtCs4cnvRHYBibt_6glossa6parser5testss_37test_parse_source_multiple_statements
FNDA:1,_RNvNtNtCs4cnvRHYBibt_6glossa6parser5testss_38test_recursion_limit_ignored_in_string
FNDA:1,_RNvNtNtCs4cnvRHYBibt_6glossa6parser5testss_39test_recursion_limit_ignored_in_comment
FNDA:1,_RNvNtNtCs4cnvRHYBibt_6glossa6parser5testss_40test_recursion_limit_unbalanced_but_safe
FNDA:5,_RNCNvNtCs4cnvRHYBibt_6glossa6parser12parse_source0B5_
FNDA:5,_RNvXNtCs4cnvRHYBibt_6glossa6parserNtNtB4_6errors11GlossaErrorINtNtCs3XFJfFEDSOQ_4core7convert4FromNtNtB2_6common10ParseErrorE4from
FNF:20
FNH:20
DA:41,1790
DA:42,1790
DA:43,1790
DA:59,2471
DA:60,2471
DA:61,2471
DA:64,2472
DA:66,2472
DA:68,2468
DA:70,737
DA:72,1418
DA:73,737
DA:74,737
DA:77,737
DA:78,3579
DA:79,2898
DA:80,2217
DA:81,681
DA:83,0
DA:86,681
DA:87,2472
DA:89,2284
DA:90,2284
DA:91,2284
DA:92,2284
DA:93,2284
DA:95,2284
DA:97,14
DA:101,50
DA:103,50
DA:108,34
DA:110,34
DA:115,24
DA:116,24
DA:118,2162
DA:119,0
DA:120,0
DA:121,0
DA:122,0
DA:124,2284
DA:131,4
DA:132,4
DA:133,4
DA:134,0
DA:135,0
DA:136,0
DA:137,0
DA:139,4
DA:142,1
DA:143,1
DA:144,1
DA:146,1
DA:147,1
DA:148,1
DA:151,1
DA:152,1
DA:153,1
DA:155,1
DA:156,1
DA:157,1
DA:159,0
DA:161,1
DA:164,1
DA:165,1
DA:166,1
DA:168,1
DA:169,1
DA:172,1
DA:173,1
DA:174,1
DA:175,1
DA:176,0
DA:178,0
DA:180,1
DA:183,1
DA:184,1
DA:185,1
DA:187,1
DA:188,1
DA:189,1
DA:190,0
DA:191,1
DA:194,1
DA:195,1
DA:196,1
DA:198,1
DA:199,1
DA:202,1
DA:203,1
DA:204,1
DA:206,1
DA:207,1
DA:210,1
DA:211,1
DA:212,1
DA:214,1
DA:215,1
DA:216,1
DA:218,1
DA:219,1
DA:220,0
DA:221,1
DA:224,1
DA:226,1
DA:227,1
DA:229,1
DA:230,1
DA:231,1
DA:234,1
DA:237,1
DA:238,1
DA:239,1
DA:240,1
DA:243,1
DA:246,1
DA:249,1
DA:251,1
DA:252,1
DA:253,1
DA:256,1
DA:258,1
DA:259,1
DA:260,1
DA:261,1
DA:264,1
DA:266,1
DA:267,1
DA:268,1
DA:269,1
DA:272,1
DA:276,1
DA:277,1
DA:278,1
DA:279,1
DA:280,1
DA:281,1
DA:282,1
DA:283,1
DA:284,1
DA:287,1
DA:290,1
DA:293,1
DA:294,1
DA:295,1
DA:296,1
DA:297,1
BRF:0
BRH:0
LF:147
LH:133
end_of_record
SF:/app/src/parser/numerals.rs
FN:46,_RNCNvNtNtCsluBEq34Hdgp_6glossa6parser8numerals19parse_greek_numeral0B7_
FN:105,_RNCNvNtNtCsluBEq34Hdgp_6glossa6parser8numerals19parse_greek_numerals0_0B7_
FN:101,_RNCNvNtNtCsluBEq34Hdgp_6glossa6parser8numerals19parse_greek_numerals_0B7_
FN:36,_RNvNtNtCsluBEq34Hdgp_6glossa6parser8numerals19parse_greek_numeral
FN:36,_RNvNtNtCs4cnvRHYBibt_6glossa6parser8numerals19parse_greek_numeral
FN:46,_RNCNvNtNtCs4cnvRHYBibt_6glossa6parser8numerals19parse_greek_numeral0B7_
FN:105,_RNCNvNtNtCs4cnvRHYBibt_6glossa6parser8numerals19parse_greek_numerals0_0B7_
FN:101,_RNCNvNtNtCs4cnvRHYBibt_6glossa6parser8numerals19parse_greek_numerals_0B7_
FN:132,_RNvNtNtNtCs4cnvRHYBibt_6glossa6parser8numerals5testss_10test_teens
FN:125,_RNvNtNtNtCs4cnvRHYBibt_6glossa6parser8numerals5testss_10test_units
FN:160,_RNvNtNtNtCs4cnvRHYBibt_6glossa6parser8numerals5testss_12test_archaic
FN:180,_RNvNtNtNtCs4cnvRHYBibt_6glossa6parser8numerals5testss_12test_invalid
FN:146,_RNvNtNtNtCs4cnvRHYBibt_6glossa6parser8numerals5testss_13test_hundreds
FN:152,_RNvNtNtNtCs4cnvRHYBibt_6glossa6parser8numerals5testss_14test_thousands
FN:202,_RNvNtNtNtCs4cnvRHYBibt_6glossa6parser8numerals5testss_18test_full_coverage
FN:193,_RNvNtNtNtCs4cnvRHYBibt_6glossa6parser8numerals5testss_20test_sigma_uppercase
FN:185,_RNvNtNtNtCs4cnvRHYBibt_6glossa6parser8numerals5testss_9test_2024
FN:139,_RNvNtNtNtCs4cnvRHYBibt_6glossa6parser8numerals5testss_9test_tens
FNDA:102439,_RNCNvNtNtCsluBEq34Hdgp_6glossa6parser8numerals19parse_greek_numeral0B7_
FNDA:0,_RNCNvNtNtCsluBEq34Hdgp_6glossa6parser8numerals19parse_greek_numerals0_0B7_
FNDA:0,_RNCNvNtNtCsluBEq34Hdgp_6glossa6parser8numerals19parse_greek_numerals_0B7_
FNDA:1063,_RNvNtNtCsluBEq34Hdgp_6glossa6parser8numerals19parse_greek_numeral
FNDA:58,_RNvNtNtCs4cnvRHYBibt_6glossa6parser8numerals19parse_greek_numeral
FNDA:133,_RNCNvNtNtCs4cnvRHYBibt_6glossa6parser8numerals19parse_greek_numeral0B7_
FNDA:0,_RNCNvNtNtCs4cnvRHYBibt_6glossa6parser8numerals19parse_greek_numerals0_0B7_
FNDA:0,_RNCNvNtNtCs4cnvRHYBibt_6glossa6parser8numerals19parse_greek_numerals_0B7_
FNDA:1,_RNvNtNtNtCs4cnvRHYBibt_6glossa6parser8numerals5testss_10test_teens
FNDA:1,_RNvNtNtNtCs4cnvRHYBibt_6glossa6parser8numerals5testss_10test_units
FNDA:1,_RNvNtNtNtCs4cnvRHYBibt_6glossa6parser8numerals5testss_12test_archaic
FNDA:1,_RNvNtNtNtCs4cnvRHYBibt_6glossa6parser8numerals5testss_12test_invalid
FNDA:1,_RNvNtNtNtCs4cnvRHYBibt_6glossa6parser8numerals5testss_13test_hundreds
FNDA:1,_RNvNtNtNtCs4cnvRHYBibt_6glossa6parser8numerals5testss_14test_thousands
FNDA:1,_RNvNtNtNtCs4cnvRHYBibt_6glossa6parser8numerals5testss_18test_full_coverage
FNDA:1,_RNvNtNtNtCs4cnvRHYBibt_6glossa6parser8numerals5testss_20test_sigma_uppercase
FNDA:1,_RNvNtNtNtCs4cnvRHYBibt_6glossa6parser8numerals5testss_9test_2024
FNDA:1,_RNvNtNtNtCs4cnvRHYBibt_6glossa6parser8numerals5testss_9test_tens
FNF:14
FNH:12
DA:36,1121
DA:37,1121
DA:38,1121
DA:42,1121
DA:43,1121
DA:44,1121
DA:45,1121
DA:46,102572
DA:48,102403
DA:49,102267
DA:53,82
DA:57,18
DA:58,18
DA:63,102167
DA:64,68
DA:65,38
DA:66,33
DA:67,33
DA:68,57
DA:69,38
DA:70,21
DA:71,53
DA:72,45
DA:73,102
DA:74,40
DA:75,30
DA:76,36
DA:77,36
DA:78,39
DA:79,64
DA:80,25
DA:81,56
DA:82,30
DA:83,32
DA:84,23
DA:85,97
DA:86,28
DA:87,34
DA:88,23
DA:89,60
DA:90,100041
DA:92,985
DA:93,985
DA:94,985
DA:95,985
DA:99,101182
DA:100,101182
DA:101,101182
DA:103,101182
DA:104,101182
DA:105,101182
DA:108,101182
DA:113,136
DA:114,37
DA:115,99
DA:117,99
DA:118,1121
DA:125,1
DA:126,1
DA:127,1
DA:128,1
DA:129,1
DA:132,1
DA:133,1
DA:134,1
DA:135,1
DA:136,1
DA:139,1
DA:140,1
DA:141,1
DA:142,1
DA:143,1
DA:146,1
DA:147,1
DA:148,1
DA:149,1
DA:152,1
DA:153,1
DA:154,1
DA:155,1
DA:156,1
DA:157,1
DA:160,1
DA:162,1
DA:163,1
DA:166,1
DA:167,1
DA:170,1
DA:171,1
DA:174,1
DA:176,1
DA:177,1
DA:180,1
DA:181,1
DA:182,1
DA:185,1
DA:189,1
DA:190,1
DA:193,1
DA:196,1
DA:197,1
DA:198,1
DA:199,1
DA:202,1
DA:204,1
DA:205,1
DA:206,1
DA:207,1
DA:208,1
DA:209,1
DA:210,1
DA:211,1
DA:212,1
DA:213,1
DA:214,1
DA:215,1
DA:216,1
DA:217,1
DA:218,1
DA:219,1
DA:220,1
DA:221,1
DA:222,1
DA:223,1
DA:224,1
DA:225,1
DA:226,1
DA:227,1
DA:228,1
DA:229,1
DA:230,1
DA:231,1
DA:232,1
DA:233,1
DA:234,1
DA:235,1
DA:237,31
DA:239,30
DA:240,30
DA:241,30
DA:243,0
DA:247,1
BRF:0
BRH:0
LF:145
LH:142
end_of_record
SF:/app/src/parser/recursion.rs
FN:9,_RNvNtNtCsluBEq34Hdgp_6glossa6parser9recursion21check_recursion_depth
FN:9,_RNvNtNtCs4cnvRHYBibt_6glossa6parser9recursion21check_recursion_depth
FNDA:2322,_RNvNtNtCsluBEq34Hdgp_6glossa6parser9recursion21check_recursion_depth
FNDA:155,_RNvNtNtCs4cnvRHYBibt_6glossa6parser9recursion21check_recursion_depth
FNF:1
FNH:1
DA:9,2477
DA:11,2477
DA:12,2477
DA:13,2477
DA:14,2477
DA:21,20196462
DA:22,20193990
DA:23,20193990
DA:25,6987
DA:26,266
DA:27,266
DA:28,6721
DA:29,6721
DA:30,6721
DA:37,20187003
DA:38,514
DA:39,514
DA:40,1
DA:41,513
DA:42,513
DA:43,513
DA:44,20186489
DA:47,20186489
DA:48,15
DA:49,15
DA:50,15
DA:51,20186474
DA:53,20186474
DA:56,3359
DA:57,364
DA:58,364
DA:59,2995
DA:60,2995
DA:61,2995
DA:64,4315
DA:65,4315
DA:66,4
DA:67,4311
DA:68,4311
DA:70,1999
DA:71,1999
DA:72,1999
DA:73,1999
DA:75,488
DA:77,34
DA:78,2152
DA:79,2142
DA:80,2142
DA:81,2142
DA:82,24
DA:83,2118
DA:85,454
DA:86,454
DA:87,454
DA:89,20176313
DA:90,20176313
DA:91,20176313
DA:95,2472
DA:96,2477
BRF:0
BRH:0
LF:59
LH:59
end_of_record
SF:/app/src/parser/statements.rs
FN:42,_RNvNtNtCsluBEq34Hdgp_6glossa6parser10statements12build_clause
FN:27,_RNvNtNtCsluBEq34Hdgp_6glossa6parser10statements13build_clauses
FN:54,_RNvNtNtCsluBEq34Hdgp_6glossa6parser10statements19parse_statement_end
FN:7,_RNvNtNtCsluBEq34Hdgp_6glossa6parser10statements23build_regular_statement
FN:42,_RNvNtNtCs4cnvRHYBibt_6glossa6parser10statements12build_clause
FN:27,_RNvNtNtCs4cnvRHYBibt_6glossa6parser10statements13build_clauses
FN:54,_RNvNtNtCs4cnvRHYBibt_6glossa6parser10statements19parse_statement_end
FN:7,_RNvNtNtCs4cnvRHYBibt_6glossa6parser10statements23build_regular_statement
FNDA:2765,_RNvNtNtCsluBEq34Hdgp_6glossa6parser10statements12build_clause
FNDA:737,_RNvNtNtCsluBEq34Hdgp_6glossa6parser10statements13build_clauses
FNDA:681,_RNvNtNtCsluBEq34Hdgp_6glossa6parser10statements19parse_statement_end
FNDA:737,_RNvNtNtCsluBEq34Hdgp_6glossa6parser10statements23build_regular_statement
FNDA:1428,_RNvNtNtCs4cnvRHYBibt_6glossa6parser10statements12build_clause
FNDA:1425,_RNvNtNtCs4cnvRHYBibt_6glossa6parser10statements13build_clauses
FNDA:1425,_RNvNtNtCs4cnvRHYBibt_6glossa6parser10statements19parse_statement_end
FNDA:1425,_RNvNtNtCs4cnvRHYBibt_6glossa6parser10statements23build_regular_statement
FNF:4
FNH:4
DA:7,2162
DA:8,2162
DA:9,2162
DA:10,2162
DA:11,2162
DA:12,2106
DA:13,2106
DA:14,2106
DA:15,2106
DA:16,2106
DA:17,2106
DA:18,2106
DA:19,2106
DA:20,2106
DA:21,2162
DA:27,2162
DA:28,2162
DA:29,2162
DA:30,8330
DA:31,6224
DA:32,4193
DA:33,2031
DA:35,2106
DA:36,2162
DA:42,4193
DA:43,4193
DA:44,4193
DA:46,12386
DA:47,8249
DA:48,6221
DA:49,2028
DA:51,4137
DA:52,4193
DA:54,2106
DA:55,2106
DA:56,2106
DA:57,2106
DA:58,2106
DA:59,9
DA:60,13
DA:61,2084
DA:64,2106
DA:65,2106
BRF:0
BRH:0
LF:43
LH:43
end_of_record
SF:/app/src/semantic/analyzer.rs
FN:53,_RNCNvXs0_NtNtCsluBEq34Hdgp_6glossa8semantic8analyzerNtB7_16SemanticAnalyzerNtNtB9_6traits17StatementAnalyzer17analyze_statement0Bb_
FN:22,_RNvMNtNtCsluBEq34Hdgp_6glossa8semantic8analyzerNtB2_16SemanticAnalyzer3new
FN:151,_RNvNtNtCsluBEq34Hdgp_6glossa8semantic8analyzer15analyze_program
FN:128,_RNvNtNtCsluBEq34Hdgp_6glossa8semantic8analyzer17analyze_statement
FN:136,_RNvNtNtCsluBEq34Hdgp_6glossa8semantic8analyzer24extract_block_statements
FN:34,_RNvXs0_NtNtCsluBEq34Hdgp_6glossa8semantic8analyzerNtB5_16SemanticAnalyzerNtNtB7_6traits17StatementAnalyzer17analyze_statement
FN:28,_RNvXs_NtNtCsluBEq34Hdgp_6glossa8semantic8analyzerNtB4_16SemanticAnalyzerNtNtCs3XFJfFEDSOQ_4core7default7Default7default
FN:53,_RNCNvXs0_NtNtCs4cnvRHYBibt_6glossa8semantic8analyzerNtB7_16SemanticAnalyzerNtNtB9_6traits17StatementAnalyzer17analyze_statement0Bb_
FN:128,_RNvNtNtCs4cnvRHYBibt_6glossa8semantic8analyzer17analyze_statement
FN:28,_RNvXs_NtNtCs4cnvRHYBibt_6glossa8semantic8analyzerNtB4_16SemanticAnalyzerNtNtCs3XFJfFEDSOQ_4core7default7Default7default
FN:22,_RNvMNtNtCs4cnvRHYBibt_6glossa8semantic8analyzerNtB2_16SemanticAnalyzer3new
FN:151,_RNvNtNtCs4cnvRHYBibt_6glossa8semantic8analyzer15analyze_program
FN:136,_RNvNtNtCs4cnvRHYBibt_6glossa8semantic8analyzer24extract_block_statements
FN:34,_RNvXs0_NtNtCs4cnvRHYBibt_6glossa8semantic8analyzerNtB5_16SemanticAnalyzerNtNtB7_6traits17StatementAnalyzer17analyze_statement
FNDA:11,_RNCNvXs0_NtNtCsluBEq34Hdgp_6glossa8semantic8analyzerNtB7_16SemanticAnalyzerNtNtB9_6traits17StatementAnalyzer17analyze_statement0Bb_
FNDA:477,_RNvMNtNtCsluBEq34Hdgp_6glossa8semantic8analyzerNtB2_16SemanticAnalyzer3new
FNDA:477,_RNvNtNtCsluBEq34Hdgp_6glossa8semantic8analyzer15analyze_program
FNDA:0,_RNvNtNtCsluBEq34Hdgp_6glossa8semantic8analyzer17analyze_statement
FNDA:705,_RNvNtNtCsluBEq34Hdgp_6glossa8semantic8analyzer24extract_block_statements
FNDA:798,_RNvXs0_NtNtCsluBEq34Hdgp_6glossa8semantic8analyzerNtB5_16SemanticAnalyzerNtNtB7_6traits17StatementAnalyzer17analyze_statement
FNDA:0,_RNvXs_NtNtCsluBEq34Hdgp_6glossa8semantic8analyzerNtB4_16SemanticAnalyzerNtNtCs3XFJfFEDSOQ_4core7default7Default7default
FNDA:0,_RNCNvXs0_NtNtCs4cnvRHYBibt_6glossa8semantic8analyzerNtB7_16SemanticAnalyzerNtNtB9_6traits17StatementAnalyzer17analyze_statement0Bb_
FNDA:0,_RNvNtNtCs4cnvRHYBibt_6glossa8semantic8analyzer17analyze_statement
FNDA:0,_RNvXs_NtNtCs4cnvRHYBibt_6glossa8semantic8analyzerNtB4_16SemanticAnalyzerNtNtCs3XFJfFEDSOQ_4core7default7Default7default
FNDA:98,_RNvMNtNtCs4cnvRHYBibt_6glossa8semantic8analyzerNtB2_16SemanticAnalyzer3new
FNDA:98,_RNvNtNtCs4cnvRHYBibt_6glossa8semantic8analyzer15analyze_program
FNDA:1378,_RNvNtNtCs4cnvRHYBibt_6glossa8semantic8analyzer24extract_block_statements
FNDA:1379,_RNvXs0_NtNtCs4cnvRHYBibt_6glossa8semantic8analyzerNtB5_16SemanticAnalyzerNtNtB7_6traits17StatementAnalyzer17analyze_statement
FNF:7
FNH:5
DA:22,575
DA:23,575
DA:24,575
DA:28,0
DA:29,0
DA:30,0
DA:34,2177
DA:35,2177
DA:36,2177
DA:37,2177
DA:38,2177
DA:40,2177
DA:41,17
DA:45,17
DA:46,17
DA:47,17
DA:49,17
DA:51,17
DA:52,17
DA:53,17
DA:54,17
DA:55,17
DA:56,0
DA:57,17
DA:58,2160
DA:61,2160
DA:62,47
DA:63,2112
DA:66,2112
DA:67,27
DA:68,2084
DA:71,2084
DA:72,1
DA:73,2083
DA:76,2083
DA:77,3
DA:80,3
DA:81,7
DA:82,4
DA:84,3
DA:85,2080
DA:88,2080
DA:89,2075
DA:90,2068
DA:91,2177
DA:128,0
DA:129,0
DA:130,0
DA:131,0
DA:132,0
DA:133,0
DA:134,0
DA:136,2083
DA:137,2083
DA:138,2083
DA:139,2082
DA:140,2081
DA:142,3
DA:144,2080
DA:146,2083
DA:151,575
DA:152,575
DA:154,575
DA:155,575
DA:157,2640
DA:159,2086
DA:160,44
DA:161,44
DA:162,44
DA:163,44
DA:164,3
DA:165,41
DA:166,2042
DA:169,2042
DA:170,28
DA:171,28
DA:172,28
DA:173,28
DA:174,1
DA:175,27
DA:176,2014
DA:179,2014
DA:180,21
DA:181,18
DA:182,1993
DA:185,1993
DA:186,8
DA:187,8
DA:188,8
DA:189,8
DA:190,0
DA:191,8
DA:192,1985
DA:195,1985
DA:198,554
DA:199,554
DA:200,554
DA:201,554
DA:203,554
DA:205,554
DA:206,575
BRF:0
BRH:0
LF:102
LH:90
end_of_record
SF:/app/src/semantic/assembly/mod.rs
FN:314,_RNvMNtNtCsluBEq34Hdgp_6glossa8semantic8assemblyNtB2_9Assembler10feed_array
FN:335,_RNvMNtNtCsluBEq34Hdgp_6glossa8semantic8assemblyNtB2_9Assembler10feed_block
FN:270,_RNvMNtNtCsluBEq34Hdgp_6glossa8semantic8assemblyNtB2_9Assembler11feed_number
FN:249,_RNvMNtNtCsluBEq34Hdgp_6glossa8semantic8assemblyNtB2_9Assembler11feed_string
FN:415,_RNvMNtNtCsluBEq34Hdgp_6glossa8semantic8assemblyNtB2_9Assembler11feed_unwrap
FN:574,_RNvMNtNtCsluBEq34Hdgp_6glossa8semantic8assemblyNtB2_9Assembler11handle_verb
FN:291,_RNvMNtNtCsluBEq34Hdgp_6glossa8semantic8assemblyNtB2_9Assembler12feed_boolean
FN:533,_RNvMNtNtCsluBEq34Hdgp_6glossa8semantic8assemblyNtB2_9Assembler13handle_dative
FN:165,_RNvMNtNtCsluBEq34Hdgp_6glossa8semantic8assemblyNtB2_9Assembler13set_propagate
FN:474,_RNvMNtNtCsluBEq34Hdgp_6glossa8semantic8assemblyNtB2_9Assembler14handle_nominal
FN:871,_RNvMNtNtCsluBEq34Hdgp_6glossa8semantic8assemblyNtB2_9Assembler15check_agreement
FN:763,_RNvMNtNtCsluBEq34Hdgp_6glossa8semantic8assemblyNtB2_9Assembler15check_operators
FN:446,_RNvMNtNtCsluBEq34Hdgp_6glossa8semantic8assemblyNtB2_9Assembler15feed_participle
FN:542,_RNvMNtNtCsluBEq34Hdgp_6glossa8semantic8assemblyNtB2_9Assembler15handle_genitive
FN:554,_RNvMNtNtCsluBEq34Hdgp_6glossa8semantic8assemblyNtB2_9Assembler15handle_vocative
FN:607,_RNvMNtNtCsluBEq34Hdgp_6glossa8semantic8assemblyNtB2_9Assembler16handle_adjective
FN:388,_RNvMNtNtCsluBEq34Hdgp_6glossa8semantic8assemblyNtB2_9Assembler17feed_index_access
FN:525,_RNvMNtNtCsluBEq34Hdgp_6glossa8semantic8assemblyNtB2_9Assembler17handle_accusative
FN:501,_RNvMNtNtCsluBEq34Hdgp_6glossa8semantic8assemblyNtB2_9Assembler17handle_nominative
FN:744,_RNvMNtNtCsluBEq34Hdgp_6glossa8semantic8assemblyNtB2_9Assembler18check_method_verbs
FN:360,_RNvMNtNtCsluBEq34Hdgp_6glossa8semantic8assemblyNtB2_9Assembler18feed_nested_phrase
FN:562,_RNvMNtNtCsluBEq34Hdgp_6glossa8semantic8assemblyNtB2_9Assembler19handle_unknown_case
FN:199,_RNvMNtNtCsluBEq34Hdgp_6glossa8semantic8assemblyNtB2_9Assembler20feed_with_normalized
FN:684,_RNvMNtNtCsluBEq34Hdgp_6glossa8semantic8assemblyNtB2_9Assembler21check_special_markers
FN:815,_RNvMNtNtCsluBEq34Hdgp_6glossa8semantic8assemblyNtB2_9Assembler24check_special_properties
FN:715,_RNvMNtNtCsluBEq34Hdgp_6glossa8semantic8assemblyNtB2_9Assembler24try_create_string_method
FN:153,_RNvMNtNtCsluBEq34Hdgp_6glossa8semantic8assemblyNtB2_9Assembler3new
FN:190,_RNvMNtNtCsluBEq34Hdgp_6glossa8semantic8assemblyNtB2_9Assembler4feed
FN:662,_RNvMNtNtCsluBEq34Hdgp_6glossa8semantic8assemblyNtB2_9Assembler8finalize
FN:160,_RNvMNtNtCsluBEq34Hdgp_6glossa8semantic8assemblyNtB2_9Assembler9set_query
FN:908,_RNvXs_NtNtCsluBEq34Hdgp_6glossa8semantic8assemblyNtB4_9AssemblerNtNtCs3XFJfFEDSOQ_4core7default7Default7default
FN:696,_RNCNvMNtNtCsluBEq34Hdgp_6glossa8semantic8assemblyNtB4_9Assembler21check_special_markers0B8_
FN:908,_RNvXs_NtNtCs4cnvRHYBibt_6glossa8semantic8assemblyNtB4_9AssemblerNtNtCs3XFJfFEDSOQ_4core7default7Default7default
FN:696,_RNCNvMNtNtCs4cnvRHYBibt_6glossa8semantic8assemblyNtB4_9Assembler21check_special_markers0B8_
FN:1471,_RNvNtNtNtCs4cnvRHYBibt_6glossa8semantic8assembly5tests13make_analysis
FN:1064,_RNvNtNtNtCs4cnvRHYBibt_6glossa8semantic8assembly5testss_13test_literals
FN:989,_RNvNtNtNtCs4cnvRHYBibt_6glossa8semantic8assembly5testss_15test_simple_sov
FN:1012,_RNvNtNtNtCs4cnvRHYBibt_6glossa8semantic8assembly5testss_20test_vso_same_result
FN:1051,_RNvNtNtNtCs4cnvRHYBibt_6glossa8semantic8assembly5testss_22test_double_verb_error
FN:919,_RNvNtNtNtCs4cnvRHYBibt_6glossa8semantic8assembly5testss_23test_operator_detection
FN:1166,_RNvNtNtNtCs4cnvRHYBibt_6glossa8semantic8assembly5testss_24test_double_object_error
FN:1078,_RNvNtNtNtCs4cnvRHYBibt_6glossa8semantic8assembly5testss_24test_genitive_possession
FN:1224,_RNvNtNtNtCs4cnvRHYBibt_6glossa8semantic8assembly5testss_24test_imperative_mismatch
FN:1682,_RNvNtNtNtCs4cnvRHYBibt_6glossa8semantic8assembly5testss_24test_max_arrays_exceeded
FN:1757,_RNvNtNtNtCs4cnvRHYBibt_6glossa8semantic8assembly5testss_24test_max_blocks_exceeded
FN:936,_RNvNtNtNtCs4cnvRHYBibt_6glossa8semantic8assembly5testss_25test_boolean_or_detection
FN:1744,_RNvNtNtNtCs4cnvRHYBibt_6glossa8semantic8assembly5testss_25test_max_unwraps_exceeded
FN:1035,_RNvNtNtNtCs4cnvRHYBibt_6glossa8semantic8assembly5testss_25test_multiple_nominatives
FN:1492,_RNvNtNtNtCs4cnvRHYBibt_6glossa8semantic8assembly5testss_26test_max_literals_exceeded
FN:1094,_RNvNtNtNtCs4cnvRHYBibt_6glossa8semantic8assembly5testss_27test_dative_indirect_object
FN:1578,_RNvNtNtNtCs4cnvRHYBibt_6glossa8semantic8assembly5testss_27test_max_genitives_exceeded
FN:1564,_RNvNtNtNtCs4cnvRHYBibt_6glossa8semantic8assembly5testss_27test_max_operators_exceeded
FN:1267,_RNvNtNtNtCs4cnvRHYBibt_6glossa8semantic8assembly5testss_28test_gender_mismatch_ignored
FN:1538,_RNvNtNtNtCs4cnvRHYBibt_6glossa8semantic8assembly5testss_28test_max_adjectives_exceeded
FN:1322,_RNvNtNtNtCs4cnvRHYBibt_6glossa8semantic8assembly5testss_28test_split_method_generation
FN:1663,_RNvNtNtNtCs4cnvRHYBibt_6glossa8semantic8assembly5testss_29test_disambiguation_en_vs_hen
FN:1504,_RNvNtNtNtCs4cnvRHYBibt_6glossa8semantic8assembly5testss_29test_max_nominatives_exceeded
FN:1721,_RNvNtNtNtCs4cnvRHYBibt_6glossa8semantic8assembly5testss_29test_max_participles_exceeded
FN:954,_RNvNtNtNtCs4cnvRHYBibt_6glossa8semantic8assembly5testss_31test_full_boolean_or_expression
FN:1109,_RNvNtNtNtCs4cnvRHYBibt_6glossa8semantic8assembly5testss_31test_verb_constituent_has_voice
FN:1694,_RNvNtNtNtCs4cnvRHYBibt_6glossa8semantic8assembly5testss_32test_max_index_accesses_exceeded
FN:1709,_RNvNtNtNtCs4cnvRHYBibt_6glossa8semantic8assembly5testss_32test_max_nested_phrases_exceeded
FN:1123,_RNvNtNtNtCs4cnvRHYBibt_6glossa8semantic8assembly5testss_34test_subject_verb_person_agreement
FN:1769,_RNvNtNtNtCs4cnvRHYBibt_6glossa8semantic8assembly5testss_35test_max_property_accesses_exceeded
FN:1431,_RNvNtNtNtCs4cnvRHYBibt_6glossa8semantic8assembly5testss_36test_immediate_agreement_failure_svo
FN:1390,_RNvNtNtNtCs4cnvRHYBibt_6glossa8semantic8assembly5testss_36test_immediate_agreement_failure_vso
FN:1604,_RNvNtNtNtCs4cnvRHYBibt_6glossa8semantic8assembly5testss_38test_silent_swallowing_of_unknown_case
FN:1181,_RNvNtNtNtCs4cnvRHYBibt_6glossa8semantic8assembly5testss_40test_neuter_plural_subject_singular_verb
FN:1625,_RNvNtNtNtCs4cnvRHYBibt_6glossa8semantic8assembly5testss_44test_neuter_plural_subject_first_person_verb
FN:1806,_RNvNtNtNtCs4cnvRHYBibt_6glossa8semantic8assembly5testss_48test_unknown_case_becomes_object_when_slot_empty
FN:314,_RNvMNtNtCs4cnvRHYBibt_6glossa8semantic8assemblyNtB2_9Assembler10feed_array
FN:335,_RNvMNtNtCs4cnvRHYBibt_6glossa8semantic8assemblyNtB2_9Assembler10feed_block
FN:270,_RNvMNtNtCs4cnvRHYBibt_6glossa8semantic8assemblyNtB2_9Assembler11feed_number
FN:249,_RNvMNtNtCs4cnvRHYBibt_6glossa8semantic8assemblyNtB2_9Assembler11feed_string
FN:415,_RNvMNtNtCs4cnvRHYBibt_6glossa8semantic8assemblyNtB2_9Assembler11feed_unwrap
FN:574,_RNvMNtNtCs4cnvRHYBibt_6glossa8semantic8assemblyNtB2_9Assembler11handle_verb
FN:291,_RNvMNtNtCs4cnvRHYBibt_6glossa8semantic8assemblyNtB2_9Assembler12feed_boolean
FN:533,_RNvMNtNtCs4cnvRHYBibt_6glossa8semantic8assemblyNtB2_9Assembler13handle_dative
FN:165,_RNvMNtNtCs4cnvRHYBibt_6glossa8semantic8assemblyNtB2_9Assembler13set_propagate
FN:474,_RNvMNtNtCs4cnvRHYBibt_6glossa8semantic8assemblyNtB2_9Assembler14handle_nominal
FN:871,_RNvMNtNtCs4cnvRHYBibt_6glossa8semantic8assemblyNtB2_9Assembler15check_agreement
FN:763,_RNvMNtNtCs4cnvRHYBibt_6glossa8semantic8assemblyNtB2_9Assembler15check_operators
FN:446,_RNvMNtNtCs4cnvRHYBibt_6glossa8semantic8assemblyNtB2_9Assembler15feed_participle
FN:542,_RNvMNtNtCs4cnvRHYBibt_6glossa8semantic8assemblyNtB2_9Assembler15handle_genitive
FN:554,_RNvMNtNtCs4cnvRHYBibt_6glossa8semantic8assemblyNtB2_9Assembler15handle_vocative
FN:607,_RNvMNtNtCs4cnvRHYBibt_6glossa8semantic8assemblyNtB2_9Assembler16handle_adjective
FN:388,_RNvMNtNtCs4cnvRHYBibt_6glossa8semantic8assemblyNtB2_9Assembler17feed_index_access
FN:525,_RNvMNtNtCs4cnvRHYBibt_6glossa8semantic8assemblyNtB2_9Assembler17handle_accusative
FN:501,_RNvMNtNtCs4cnvRHYBibt_6glossa8semantic8assemblyNtB2_9Assembler17handle_nominative
FN:744,_RNvMNtNtCs4cnvRHYBibt_6glossa8semantic8assemblyNtB2_9Assembler18check_method_verbs
FN:360,_RNvMNtNtCs4cnvRHYBibt_6glossa8semantic8assemblyNtB2_9Assembler18feed_nested_phrase
FN:562,_RNvMNtNtCs4cnvRHYBibt_6glossa8semantic8assemblyNtB2_9Assembler19handle_unknown_case
FN:199,_RNvMNtNtCs4cnvRHYBibt_6glossa8semantic8assemblyNtB2_9Assembler20feed_with_normalized
FN:684,_RNvMNtNtCs4cnvRHYBibt_6glossa8semantic8assemblyNtB2_9Assembler21check_special_markers
FN:815,_RNvMNtNtCs4cnvRHYBibt_6glossa8semantic8assemblyNtB2_9Assembler24check_special_properties
FN:715,_RNvMNtNtCs4cnvRHYBibt_6glossa8semantic8assemblyNtB2_9Assembler24try_create_string_method
FN:153,_RNvMNtNtCs4cnvRHYBibt_6glossa8semantic8assemblyNtB2_9Assembler3new
FN:190,_RNvMNtNtCs4cnvRHYBibt_6glossa8semantic8assemblyNtB2_9Assembler4feed
FN:662,_RNvMNtNtCs4cnvRHYBibt_6glossa8semantic8assemblyNtB2_9Assembler8finalize
FN:160,_RNvMNtNtCs4cnvRHYBibt_6glossa8semantic8assemblyNtB2_9Assembler9set_query
FNDA:312,_RNvMNtNtCsluBEq34Hdgp_6glossa8semantic8assemblyNtB2_9Assembler10feed_array
FNDA:260,_RNvMNtNtCsluBEq34Hdgp_6glossa8semantic8assemblyNtB2_9Assembler10feed_block
FNDA:3171,_RNvMNtNtCsluBEq34Hdgp_6glossa8semantic8assemblyNtB2_9Assembler11feed_number
FNDA:449,_RNvMNtNtCsluBEq34Hdgp_6glossa8semantic8assemblyNtB2_9Assembler11feed_string
FNDA:266,_RNvMNtNtCsluBEq34Hdgp_6glossa8semantic8assemblyNtB2_9Assembler11feed_unwrap
FNDA:586,_RNvMNtNtCsluBEq34Hdgp_6glossa8semantic8assemblyNtB2_9Assembler11handle_verb
FNDA:8,_RNvMNtNtCsluBEq34Hdgp_6glossa8semantic8assemblyNtB2_9Assembler12feed_boolean
FNDA:0,_RNvMNtNtCsluBEq34Hdgp_6glossa8semantic8assemblyNtB2_9Assembler13handle_dative
FNDA:838,_RNvMNtNtCsluBEq34Hdgp_6glossa8semantic8assemblyNtB2_9Assembler13set_propagate
FNDA:1813,_RNvMNtNtCsluBEq34Hdgp_6glossa8semantic8assemblyNtB2_9Assembler14handle_nominal
FNDA:818,_RNvMNtNtCsluBEq34Hdgp_6glossa8semantic8assemblyNtB2_9Assembler15check_agreement
FNDA:4280,_RNvMNtNtCsluBEq34Hdgp_6glossa8semantic8assemblyNtB2_9Assembler15check_operators
FNDA:311,_RNvMNtNtCsluBEq34Hdgp_6glossa8semantic8assemblyNtB2_9Assembler15feed_participle
FNDA:278,_RNvMNtNtCsluBEq34Hdgp_6glossa8semantic8assemblyNtB2_9Assembler15handle_genitive
FNDA:0,_RNvMNtNtCsluBEq34Hdgp_6glossa8semantic8assemblyNtB2_9Assembler15handle_vocative
FNDA:10,_RNvMNtNtCsluBEq34Hdgp_6glossa8semantic8assemblyNtB2_9Assembler16handle_adjective
FNDA:4,_RNvMNtNtCsluBEq34Hdgp_6glossa8semantic8assemblyNtB2_9Assembler17feed_index_access
FNDA:0,_RNvMNtNtCsluBEq34Hdgp_6glossa8semantic8assemblyNtB2_9Assembler17handle_accusative
FNDA:1535,_RNvMNtNtCsluBEq34Hdgp_6glossa8semantic8assemblyNtB2_9Assembler17handle_nominative
FNDA:4283,_RNvMNtNtCsluBEq34Hdgp_6glossa8semantic8assemblyNtB2_9Assembler18check_method_verbs
FNDA:263,_RNvMNtNtCsluBEq34Hdgp_6glossa8semantic8assemblyNtB2_9Assembler18feed_nested_phrase
FNDA:0,_RNvMNtNtCsluBEq34Hdgp_6glossa8semantic8assemblyNtB2_9Assembler19handle_unknown_case
FNDA:4299,_RNvMNtNtCsluBEq34Hdgp_6glossa8semantic8assemblyNtB2_9Assembler20feed_with_normalized
FNDA:4299,_RNvMNtNtCsluBEq34Hdgp_6glossa8semantic8assemblyNtB2_9Assembler21check_special_markers
FNDA:3162,_RNvMNtNtCsluBEq34Hdgp_6glossa8semantic8assemblyNtB2_9Assembler24check_special_properties
FNDA:3,_RNvMNtNtCsluBEq34Hdgp_6glossa8semantic8assemblyNtB2_9Assembler24try_create_string_method
FNDA:1094,_RNvMNtNtCsluBEq34Hdgp_6glossa8semantic8assemblyNtB2_9Assembler3new
FNDA:0,_RNvMNtNtCsluBEq34Hdgp_6glossa8semantic8assemblyNtB2_9Assembler4feed
FNDA:821,_RNvMNtNtCsluBEq34Hdgp_6glossa8semantic8assemblyNtB2_9Assembler8finalize
FNDA:838,_RNvMNtNtCsluBEq34Hdgp_6glossa8semantic8assemblyNtB2_9Assembler9set_query
FNDA:0,_RNvXs_NtNtCsluBEq34Hdgp_6glossa8semantic8assemblyNtB4_9AssemblerNtNtCs3XFJfFEDSOQ_4core7default7Default7default
FNDA:22,_RNCNvMNtNtCsluBEq34Hdgp_6glossa8semantic8assemblyNtB4_9Assembler21check_special_markers0B8_
FNDA:0,_RNvXs_NtNtCs4cnvRHYBibt_6glossa8semantic8assemblyNtB4_9AssemblerNtNtCs3XFJfFEDSOQ_4core7default7Default7default
FNDA:8,_RNCNvMNtNtCs4cnvRHYBibt_6glossa8semantic8assemblyNtB4_9Assembler21check_special_markers0B8_
FNDA:2059,_RNvNtNtNtCs4cnvRHYBibt_6glossa8semantic8assembly5tests13make_analysis
FNDA:1,_RNvNtNtNtCs4cnvRHYBibt_6glossa8semantic8assembly5testss_13test_literals
FNDA:1,_RNvNtNtNtCs4cnvRHYBibt_6glossa8semantic8assembly5testss_15test_simple_sov
FNDA:1,_RNvNtNtNtCs4cnvRHYBibt_6glossa8semantic8assembly5testss_20test_vso_same_result
FNDA:1,_RNvNtNtNtCs4cnvRHYBibt_6glossa8semantic8assembly5testss_22test_double_verb_error
FNDA:1,_RNvNtNtNtCs4cnvRHYBibt_6glossa8semantic8assembly5testss_23test_operator_detection
FNDA:1,_RNvNtNtNtCs4cnvRHYBibt_6glossa8semantic8assembly5testss_24test_double_object_error
FNDA:1,_RNvNtNtNtCs4cnvRHYBibt_6glossa8semantic8assembly5testss_24test_genitive_possession
FNDA:1,_RNvNtNtNtCs4cnvRHYBibt_6glossa8semantic8assembly5testss_24test_imperative_mismatch
FNDA:1,_RNvNtNtNtCs4cnvRHYBibt_6glossa8semantic8assembly5testss_24test_max_arrays_exceeded
FNDA:1,_RNvNtNtNtCs4cnvRHYBibt_6glossa8semantic8assembly5testss_24test_max_blocks_exceeded
FNDA:1,_RNvNtNtNtCs4cnvRHYBibt_6glossa8semantic8assembly5testss_25test_boolean_or_detection
FNDA:1,_RNvNtNtNtCs4cnvRHYBibt_6glossa8semantic8assembly5testss_25test_max_unwraps_exceeded
FNDA:1,_RNvNtNtNtCs4cnvRHYBibt_6glossa8semantic8assembly5testss_25test_multiple_nominatives
FNDA:1,_RNvNtNtNtCs4cnvRHYBibt_6glossa8semantic8assembly5testss_26test_max_literals_exceeded
FNDA:1,_RNvNtNtNtCs4cnvRHYBibt_6glossa8semantic8assembly5testss_27test_dative_indirect_object
FNDA:1,_RNvNtNtNtCs4cnvRHYBibt_6glossa8semantic8assembly5testss_27test_max_genitives_exceeded
FNDA:1,_RNvNtNtNtCs4cnvRHYBibt_6glossa8semantic8assembly5testss_27test_max_operators_exceeded
FNDA:1,_RNvNtNtNtCs4cnvRHYBibt_6glossa8semantic8assembly5testss_28test_gender_mismatch_ignored
FNDA:1,_RNvNtNtNtCs4cnvRHYBibt_6glossa8semantic8assembly5testss_28test_max_adjectives_exceeded
FNDA:1,_RNvNtNtNtCs4cnvRHYBibt_6glossa8semantic8assembly5testss_28test_split_method_generation
FNDA:1,_RNvNtNtNtCs4cnvRHYBibt_6glossa8semantic8assembly5testss_29test_disambiguation_en_vs_hen
FNDA:1,_RNvNtNtNtCs4cnvRHYBibt_6glossa8semantic8assembly5testss_29test_max_nominatives_exceeded
FNDA:1,_RNvNtNtNtCs4cnvRHYBibt_6glossa8semantic8assembly5testss_29test_max_participles_exceeded
FNDA:1,_RNvNtNtNtCs4cnvRHYBibt_6glossa8semantic8assembly5testss_31test_full_boolean_or_expression
FNDA:1,_RNvNtNtNtCs4cnvRHYBibt_6glossa8semantic8assembly5testss_31test_verb_constituent_has_voice
FNDA:1,_RNvNtNtNtCs4cnvRHYBibt_6glossa8semantic8assembly5testss_32test_max_index_accesses_exceeded
FNDA:1,_RNvNtNtNtCs4cnvRHYBibt_6glossa8semantic8assembly5testss_32test_max_nested_phrases_exceeded
FNDA:1,_RNvNtNtNtCs4cnvRHYBibt_6glossa8semantic8assembly5testss_34test_subject_verb_person_agreement
FNDA:1,_RNvNtNtNtCs4cnvRHYBibt_6glossa8semantic8assembly5testss_35test_max_property_accesses_exceeded
FNDA:1,_RNvNtNtNtCs4cnvRHYBibt_6glossa8semantic8assembly5testss_36test_immediate_agreement_failure_svo
FNDA:1,_RNvNtNtNtCs4cnvRHYBibt_6glossa8semantic8assembly5testss_36test_immediate_agreement_failure_vso
FNDA:1,_RNvNtNtNtCs4cnvRHYBibt_6glossa8semantic8assembly5testss_38test_silent_swallowing_of_unknown_case
FNDA:1,_RNvNtNtNtCs4cnvRHYBibt_6glossa8semantic8assembly5testss_40test_neuter_plural_subject_singular_verb
FNDA:1,_RNvNtNtNtCs4cnvRHYBibt_6glossa8semantic8assembly5testss_44test_neuter_plural_subject_first_person_verb
FNDA:1,_RNvNtNtNtCs4cnvRHYBibt_6glossa8semantic8assembly5testss_48test_unknown_case_becomes_object_when_slot_empty
FNDA:514,_RNvMNtNtCs4cnvRHYBibt_6glossa8semantic8assemblyNtB2_9Assembler10feed_array
FNDA:514,_RNvMNtNtCs4cnvRHYBibt_6glossa8semantic8assemblyNtB2_9Assembler10feed_block
FNDA:3388,_RNvMNtNtCs4cnvRHYBibt_6glossa8semantic8assemblyNtB2_9Assembler11feed_number
FNDA:23,_RNvMNtNtCs4cnvRHYBibt_6glossa8semantic8assemblyNtB2_9Assembler11feed_string
FNDA:514,_RNvMNtNtCs4cnvRHYBibt_6glossa8semantic8assemblyNtB2_9Assembler11feed_unwrap
FNDA:1402,_RNvMNtNtCs4cnvRHYBibt_6glossa8semantic8assemblyNtB2_9Assembler11handle_verb
FNDA:4,_RNvMNtNtCs4cnvRHYBibt_6glossa8semantic8assemblyNtB2_9Assembler12feed_boolean
FNDA:5,_RNvMNtNtCs4cnvRHYBibt_6glossa8semantic8assemblyNtB2_9Assembler13handle_dative
FNDA:1383,_RNvMNtNtCs4cnvRHYBibt_6glossa8semantic8assemblyNtB2_9Assembler13set_propagate
FNDA:3459,_RNvMNtNtCs4cnvRHYBibt_6glossa8semantic8assemblyNtB2_9Assembler14handle_nominal
FNDA:2741,_RNvMNtNtCs4cnvRHYBibt_6glossa8semantic8assemblyNtB2_9Assembler15check_agreement
FNDA:10581,_RNvMNtNtCs4cnvRHYBibt_6glossa8semantic8assemblyNtB2_9Assembler15check_operators
FNDA:516,_RNvMNtNtCs4cnvRHYBibt_6glossa8semantic8assemblyNtB2_9Assembler15feed_participle
FNDA:515,_RNvMNtNtCs4cnvRHYBibt_6glossa8semantic8assemblyNtB2_9Assembler15handle_genitive
FNDA:0,_RNvMNtNtCs4cnvRHYBibt_6glossa8semantic8assemblyNtB2_9Assembler15handle_vocative
FNDA:2052,_RNvMNtNtCs4cnvRHYBibt_6glossa8semantic8assemblyNtB2_9Assembler16handle_adjective
FNDA:514,_RNvMNtNtCs4cnvRHYBibt_6glossa8semantic8assemblyNtB2_9Assembler17feed_index_access
FNDA:8,_RNvMNtNtCs4cnvRHYBibt_6glossa8semantic8assemblyNtB2_9Assembler17handle_accusative
FNDA:2929,_RNvMNtNtCs4cnvRHYBibt_6glossa8semantic8assemblyNtB2_9Assembler17handle_nominative
FNDA:10585,_RNvMNtNtCs4cnvRHYBibt_6glossa8semantic8assemblyNtB2_9Assembler18check_method_verbs
FNDA:516,_RNvMNtNtCs4cnvRHYBibt_6glossa8semantic8assemblyNtB2_9Assembler18feed_nested_phrase
FNDA:2,_RNvMNtNtCs4cnvRHYBibt_6glossa8semantic8assemblyNtB2_9Assembler19handle_unknown_case
FNDA:10596,_RNvMNtNtCs4cnvRHYBibt_6glossa8semantic8assemblyNtB2_9Assembler20feed_with_normalized
FNDA:10596,_RNvMNtNtCs4cnvRHYBibt_6glossa8semantic8assemblyNtB2_9Assembler21check_special_markers
FNDA:9289,_RNvMNtNtCs4cnvRHYBibt_6glossa8semantic8assemblyNtB2_9Assembler24check_special_properties
FNDA:6,_RNvMNtNtCs4cnvRHYBibt_6glossa8semantic8assemblyNtB2_9Assembler24try_create_string_method
FNDA:1464,_RNvMNtNtCs4cnvRHYBibt_6glossa8semantic8assemblyNtB2_9Assembler3new
FNDA:6245,_RNvMNtNtCs4cnvRHYBibt_6glossa8semantic8assemblyNtB2_9Assembler4feed
FNDA:1420,_RNvMNtNtCs4cnvRHYBibt_6glossa8semantic8assemblyNtB2_9Assembler8finalize
FNDA:1383,_RNvMNtNtCs4cnvRHYBibt_6glossa8semantic8assemblyNtB2_9Assembler9set_query
FNF:68
FNH:66
DA:153,2558
DA:154,2558
DA:155,2558
DA:156,2558
DA:157,2558
DA:160,2221
DA:161,2221
DA:162,2221
DA:165,2221
DA:166,2221
DA:167,2221
DA:190,6245
DA:191,6245
DA:192,6245
DA:193,6245
DA:199,14895
DA:200,14895
DA:201,14895
DA:202,14895
DA:203,14895
DA:204,14895
DA:205,14895
DA:206,27
DA:207,14868
DA:209,14868
DA:210,6
DA:211,14861
DA:213,14861
DA:214,2375
DA:215,12451
DA:217,12451
DA:218,3011
DA:219,9430
DA:221,9430
DA:223,5272
DA:225,2062
DA:226,1988
DA:229,0
DA:233,0
DA:235,108
DA:237,14895
DA:249,472
DA:250,472
DA:251,0
DA:252,0
DA:253,0
DA:254,0
DA:255,472
DA:256,472
DA:257,472
DA:258,472
DA:270,6559
DA:271,6559
DA:272,4
DA:273,4
DA:274,4
DA:275,4
DA:276,6555
DA:277,6555
DA:278,6555
DA:279,6559
DA:291,12
DA:292,12
DA:293,0
DA:294,0
DA:295,0
DA:296,0
DA:297,12
DA:298,12
DA:299,12
DA:300,12
DA:314,826
DA:315,826
DA:316,3
DA:317,3
DA:318,3
DA:319,3
DA:320,823
DA:321,823
DA:322,823
DA:323,826
DA:335,774
DA:336,774
DA:337,774
DA:338,774
DA:339,774
DA:340,3
DA:341,3
DA:342,3
DA:343,3
DA:344,771
DA:345,771
DA:346,771
DA:347,774
DA:360,779
DA:361,779
DA:362,3
DA:363,3
DA:364,3
DA:365,3
DA:366,776
DA:367,776
DA:368,776
DA:369,779
DA:388,518
DA:389,518
DA:390,2
DA:391,2
DA:392,2
DA:393,2
DA:394,516
DA:395,516
DA:396,516
DA:397,518
DA:415,780
DA:416,780
DA:417,3
DA:418,3
DA:419,3
DA:420,3
DA:421,777
DA:422,777
DA:423,777
DA:424,780
DA:446,827
DA:447,827
DA:448,827
DA:449,827
DA:450,827
DA:451,827
DA:452,3
DA:453,3
DA:454,3
DA:455,3
DA:456,824
DA:457,824
DA:458,824
DA:459,824
DA:460,824
DA:461,824
DA:462,824
DA:463,824
DA:464,824
DA:465,824
DA:466,824
DA:467,824
DA:468,824
DA:469,824
DA:470,824
DA:471,827
DA:474,5272
DA:475,5272
DA:476,5272
DA:477,5272
DA:478,5272
DA:479,5272
DA:480,5272
DA:481,5272
DA:482,5272
DA:483,5272
DA:484,5272
DA:485,5272
DA:486,5272
DA:487,5272
DA:488,5272
DA:489,5272
DA:491,5270
DA:492,4464
DA:493,8
DA:494,5
DA:495,793
DA:496,0
DA:497,2
DA:499,5272
DA:501,4464
DA:503,4464
DA:505,5
DA:506,5
DA:507,0
DA:508,4459
DA:510,4461
DA:512,1101
DA:513,4
DA:514,4
DA:515,4
DA:516,4
DA:517,1097
DA:518,1097
DA:519,3360
DA:520,3360
DA:521,3360
DA:522,4457
DA:523,4464
DA:525,8
DA:526,8
DA:527,2
DA:528,6
DA:529,6
DA:530,6
DA:531,8
DA:533,5
DA:535,5
DA:536,2
DA:537,3
DA:538,3
DA:539,3
DA:540,5
DA:542,793
DA:544,793
DA:545,5
DA:546,5
DA:547,5
DA:548,5
DA:549,788
DA:550,788
DA:551,788
DA:552,793
DA:554,0
DA:556,0
DA:557,0
DA:558,0
DA:559,0
DA:560,0
DA:562,2
DA:565,2
DA:566,1
DA:567,1
DA:569,1
DA:571,2
DA:574,1988
DA:575,1988
DA:576,1988
DA:577,1988
DA:578,1988
DA:579,1988
DA:580,1988
DA:581,2
DA:582,1986
DA:584,1986
DA:585,1986
DA:586,1986
DA:587,1986
DA:588,1986
DA:589,1986
DA:590,1986
DA:591,1986
DA:592,1986
DA:593,1986
DA:594,1986
DA:597,1986
DA:598,1778
DA:599,208
DA:601,1982
DA:603,1982
DA:604,1988
DA:607,2062
DA:608,2062
DA:609,2062
DA:610,2062
DA:611,2062
DA:612,2062
DA:613,2062
DA:614,2062
DA:615,2062
DA:616,2062
DA:617,2062
DA:618,2062
DA:619,2062
DA:620,2062
DA:621,2062
DA:622,2062
DA:624,2062
DA:625,2
DA:626,2
DA:627,2
DA:628,2
DA:629,2060
DA:630,2060
DA:631,2060
DA:632,2062
DA:662,2241
DA:664,2241
DA:665,439
DA:666,436
DA:668,2241
DA:669,235
DA:670,235
DA:671,2006
DA:674,2241
DA:675,1776
DA:676,465
DA:679,2241
DA:680,2241
DA:681,2241
DA:684,14895
DA:686,14895
DA:687,10
DA:688,10
DA:689,14885
DA:692,14885
DA:696,30
DA:697,3
DA:698,8
DA:700,8
DA:701,8
DA:702,14874
DA:705,14874
DA:706,9
DA:707,9
DA:708,14865
DA:710,14865
DA:711,14895
DA:715,9
DA:716,9
DA:717,8
DA:719,8
DA:720,7
DA:721,1
DA:722,1
DA:723,1
DA:724,1
DA:725,6
DA:727,6
DA:728,6
DA:729,0
DA:732,6
DA:733,6
DA:734,6
DA:735,6
DA:736,6
DA:737,6
DA:738,1
DA:739,1
DA:740,2
DA:741,9
DA:744,14868
DA:746,14868
DA:747,7
DA:749,4
DA:750,14863
DA:753,14863
DA:754,2
DA:756,2
DA:757,14861
DA:759,14861
DA:760,14868
DA:763,14861
DA:765,14861
DA:766,777
DA:767,5
DA:768,5
DA:769,5
DA:770,5
DA:771,772
DA:772,772
DA:773,772
DA:774,14084
DA:775,14084
DA:776,260
DA:777,1
DA:778,1
DA:779,1
DA:780,1
DA:781,259
DA:783,259
DA:784,259
DA:785,13824
DA:788,13824
DA:789,298
DA:790,1
DA:791,1
DA:792,1
DA:793,1
DA:794,297
DA:795,297
DA:796,297
DA:797,13526
DA:800,13526
DA:801,1075
DA:802,28
DA:803,28
DA:804,28
DA:805,28
DA:806,1047
DA:807,1047
DA:808,1047
DA:809,12451
DA:811,12451
DA:812,14861
DA:815,12451
DA:817,12451
DA:818,1467
DA:819,1467
DA:820,10984
DA:823,10984
DA:825,1033
DA:826,1032
DA:827,4
DA:828,4
DA:829,4
DA:830,4
DA:831,1028
DA:833,1028
DA:834,1028
DA:835,1028
DA:836,1028
DA:837,1028
DA:838,1
DA:839,9951
DA:842,9952
DA:844,523
DA:845,522
DA:847,522
DA:848,6
DA:849,6
DA:850,6
DA:851,6
DA:852,516
DA:855,516
DA:856,516
DA:857,516
DA:858,516
DA:859,516
DA:861,516
DA:862,516
DA:863,516
DA:864,1
DA:865,9429
DA:867,9430
DA:868,12451
DA:871,3559
DA:872,3559
DA:873,3559
DA:874,3559
DA:875,3559
DA:876,3559
DA:877,3559
DA:880,3559
DA:884,3559
DA:885,3559
DA:886,7
DA:887,7
DA:888,7
DA:889,7
DA:890,3552
DA:893,3552
DA:894,3552
DA:896,3552
DA:897,0
DA:898,0
DA:899,0
DA:900,0
DA:901,3552
DA:902,0
DA:903,3552
DA:904,3559
DA:908,0
DA:909,0
DA:910,0
DA:919,1
DA:921,1
DA:924,1
DA:925,1
DA:927,1
DA:928,1
DA:929,1
DA:930,0
DA:932,1
DA:933,1
DA:936,1
DA:938,1
DA:941,1
DA:942,1
DA:944,1
DA:945,1
DA:946,1
DA:947,0
DA:950,1
DA:951,1
DA:954,1
DA:956,1
DA:959,1
DA:962,1
DA:963,1
DA:966,1
DA:969,1
DA:970,1
DA:972,1
DA:973,1
DA:974,1
DA:976,0
DA:979,1
DA:980,1
DA:982,0
DA:985,1
DA:986,1
DA:989,1
DA:991,1
DA:994,1
DA:995,1
DA:998,1
DA:999,1
DA:1002,1
DA:1003,1
DA:1005,1
DA:1006,1
DA:1007,1
DA:1008,1
DA:1009,1
DA:1012,1
DA:1014,1
DA:1017,1
DA:1018,1
DA:1021,1
DA:1022,1
DA:1025,1
DA:1026,1
DA:1028,1
DA:1029,1
DA:1030,1
DA:1031,1
DA:1032,1
DA:1035,1
DA:1037,1
DA:1039,1
DA:1040,1
DA:1042,1
DA:1043,1
DA:1045,1
DA:1046,1
DA:1047,1
DA:1048,1
DA:1051,1
DA:1052,1
DA:1054,1
DA:1055,1
DA:1057,1
DA:1058,1
DA:1060,1
DA:1061,1
DA:1064,1
DA:1065,1
DA:1067,1
DA:1069,1
DA:1070,1
DA:1072,1
DA:1073,1
DA:1074,1
DA:1075,1
DA:1078,1
DA:1079,1
DA:1082,1
DA:1083,1
DA:1085,1
DA:1086,1
DA:1088,1
DA:1089,1
DA:1090,1
DA:1091,1
DA:1094,1
DA:1095,1
DA:1098,1
DA:1099,1
DA:1101,1
DA:1102,1
DA:1104,1
DA:1105,1
DA:1106,1
DA:1109,1
DA:1110,1
DA:1113,1
DA:1114,1
DA:1116,1
DA:1117,1
DA:1118,1
DA:1119,1
DA:1120,1
DA:1123,1
DA:1124,1
DA:1128,1
DA:1129,1
DA:1130,1
DA:1131,1
DA:1132,1
DA:1133,1
DA:1134,1
DA:1135,1
DA:1136,1
DA:1137,1
DA:1138,1
DA:1139,1
DA:1140,1
DA:1143,1
DA:1144,1
DA:1145,1
DA:1146,1
DA:1147,1
DA:1148,1
DA:1149,1
DA:1150,1
DA:1151,1
DA:1152,1
DA:1153,1
DA:1154,1
DA:1157,1
DA:1159,1
DA:1160,1
DA:1161,0
DA:1163,1
DA:1166,1
DA:1167,1
DA:1170,1
DA:1171,1
DA:1174,1
DA:1175,1
DA:1177,1
DA:1178,1
DA:1181,1
DA:1182,1
DA:1185,1
DA:1186,1
DA:1187,1
DA:1188,1
DA:1189,1
DA:1190,1
DA:1191,1
DA:1192,1
DA:1193,1
DA:1194,1
DA:1195,1
DA:1196,1
DA:1197,1
DA:1200,1
DA:1201,1
DA:1202,1
DA:1203,1
DA:1204,1
DA:1205,1
DA:1206,1
DA:1207,1
DA:1208,1
DA:1209,1
DA:1210,1
DA:1211,1
DA:1212,1
DA:1215,1
DA:1216,1
DA:1217,1
DA:1218,0
DA:1219,0
DA:1221,1
DA:1224,1
DA:1225,1
DA:1228,1
DA:1229,1
DA:1230,1
DA:1231,1
DA:1232,1
DA:1233,1
DA:1234,1
DA:1235,1
DA:1236,1
DA:1237,1
DA:1238,1
DA:1239,1
DA:1240,1
DA:1243,1
DA:1244,1
DA:1245,1
DA:1246,1
DA:1247,1
DA:1248,1
DA:1249,1
DA:1250,1
DA:1251,1
DA:1252,1
DA:1253,1
DA:1254,1
DA:1255,1
DA:1258,1
DA:1259,1
DA:1260,1
DA:1261,0
DA:1262,0
DA:1264,1
DA:1267,1
DA:1269,1
DA:1272,1
DA:1273,1
DA:1274,1
DA:1275,1
DA:1276,1
DA:1277,1
DA:1278,1
DA:1279,1
DA:1280,1
DA:1281,1
DA:1282,1
DA:1283,1
DA:1284,1
DA:1287,1
DA:1288,1
DA:1289,1
DA:1290,1
DA:1291,1
DA:1292,1
DA:1293,1
DA:1294,1
DA:1295,1
DA:1296,1
DA:1297,1
DA:1298,1
DA:1299,1
DA:1302,1
DA:1303,1
DA:1304,1
DA:1305,1
DA:1306,1
DA:1307,1
DA:1308,1
DA:1309,1
DA:1310,1
DA:1311,1
DA:1312,1
DA:1313,1
DA:1314,1
DA:1316,1
DA:1318,1
DA:1319,1
DA:1322,1
DA:1323,1
DA:1326,1
DA:1327,1
DA:1328,1
DA:1329,1
DA:1330,1
DA:1331,1
DA:1332,1
DA:1333,1
DA:1334,1
DA:1335,1
DA:1336,1
DA:1337,1
DA:1338,1
DA:1341,1
DA:1342,1
DA:1343,1
DA:1344,1
DA:1345,1
DA:1346,1
DA:1347,1
DA:1348,1
DA:1349,1
DA:1350,1
DA:1351,1
DA:1352,1
DA:1353,1
DA:1356,1
DA:1359,1
DA:1360,1
DA:1361,1
DA:1362,1
DA:1363,1
DA:1364,1
DA:1365,1
DA:1366,1
DA:1367,1
DA:1368,1
DA:1369,1
DA:1370,1
DA:1371,1
DA:1373,1
DA:1376,1
DA:1377,1
DA:1378,0
DA:1380,1
DA:1383,1
DA:1385,1
DA:1387,1
DA:1390,1
DA:1391,1
DA:1394,1
DA:1395,1
DA:1396,1
DA:1397,1
DA:1398,1
DA:1399,1
DA:1400,1
DA:1401,1
DA:1402,1
DA:1403,1
DA:1404,1
DA:1405,1
DA:1406,1
DA:1409,1
DA:1410,1
DA:1411,1
DA:1412,1
DA:1413,1
DA:1414,1
DA:1415,1
DA:1416,1
DA:1417,1
DA:1418,1
DA:1419,1
DA:1420,1
DA:1423,1
DA:1424,1
DA:1425,1
DA:1426,0
DA:1428,1
DA:1431,1
DA:1432,1
DA:1435,1
DA:1436,1
DA:1437,1
DA:1438,1
DA:1439,1
DA:1440,1
DA:1441,1
DA:1442,1
DA:1443,1
DA:1444,1
DA:1445,1
DA:1446,1
DA:1447,1
DA:1450,1
DA:1451,1
DA:1452,1
DA:1453,1
DA:1454,1
DA:1455,1
DA:1456,1
DA:1457,1
DA:1458,1
DA:1459,1
DA:1460,1
DA:1461,1
DA:1464,1
DA:1465,1
DA:1466,1
DA:1467,0
DA:1469,1
DA:1471,2059
DA:1472,2059
DA:1473,2059
DA:1474,2059
DA:1475,2059
DA:1476,2059
DA:1477,2059
DA:1478,2059
DA:1479,2059
DA:1480,2059
DA:1481,2059
DA:1482,2059
DA:1483,2059
DA:1484,2059
DA:1485,2059
DA:1486,2059
DA:1487,2059
DA:1488,2059
DA:1489,2059
DA:1492,1
DA:1493,1
DA:1494,1025
DA:1495,1024
DA:1496,1024
DA:1497,1
DA:1498,1
DA:1499,1
DA:1501,1
DA:1504,1
DA:1505,1
DA:1506,1
DA:1507,1
DA:1508,1
DA:1509,1
DA:1510,1
DA:1512,1
DA:1514,257
DA:1515,256
DA:1516,256
DA:1517,256
DA:1518,256
DA:1519,256
DA:1520,256
DA:1521,256
DA:1522,256
DA:1524,1
DA:1525,1
DA:1526,1
DA:1527,1
DA:1528,1
DA:1530,1
DA:1532,1
DA:1533,1
DA:1535,1
DA:1538,1
DA:1539,1
DA:1540,1025
DA:1541,1024
DA:1542,1024
DA:1543,1024
DA:1544,1024
DA:1545,1024
DA:1546,1024
DA:1547,1024
DA:1548,1024
DA:1550,1
DA:1551,1
DA:1552,1
DA:1553,1
DA:1554,1
DA:1556,1
DA:1558,1
DA:1559,1
DA:1561,1
DA:1564,1
DA:1565,1
DA:1566,1
DA:1567,257
DA:1568,256
DA:1569,256
DA:1570,1
DA:1572,1
DA:1573,1
DA:1575,1
DA:1578,1
DA:1579,1
DA:1580,257
DA:1581,256
DA:1582,256
DA:1583,256
DA:1584,256
DA:1585,256
DA:1586,256
DA:1587,256
DA:1588,256
DA:1590,1
DA:1591,1
DA:1592,1
DA:1593,1
DA:1594,1
DA:1596,1
DA:1598,1
DA:1599,1
DA:1601,1
DA:1604,1
DA:1605,1
DA:1606,1
DA:1607,1
DA:1608,1
DA:1609,1
DA:1610,1
DA:1612,1
DA:1614,1
DA:1615,1
DA:1617,1
DA:1618,1
DA:1619,0
DA:1622,1
DA:1625,1
DA:1626,1
DA:1627,1
DA:1628,1
DA:1629,1
DA:1630,1
DA:1631,1
DA:1632,1
DA:1633,1
DA:1634,1
DA:1635,1
DA:1636,1
DA:1637,1
DA:1638,1
DA:1639,1
DA:1641,1
DA:1642,1
DA:1643,1
DA:1644,1
DA:1645,1
DA:1646,1
DA:1647,1
DA:1648,1
DA:1649,1
DA:1650,1
DA:1651,1
DA:1652,1
DA:1654,1
DA:1655,1
DA:1656,1
DA:1657,0
DA:1660,1
DA:1663,1
DA:1664,1
DA:1665,1
DA:1667,1
DA:1668,1
DA:1669,1
DA:1671,1
DA:1672,1
DA:1673,1
DA:1674,1
DA:1675,1
DA:1676,1
DA:1677,0
DA:1679,1
DA:1682,1
DA:1683,1
DA:1684,257
DA:1685,256
DA:1686,256
DA:1687,1
DA:1688,1
DA:1689,1
DA:1691,1
DA:1694,1
DA:1695,1
DA:1696,1
DA:1697,1
DA:1699,257
DA:1700,256
DA:1701,256
DA:1702,1
DA:1703,1
DA:1704,1
DA:1706,1
DA:1709,1
DA:1710,1
DA:1711,257
DA:1712,256
DA:1713,256
DA:1714,1
DA:1715,1
DA:1716,1
DA:1718,1
DA:1721,1
DA:1722,1
DA:1723,1
DA:1724,1
DA:1725,1
DA:1726,1
DA:1727,1
DA:1728,1
DA:1729,1
DA:1730,1
DA:1731,1
DA:1733,257
DA:1734,256
DA:1735,256
DA:1736,256
DA:1737,1
DA:1738,1
DA:1739,1
DA:1741,1
DA:1744,1
DA:1745,1
DA:1746,1
DA:1747,257
DA:1748,256
DA:1749,256
DA:1750,1
DA:1751,1
DA:1752,1
DA:1754,1
DA:1757,1
DA:1758,1
DA:1759,257
DA:1760,256
DA:1761,256
DA:1762,1
DA:1763,1
DA:1764,1
DA:1766,1
DA:1769,1
DA:1770,1
DA:1773,257
DA:1774,256
DA:1775,256
DA:1776,256
DA:1777,256
DA:1778,256
DA:1779,256
DA:1780,256
DA:1781,256
DA:1782,256
DA:1783,256
DA:1784,256
DA:1785,256
DA:1786,256
DA:1789,1
DA:1790,1
DA:1791,1
DA:1792,1
DA:1793,1
DA:1795,1
DA:1797,1
DA:1798,1
DA:1800,1
DA:1801,1
DA:1803,1
DA:1806,1
DA:1807,1
DA:1811,1
DA:1812,1
DA:1814,1
DA:1817,1
DA:1818,1
DA:1819,0
DA:1821,1
DA:1822,1
BRF:0
BRH:0
LF:1112
LH:1069
end_of_record
SF:/app/src/semantic/control_flow.rs
FN:87,_RINvNtNtCsluBEq34Hdgp_6glossa8semantic12control_flow16parse_while_loopNtNtB4_8analyzer16SemanticAnalyzerEB6_
FN:577,_RINvNtNtCsluBEq34Hdgp_6glossa8semantic12control_flow17parse_conditionalNtNtB4_8analyzer16SemanticAnalyzerEB6_
FN:23,_RINvNtNtCsluBEq34Hdgp_6glossa8semantic12control_flow20analyze_control_flowNtNtB4_8analyzer16SemanticAnalyzerEB6_
FN:122,_RINvNtNtCsluBEq34Hdgp_6glossa8semantic12control_flow20parse_for_range_loopNtNtB4_8analyzer16SemanticAnalyzerEB6_
FN:350,_RINvNtNtCsluBEq34Hdgp_6glossa8semantic12control_flow22parse_match_expressionNtNtB4_8analyzer16SemanticAnalyzerEB6_
FN:263,_RINvNtNtCsluBEq34Hdgp_6glossa8semantic12control_flow24parse_for_iteration_loopNtNtB4_8analyzer16SemanticAnalyzerEB6_
FN:753,_RNCNvNtNtCsluBEq34Hdgp_6glossa8semantic12control_flow23check_conditional_start0B7_
FN:733,_RNCNvNtNtCsluBEq34Hdgp_6glossa8semantic12control_flow32check_else_pattern_in_expression0B7_
FN:516,_RNvNtNtCsluBEq34Hdgp_6glossa8semantic12control_flow19parse_match_pattern
FN:420,_RNvNtNtCsluBEq34Hdgp_6glossa8semantic12control_flow22parse_return_statement
FN:750,_RNvNtNtCsluBEq34Hdgp_6glossa8semantic12control_flow23check_conditional_start
FN:440,_RNvNtNtCsluBEq34Hdgp_6glossa8semantic12control_flow23parse_return_expression
FN:671,_RNvNtNtCsluBEq34Hdgp_6glossa8semantic12control_flow25skip_first_word_and_parse
FN:727,_RNvNtNtCsluBEq34Hdgp_6glossa8semantic12control_flow32check_else_pattern_in_expression
FN:87,_RINvNtNtCs4cnvRHYBibt_6glossa8semantic12control_flow16parse_while_loopNtNtB4_8analyzer16SemanticAnalyzerEB6_
FN:577,_RINvNtNtCs4cnvRHYBibt_6glossa8semantic12control_flow17parse_conditionalNtNtB4_8analyzer16SemanticAnalyzerEB6_
FN:23,_RINvNtNtCs4cnvRHYBibt_6glossa8semantic12control_flow20analyze_control_flowNtNtB4_8analyzer16SemanticAnalyzerEB6_
FN:122,_RINvNtNtCs4cnvRHYBibt_6glossa8semantic12control_flow20parse_for_range_loopNtNtB4_8analyzer16SemanticAnalyzerEB6_
FN:350,_RINvNtNtCs4cnvRHYBibt_6glossa8semantic12control_flow22parse_match_expressionNtNtB4_8analyzer16SemanticAnalyzerEB6_
FN:263,_RINvNtNtCs4cnvRHYBibt_6glossa8semantic12control_flow24parse_for_iteration_loopNtNtB4_8analyzer16SemanticAnalyzerEB6_
FN:753,_RNCNvNtNtCs4cnvRHYBibt_6glossa8semantic12control_flow23check_conditional_start0B7_
FN:733,_RNCNvNtNtCs4cnvRHYBibt_6glossa8semantic12control_flow32check_else_pattern_in_expression0B7_
FN:516,_RNvNtNtCs4cnvRHYBibt_6glossa8semantic12control_flow19parse_match_pattern
FN:420,_RNvNtNtCs4cnvRHYBibt_6glossa8semantic12control_flow22parse_return_statement
FN:750,_RNvNtNtCs4cnvRHYBibt_6glossa8semantic12control_flow23check_conditional_start
FN:440,_RNvNtNtCs4cnvRHYBibt_6glossa8semantic12control_flow23parse_return_expression
FN:671,_RNvNtNtCs4cnvRHYBibt_6glossa8semantic12control_flow25skip_first_word_and_parse
FN:727,_RNvNtNtCs4cnvRHYBibt_6glossa8semantic12control_flow32check_else_pattern_in_expression
FNDA:3,_RINvNtNtCsluBEq34Hdgp_6glossa8semantic12control_flow16parse_while_loopNtNtB4_8analyzer16SemanticAnalyzerEB6_
FNDA:109,_RINvNtNtCsluBEq34Hdgp_6glossa8semantic12control_flow17parse_conditionalNtNtB4_8analyzer16SemanticAnalyzerEB6_
FNDA:781,_RINvNtNtCsluBEq34Hdgp_6glossa8semantic12control_flow20analyze_control_flowNtNtB4_8analyzer16SemanticAnalyzerEB6_
FNDA:5,_RINvNtNtCsluBEq34Hdgp_6glossa8semantic12control_flow20parse_for_range_loopNtNtB4_8analyzer16SemanticAnalyzerEB6_
FNDA:3,_RINvNtNtCsluBEq34Hdgp_6glossa8semantic12control_flow22parse_match_expressionNtNtB4_8analyzer16SemanticAnalyzerEB6_
FNDA:3,_RINvNtNtCsluBEq34Hdgp_6glossa8semantic12control_flow24parse_for_iteration_loopNtNtB4_8analyzer16SemanticAnalyzerEB6_
FNDA:102,_RNCNvNtNtCsluBEq34Hdgp_6glossa8semantic12control_flow23check_conditional_start0B7_
FNDA:211,_RNCNvNtNtCsluBEq34Hdgp_6glossa8semantic12control_flow32check_else_pattern_in_expression0B7_
FNDA:6,_RNvNtNtCsluBEq34Hdgp_6glossa8semantic12control_flow19parse_match_pattern
FNDA:24,_RNvNtNtCsluBEq34Hdgp_6glossa8semantic12control_flow22parse_return_statement
FNDA:102,_RNvNtNtCsluBEq34Hdgp_6glossa8semantic12control_flow23check_conditional_start
FNDA:24,_RNvNtNtCsluBEq34Hdgp_6glossa8semantic12control_flow23parse_return_expression
FNDA:114,_RNvNtNtCsluBEq34Hdgp_6glossa8semantic12control_flow25skip_first_word_and_parse
FNDA:104,_RNvNtNtCsluBEq34Hdgp_6glossa8semantic12control_flow32check_else_pattern_in_expression
FNDA:0,_RINvNtNtCs4cnvRHYBibt_6glossa8semantic12control_flow16parse_while_loopNtNtB4_8analyzer16SemanticAnalyzerEB6_
FNDA:1,_RINvNtNtCs4cnvRHYBibt_6glossa8semantic12control_flow17parse_conditionalNtNtB4_8analyzer16SemanticAnalyzerEB6_
FNDA:1379,_RINvNtNtCs4cnvRHYBibt_6glossa8semantic12control_flow20analyze_control_flowNtNtB4_8analyzer16SemanticAnalyzerEB6_
FNDA:0,_RINvNtNtCs4cnvRHYBibt_6glossa8semantic12control_flow20parse_for_range_loopNtNtB4_8analyzer16SemanticAnalyzerEB6_
FNDA:0,_RINvNtNtCs4cnvRHYBibt_6glossa8semantic12control_flow22parse_match_expressionNtNtB4_8analyzer16SemanticAnalyzerEB6_
FNDA:0,_RINvNtNtCs4cnvRHYBibt_6glossa8semantic12control_flow24parse_for_iteration_loopNtNtB4_8analyzer16SemanticAnalyzerEB6_
FNDA:0,_RNCNvNtNtCs4cnvRHYBibt_6glossa8semantic12control_flow23check_conditional_start0B7_
FNDA:0,_RNCNvNtNtCs4cnvRHYBibt_6glossa8semantic12control_flow32check_else_pattern_in_expression0B7_
FNDA:0,_RNvNtNtCs4cnvRHYBibt_6glossa8semantic12control_flow19parse_match_pattern
FNDA:0,_RNvNtNtCs4cnvRHYBibt_6glossa8semantic12control_flow22parse_return_statement
FNDA:0,_RNvNtNtCs4cnvRHYBibt_6glossa8semantic12control_flow23check_conditional_start
FNDA:0,_RNvNtNtCs4cnvRHYBibt_6glossa8semantic12control_flow23parse_return_expression
FNDA:1,_RNvNtNtCs4cnvRHYBibt_6glossa8semantic12control_flow25skip_first_word_and_parse
FNDA:0,_RNvNtNtCs4cnvRHYBibt_6glossa8semantic12control_flow32check_else_pattern_in_expression
FNF:14
FNH:14
DA:23,2160
DA:24,2160
DA:25,2160
DA:26,2160
DA:27,2160
DA:32,2160
DA:33,1958
DA:34,202
DA:38,1958
DA:39,8
DA:40,1950
DA:43,1950
DA:44,3
DA:45,1947
DA:48,1947
DA:49,5
DA:50,1942
DA:53,1942
DA:54,3
DA:55,1939
DA:57,1939
DA:59,0
DA:60,1939
DA:62,1939
DA:63,3
DA:64,1936
DA:67,1936
DA:68,24
DA:69,1912
DA:72,1912
DA:73,1
DA:74,1911
DA:77,1911
DA:78,1
DA:79,1910
DA:82,1910
DA:83,2160
DA:87,3
DA:88,3
DA:89,3
DA:90,3
DA:91,3
DA:92,3
DA:93,0
DA:94,0
DA:95,0
DA:96,3
DA:99,3
DA:100,3
DA:103,3
DA:105,3
DA:106,3
DA:107,3
DA:108,3
DA:109,3
DA:112,3
DA:114,3
DA:115,3
DA:116,3
DA:117,3
DA:118,3
DA:122,5
DA:123,5
DA:124,5
DA:125,5
DA:126,5
DA:127,5
DA:128,0
DA:129,0
DA:130,0
DA:131,5
DA:134,5
DA:136,5
DA:137,0
DA:138,5
DA:141,5
DA:142,5
DA:144,0
DA:149,5
DA:150,0
DA:151,0
DA:152,0
DA:153,5
DA:156,5
DA:158,5
DA:159,5
DA:160,5
DA:161,5
DA:162,5
DA:165,0
DA:166,0
DA:167,0
DA:168,0
DA:169,0
DA:170,0
DA:171,0
DA:174,0
DA:178,5
DA:179,5
DA:181,0
DA:185,5
DA:187,5
DA:188,5
DA:189,5
DA:190,5
DA:191,5
DA:194,0
DA:195,0
DA:196,0
DA:197,0
DA:198,0
DA:199,0
DA:200,0
DA:203,0
DA:206,5
DA:207,5
DA:208,5
DA:209,5
DA:210,5
DA:211,5
DA:212,5
DA:213,5
DA:216,5
DA:218,5
DA:219,0
DA:220,5
DA:223,5
DA:224,5
DA:225,5
DA:226,5
DA:228,0
DA:230,0
DA:231,0
DA:233,0
DA:236,0
DA:239,5
DA:240,5
DA:241,5
DA:242,5
DA:243,5
DA:246,5
DA:247,5
DA:248,5
DA:250,5
DA:253,5
DA:254,5
DA:255,5
DA:256,5
DA:257,5
DA:258,5
DA:263,3
DA:264,3
DA:265,3
DA:266,3
DA:267,3
DA:268,3
DA:269,0
DA:270,0
DA:271,0
DA:272,3
DA:275,3
DA:277,3
DA:278,0
DA:279,3
DA:281,3
DA:283,3
DA:284,0
DA:285,3
DA:286,3
DA:287,3
DA:289,0
DA:292,0
DA:296,3
DA:297,3
DA:298,3
DA:299,3
DA:300,3
DA:301,3
DA:302,3
DA:303,3
DA:306,3
DA:309,3
DA:310,3
DA:311,3
DA:312,3
DA:314,0
DA:316,0
DA:317,0
DA:319,0
DA:322,0
DA:325,3
DA:326,3
DA:327,3
DA:328,3
DA:329,3
DA:332,3
DA:333,3
DA:335,3
DA:337,3
DA:340,3
DA:341,3
DA:342,3
DA:343,3
DA:344,3
DA:345,3
DA:350,3
DA:351,3
DA:352,3
DA:353,3
DA:354,3
DA:355,3
DA:356,0
DA:357,0
DA:358,0
DA:359,3
DA:362,3
DA:364,3
DA:365,3
DA:366,3
DA:367,3
DA:370,3
DA:372,9
DA:373,9
DA:376,9
DA:377,6
DA:380,6
DA:383,6
DA:384,0
DA:385,6
DA:387,6
DA:388,6
DA:389,0
DA:390,6
DA:393,6
DA:394,6
DA:395,6
DA:396,6
DA:397,6
DA:398,6
DA:399,6
DA:400,6
DA:401,6
DA:403,6
DA:404,3
DA:407,3
DA:408,0
DA:409,0
DA:410,0
DA:411,3
DA:413,3
DA:414,3
DA:415,3
DA:416,3
DA:417,3
DA:420,24
DA:421,24
DA:422,24
DA:423,24
DA:425,24
DA:426,0
DA:427,24
DA:429,24
DA:432,24
DA:434,24
DA:435,24
DA:436,24
DA:437,24
DA:440,24
DA:448,24
DA:449,24
DA:451,0
DA:454,24
DA:455,0
DA:456,0
DA:457,0
DA:458,0
DA:459,24
DA:462,24
DA:463,7
DA:464,5
DA:465,5
DA:468,5
DA:469,4
DA:470,4
DA:471,4
DA:472,4
DA:473,1
DA:476,1
DA:477,1
DA:478,1
DA:479,1
DA:480,1
DA:481,1
DA:482,1
DA:483,1
DA:485,2
DA:486,2
DA:487,2
DA:488,2
DA:489,2
DA:491,0
DA:492,0
DA:493,0
DA:494,0
DA:495,0
DA:497,0
DA:498,0
DA:499,0
DA:500,0
DA:501,0
DA:503,0
DA:505,17
DA:509,17
DA:510,17
DA:511,17
DA:512,17
DA:513,24
DA:516,6
DA:518,6
DA:519,6
DA:520,0
DA:521,6
DA:524,6
DA:525,6
DA:528,6
DA:529,2
DA:530,2
DA:531,2
DA:532,2
DA:533,4
DA:536,4
DA:537,4
DA:538,4
DA:539,4
DA:540,4
DA:541,0
DA:544,0
DA:545,0
DA:546,0
DA:547,0
DA:548,0
DA:549,0
DA:550,0
DA:551,0
DA:552,0
DA:553,0
DA:554,0
DA:557,0
DA:558,0
DA:559,0
DA:560,0
DA:561,0
DA:562,0
DA:565,0
DA:566,0
DA:567,0
DA:568,0
DA:569,0
DA:570,0
DA:571,0
DA:573,0
DA:574,6
DA:577,110
DA:578,110
DA:579,110
DA:580,110
DA:581,110
DA:582,110
DA:583,110
DA:584,1
DA:585,1
DA:586,1
DA:587,1
DA:588,109
DA:590,109
DA:591,0
DA:592,0
DA:593,0
DA:594,109
DA:597,109
DA:598,109
DA:601,109
DA:602,109
DA:603,0
DA:606,109
DA:607,109
DA:608,109
DA:609,109
DA:610,109
DA:611,109
DA:612,109
DA:613,109
DA:614,109
DA:618,109
DA:619,104
DA:622,104
DA:623,2
DA:624,2
DA:625,2
DA:626,2
DA:627,2
DA:628,2
DA:631,102
DA:633,102
DA:636,102
DA:637,102
DA:638,102
DA:641,102
DA:643,102
DA:644,102
DA:645,102
DA:646,102
DA:647,102
DA:650,102
DA:652,1
DA:654,0
DA:657,0
DA:660,5
DA:663,8
DA:664,8
DA:665,8
DA:666,8
DA:667,8
DA:668,110
DA:671,115
DA:672,115
DA:673,115
DA:674,115
DA:676,115
DA:679,115
DA:680,115
DA:681,115
DA:682,115
DA:683,115
DA:684,115
DA:687,115
DA:688,115
DA:689,115
DA:690,115
DA:691,115
DA:692,115
DA:693,115
DA:696,115
DA:697,112
DA:698,112
DA:699,112
DA:701,0
DA:704,3
DA:706,3
DA:707,3
DA:708,3
DA:709,3
DA:710,3
DA:711,3
DA:712,3
DA:713,3
DA:714,3
DA:715,3
DA:716,3
DA:717,3
DA:719,0
DA:720,0
DA:721,0
DA:722,0
DA:724,115
DA:727,104
DA:729,104
DA:730,104
DA:731,104
DA:732,104
DA:733,211
DA:734,211
DA:735,110
DA:737,101
DA:739,211
DA:740,104
DA:742,0
DA:745,104
DA:746,104
DA:747,104
DA:750,102
DA:752,102
DA:753,102
DA:754,102
DA:755,102
DA:757,0
DA:759,102
DA:760,0
DA:761,0
DA:763,0
DA:766,102
DA:767,102
DA:769,0
DA:771,102
BRF:0
BRH:0
LF:496
LH:380
end_of_record
SF:/app/src/semantic/conversion.rs
FN:478,_RNvNtNtCsluBEq34Hdgp_6glossa8semantic10conversion12classify_pop
FN:508,_RNvNtNtCsluBEq34Hdgp_6glossa8semantic10conversion13classify_push
FN:1292,_RNvNtNtCsluBEq34Hdgp_6glossa8semantic10conversion13extract_array
FN:1444,_RNvNtNtCsluBEq34Hdgp_6glossa8semantic10conversion13extract_value
FN:876,_RNvNtNtCsluBEq34Hdgp_6glossa8semantic10conversion14classify_print
FN:908,_RNvNtNtCsluBEq34Hdgp_6glossa8semantic10conversion14classify_query
FN:1196,_RNvNtNtCsluBEq34Hdgp_6glossa8semantic10conversion14extract_unwrap
FN:555,_RNvNtNtCsluBEq34Hdgp_6glossa8semantic10conversion15classify_insert
FN:1375,_RNvNtNtCsluBEq34Hdgp_6glossa8semantic10conversion15extract_literal
FN:826,_RNvNtNtCsluBEq34Hdgp_6glossa8semantic10conversion16try_print_unwrap
FN:1317,_RNvNtNtCsluBEq34Hdgp_6glossa8semantic10conversion17extract_binary_op
FN:844,_RNvNtNtCsluBEq34Hdgp_6glossa8semantic10conversion17try_print_default
FN:617,_RNvNtNtCsluBEq34Hdgp_6glossa8semantic10conversion18classify_assertion
FN:404,_RNvNtNtCsluBEq34Hdgp_6glossa8semantic10conversion19classify_assignment
FN:986,_RNvNtNtCsluBEq34Hdgp_6glossa8semantic10conversion19classify_expression
FN:1124,_RNvNtNtCsluBEq34Hdgp_6glossa8semantic10conversion19detect_enum_variant
FN:736,_RNvNtNtCsluBEq34Hdgp_6glossa8semantic10conversion19try_print_binary_op
FN:1271,_RNvNtNtCsluBEq34Hdgp_6glossa8semantic10conversion20extract_index_access
FN:195,_RNvNtNtCsluBEq34Hdgp_6glossa8semantic10conversion22classify_function_call
FN:318,_RNvNtNtCsluBEq34Hdgp_6glossa8semantic10conversion22resolve_binding_target
FN:804,_RNvNtNtCsluBEq34Hdgp_6glossa8semantic10conversion22try_print_index_access
FN:1225,_RNvNtNtCsluBEq34Hdgp_6glossa8semantic10conversion23extract_genitive_method
FN:1395,_RNvNtNtCsluBEq34Hdgp_6glossa8semantic10conversion23extract_object_fallback
FN:1247,_RNvNtNtCsluBEq34Hdgp_6glossa8semantic10conversion23extract_property_access
FN:1385,_RNvNtNtCsluBEq34Hdgp_6glossa8semantic10conversion24extract_enum_from_object
FN:120,_RNvNtNtCsluBEq34Hdgp_6glossa8semantic10conversion25classify_iterator_pattern
FN:365,_RNvNtNtCsluBEq34Hdgp_6glossa8semantic10conversion25classify_variable_binding
FN:1213,_RNvNtNtCsluBEq34Hdgp_6glossa8semantic10conversion25extract_enum_from_subject
FN:761,_RNvNtNtCsluBEq34Hdgp_6glossa8semantic10conversion25try_print_property_access
FN:693,_RNvNtNtCsluBEq34Hdgp_6glossa8semantic10conversion27classify_equality_assertion
FN:71,_RNvNtNtCsluBEq34Hdgp_6glossa8semantic10conversion28classify_assembled_statement
FN:458,_RNvNtNtCsluBEq34Hdgp_6glossa8semantic10conversion28classify_collection_mutation
FN:1105,_RNvNtNtCsluBEq34Hdgp_6glossa8semantic10conversion29classify_genitive_method_call
FN:61,_RNvNtNtCsluBEq34Hdgp_6glossa8semantic10conversion29convert_assembled_to_analyzed
FN:1235,_RNvNtNtCsluBEq34Hdgp_6glossa8semantic10conversion29extract_enum_from_nominatives
FN:144,_RNvNtNtCsluBEq34Hdgp_6glossa8semantic10conversion30classify_property_access_print
FN:1065,_RNvNtNtCsluBEq34Hdgp_6glossa8semantic10conversion30try_parse_genitive_method_call
FN:278,_RNvNtNtCsluBEq34Hdgp_6glossa8semantic10conversion31classify_subjunctive_comparison
FN:1304,_RNCNvNtNtCsluBEq34Hdgp_6glossa8semantic10conversion13extract_array0B7_
FN:1333,_RNCNvNtNtCsluBEq34Hdgp_6glossa8semantic10conversion17extract_binary_op0B7_
FN:1009,_RNCNvNtNtCsluBEq34Hdgp_6glossa8semantic10conversion19classify_expression0B7_
FN:1023,_RNCNvNtNtCsluBEq34Hdgp_6glossa8semantic10conversion19classify_expressions_0B7_
FN:1132,_RNCNvNtNtCsluBEq34Hdgp_6glossa8semantic10conversion19detect_enum_variant0B7_
FN:743,_RNCNvNtNtCsluBEq34Hdgp_6glossa8semantic10conversion19try_print_binary_op0B7_
FN:256,_RNCNvNtNtCsluBEq34Hdgp_6glossa8semantic10conversion22classify_function_call0B7_
FN:1304,_RNCNvNtNtCs4cnvRHYBibt_6glossa8semantic10conversion13extract_array0B7_
FN:1333,_RNCNvNtNtCs4cnvRHYBibt_6glossa8semantic10conversion17extract_binary_op0B7_
FN:1009,_RNCNvNtNtCs4cnvRHYBibt_6glossa8semantic10conversion19classify_expression0B7_
FN:1023,_RNCNvNtNtCs4cnvRHYBibt_6glossa8semantic10conversion19classify_expressions_0B7_
FN:1132,_RNCNvNtNtCs4cnvRHYBibt_6glossa8semantic10conversion19detect_enum_variant0B7_
FN:743,_RNCNvNtNtCs4cnvRHYBibt_6glossa8semantic10conversion19try_print_binary_op0B7_
FN:256,_RNCNvNtNtCs4cnvRHYBibt_6glossa8semantic10conversion22classify_function_call0B7_
FN:1522,_RNvNtNtNtCs4cnvRHYBibt_6glossa8semantic10conversion5testss_46test_classify_expression_empty_exprs_propagate
FN:478,_RNvNtNtCs4cnvRHYBibt_6glossa8semantic10conversion12classify_pop
FN:508,_RNvNtNtCs4cnvRHYBibt_6glossa8semantic10conversion13classify_push
FN:1292,_RNvNtNtCs4cnvRHYBibt_6glossa8semantic10conversion13extract_array
FN:1444,_RNvNtNtCs4cnvRHYBibt_6glossa8semantic10conversion13extract_value
FN:876,_RNvNtNtCs4cnvRHYBibt_6glossa8semantic10conversion14classify_print
FN:908,_RNvNtNtCs4cnvRHYBibt_6glossa8semantic10conversion14classify_query
FN:1196,_RNvNtNtCs4cnvRHYBibt_6glossa8semantic10conversion14extract_unwrap
FN:555,_RNvNtNtCs4cnvRHYBibt_6glossa8semantic10conversion15classify_insert
FN:1375,_RNvNtNtCs4cnvRHYBibt_6glossa8semantic10conversion15extract_literal
FN:826,_RNvNtNtCs4cnvRHYBibt_6glossa8semantic10conversion16try_print_unwrap
FN:1317,_RNvNtNtCs4cnvRHYBibt_6glossa8semantic10conversion17extract_binary_op
FN:844,_RNvNtNtCs4cnvRHYBibt_6glossa8semantic10conversion17try_print_default
FN:617,_RNvNtNtCs4cnvRHYBibt_6glossa8semantic10conversion18classify_assertion
FN:404,_RNvNtNtCs4cnvRHYBibt_6glossa8semantic10conversion19classify_assignment
FN:986,_RNvNtNtCs4cnvRHYBibt_6glossa8semantic10conversion19classify_expression
FN:1124,_RNvNtNtCs4cnvRHYBibt_6glossa8semantic10conversion19detect_enum_variant
FN:736,_RNvNtNtCs4cnvRHYBibt_6glossa8semantic10conversion19try_print_binary_op
FN:1271,_RNvNtNtCs4cnvRHYBibt_6glossa8semantic10conversion20extract_index_access
FN:195,_RNvNtNtCs4cnvRHYBibt_6glossa8semantic10conversion22classify_function_call
FN:318,_RNvNtNtCs4cnvRHYBibt_6glossa8semantic10conversion22resolve_binding_target
FN:804,_RNvNtNtCs4cnvRHYBibt_6glossa8semantic10conversion22try_print_index_access
FN:1225,_RNvNtNtCs4cnvRHYBibt_6glossa8semantic10conversion23extract_genitive_method
FN:1395,_RNvNtNtCs4cnvRHYBibt_6glossa8semantic10conversion23extract_object_fallback
FN:1247,_RNvNtNtCs4cnvRHYBibt_6glossa8semantic10conversion23extract_property_access
FN:1385,_RNvNtNtCs4cnvRHYBibt_6glossa8semantic10conversion24extract_enum_from_object
FN:120,_RNvNtNtCs4cnvRHYBibt_6glossa8semantic10conversion25classify_iterator_pattern
FN:365,_RNvNtNtCs4cnvRHYBibt_6glossa8semantic10conversion25classify_variable_binding
FN:1213,_RNvNtNtCs4cnvRHYBibt_6glossa8semantic10conversion25extract_enum_from_subject
FN:761,_RNvNtNtCs4cnvRHYBibt_6glossa8semantic10conversion25try_print_property_access
FN:693,_RNvNtNtCs4cnvRHYBibt_6glossa8semantic10conversion27classify_equality_assertion
FN:71,_RNvNtNtCs4cnvRHYBibt_6glossa8semantic10conversion28classify_assembled_statement
FN:458,_RNvNtNtCs4cnvRHYBibt_6glossa8semantic10conversion28classify_collection_mutation
FN:1105,_RNvNtNtCs4cnvRHYBibt_6glossa8semantic10conversion29classify_genitive_method_call
FN:61,_RNvNtNtCs4cnvRHYBibt_6glossa8semantic10conversion29convert_assembled_to_analyzed
FN:1235,_RNvNtNtCs4cnvRHYBibt_6glossa8semantic10conversion29extract_enum_from_nominatives
FN:144,_RNvNtNtCs4cnvRHYBibt_6glossa8semantic10conversion30classify_property_access_print
FN:1065,_RNvNtNtCs4cnvRHYBibt_6glossa8semantic10conversion30try_parse_genitive_method_call
FN:278,_RNvNtNtCs4cnvRHYBibt_6glossa8semantic10conversion31classify_subjunctive_comparison
FNDA:335,_RNvNtNtCsluBEq34Hdgp_6glossa8semantic10conversion12classify_pop
FNDA:332,_RNvNtNtCsluBEq34Hdgp_6glossa8semantic10conversion13classify_push
FNDA:124,_RNvNtNtCsluBEq34Hdgp_6glossa8semantic10conversion13extract_array
FNDA:191,_RNvNtNtCsluBEq34Hdgp_6glossa8semantic10conversion13extract_value
FNDA:553,_RNvNtNtCsluBEq34Hdgp_6glossa8semantic10conversion14classify_print
FNDA:295,_RNvNtNtCsluBEq34Hdgp_6glossa8semantic10conversion14classify_query
FNDA:186,_RNvNtNtCsluBEq34Hdgp_6glossa8semantic10conversion14extract_unwrap
FNDA:329,_RNvNtNtCsluBEq34Hdgp_6glossa8semantic10conversion15classify_insert
FNDA:82,_RNvNtNtCsluBEq34Hdgp_6glossa8semantic10conversion15extract_literal
FNDA:245,_RNvNtNtCsluBEq34Hdgp_6glossa8semantic10conversion16try_print_unwrap
FNDA:85,_RNvNtNtCsluBEq34Hdgp_6glossa8semantic10conversion17extract_binary_op
FNDA:243,_RNvNtNtCsluBEq34Hdgp_6glossa8semantic10conversion17try_print_default
FNDA:775,_RNvNtNtCsluBEq34Hdgp_6glossa8semantic10conversion18classify_assertion
FNDA:574,_RNvNtNtCsluBEq34Hdgp_6glossa8semantic10conversion19classify_assignment
FNDA:291,_RNvNtNtCsluBEq34Hdgp_6glossa8semantic10conversion19classify_expression
FNDA:236,_RNvNtNtCsluBEq34Hdgp_6glossa8semantic10conversion19detect_enum_variant
FNDA:258,_RNvNtNtCsluBEq34Hdgp_6glossa8semantic10conversion19try_print_binary_op
FNDA:125,_RNvNtNtCsluBEq34Hdgp_6glossa8semantic10conversion20extract_index_access
FNDA:778,_RNvNtNtCsluBEq34Hdgp_6glossa8semantic10conversion22classify_function_call
FNDA:187,_RNvNtNtCsluBEq34Hdgp_6glossa8semantic10conversion22resolve_binding_target
FNDA:250,_RNvNtNtCsluBEq34Hdgp_6glossa8semantic10conversion22try_print_index_access
FNDA:180,_RNvNtNtCsluBEq34Hdgp_6glossa8semantic10conversion23extract_genitive_method
FNDA:3,_RNvNtNtCsluBEq34Hdgp_6glossa8semantic10conversion23extract_object_fallback
FNDA:125,_RNvNtNtCsluBEq34Hdgp_6glossa8semantic10conversion23extract_property_access
FNDA:82,_RNvNtNtCsluBEq34Hdgp_6glossa8semantic10conversion24extract_enum_from_object
FNDA:811,_RNvNtNtCsluBEq34Hdgp_6glossa8semantic10conversion25classify_iterator_pattern
FNDA:761,_RNvNtNtCsluBEq34Hdgp_6glossa8semantic10conversion25classify_variable_binding
FNDA:180,_RNvNtNtCsluBEq34Hdgp_6glossa8semantic10conversion25extract_enum_from_subject
FNDA:255,_RNvNtNtCsluBEq34Hdgp_6glossa8semantic10conversion25try_print_property_access
FNDA:773,_RNvNtNtCsluBEq34Hdgp_6glossa8semantic10conversion27classify_equality_assertion
FNDA:811,_RNvNtNtCsluBEq34Hdgp_6glossa8semantic10conversion28classify_assembled_statement
FNDA:567,_RNvNtNtCsluBEq34Hdgp_6glossa8semantic10conversion28classify_collection_mutation
FNDA:777,_RNvNtNtCsluBEq34Hdgp_6glossa8semantic10conversion29classify_genitive_method_call
FNDA:811,_RNvNtNtCsluBEq34Hdgp_6glossa8semantic10conversion29convert_assembled_to_analyzed
FNDA:180,_RNvNtNtCsluBEq34Hdgp_6glossa8semantic10conversion29extract_enum_from_nominatives
FNDA:781,_RNvNtNtCsluBEq34Hdgp_6glossa8semantic10conversion30classify_property_access_print
FNDA:699,_RNvNtNtCsluBEq34Hdgp_6glossa8semantic10conversion30try_parse_genitive_method_call
FNDA:768,_RNvNtNtCsluBEq34Hdgp_6glossa8semantic10conversion31classify_subjunctive_comparison
FNDA:36,_RNCNvNtNtCsluBEq34Hdgp_6glossa8semantic10conversion13extract_array0B7_
FNDA:0,_RNCNvNtNtCsluBEq34Hdgp_6glossa8semantic10conversion17extract_binary_op0B7_
FNDA:7,_RNCNvNtNtCsluBEq34Hdgp_6glossa8semantic10conversion19classify_expression0B7_
FNDA:3,_RNCNvNtNtCsluBEq34Hdgp_6glossa8semantic10conversion19classify_expressions_0B7_
FNDA:714,_RNCNvNtNtCsluBEq34Hdgp_6glossa8semantic10conversion19detect_enum_variant0B7_
FNDA:3,_RNCNvNtNtCsluBEq34Hdgp_6glossa8semantic10conversion19try_print_binary_op0B7_
FNDA:1,_RNCNvNtNtCsluBEq34Hdgp_6glossa8semantic10conversion22classify_function_call0B7_
FNDA:1,_RNCNvNtNtCs4cnvRHYBibt_6glossa8semantic10conversion13extract_array0B7_
FNDA:9,_RNCNvNtNtCs4cnvRHYBibt_6glossa8semantic10conversion17extract_binary_op0B7_
FNDA:0,_RNCNvNtNtCs4cnvRHYBibt_6glossa8semantic10conversion19classify_expression0B7_
FNDA:0,_RNCNvNtNtCs4cnvRHYBibt_6glossa8semantic10conversion19classify_expressions_0B7_
FNDA:5437,_RNCNvNtNtCs4cnvRHYBibt_6glossa8semantic10conversion19detect_enum_variant0B7_
FNDA:1,_RNCNvNtNtCs4cnvRHYBibt_6glossa8semantic10conversion19try_print_binary_op0B7_
FNDA:0,_RNCNvNtNtCs4cnvRHYBibt_6glossa8semantic10conversion22classify_function_call0B7_
FNDA:1,_RNvNtNtNtCs4cnvRHYBibt_6glossa8semantic10conversion5testss_46test_classify_expression_empty_exprs_propagate
FNDA:37,_RNvNtNtCs4cnvRHYBibt_6glossa8semantic10conversion12classify_pop
FNDA:36,_RNvNtNtCs4cnvRHYBibt_6glossa8semantic10conversion13classify_push
FNDA:1369,_RNvNtNtCs4cnvRHYBibt_6glossa8semantic10conversion13extract_array
FNDA:1378,_RNvNtNtCs4cnvRHYBibt_6glossa8semantic10conversion13extract_value
FNDA:33,_RNvNtNtCs4cnvRHYBibt_6glossa8semantic10conversion14classify_print
FNDA:2,_RNvNtNtCs4cnvRHYBibt_6glossa8semantic10conversion14classify_query
FNDA:1376,_RNvNtNtCs4cnvRHYBibt_6glossa8semantic10conversion14extract_unwrap
FNDA:33,_RNvNtNtCs4cnvRHYBibt_6glossa8semantic10conversion15classify_insert
FNDA:1361,_RNvNtNtCs4cnvRHYBibt_6glossa8semantic10conversion15extract_literal
FNDA:28,_RNvNtNtCs4cnvRHYBibt_6glossa8semantic10conversion16try_print_unwrap
FNDA:1368,_RNvNtNtCs4cnvRHYBibt_6glossa8semantic10conversion17extract_binary_op
FNDA:27,_RNvNtNtCs4cnvRHYBibt_6glossa8semantic10conversion17try_print_default
FNDA:1399,_RNvNtNtCs4cnvRHYBibt_6glossa8semantic10conversion18classify_assertion
FNDA:42,_RNvNtNtCs4cnvRHYBibt_6glossa8semantic10conversion19classify_assignment
FNDA:3,_RNvNtNtCs4cnvRHYBibt_6glossa8semantic10conversion19classify_expression
FNDA:1371,_RNvNtNtCs4cnvRHYBibt_6glossa8semantic10conversion19detect_enum_variant
FNDA:31,_RNvNtNtCs4cnvRHYBibt_6glossa8semantic10conversion19try_print_binary_op
FNDA:1370,_RNvNtNtCs4cnvRHYBibt_6glossa8semantic10conversion20extract_index_access
FNDA:1399,_RNvNtNtCs4cnvRHYBibt_6glossa8semantic10conversion22classify_function_call
FNDA:1356,_RNvNtNtCs4cnvRHYBibt_6glossa8semantic10conversion22resolve_binding_target
FNDA:29,_RNvNtNtCs4cnvRHYBibt_6glossa8semantic10conversion22try_print_index_access
FNDA:1371,_RNvNtNtCs4cnvRHYBibt_6glossa8semantic10conversion23extract_genitive_method
FNDA:5,_RNvNtNtCs4cnvRHYBibt_6glossa8semantic10conversion23extract_object_fallback
FNDA:1371,_RNvNtNtCs4cnvRHYBibt_6glossa8semantic10conversion23extract_property_access
FNDA:1363,_RNvNtNtCs4cnvRHYBibt_6glossa8semantic10conversion24extract_enum_from_object
FNDA:1399,_RNvNtNtCs4cnvRHYBibt_6glossa8semantic10conversion25classify_iterator_pattern
FNDA:1398,_RNvNtNtCs4cnvRHYBibt_6glossa8semantic10conversion25classify_variable_binding
FNDA:1375,_RNvNtNtCs4cnvRHYBibt_6glossa8semantic10conversion25extract_enum_from_subject
FNDA:30,_RNvNtNtCs4cnvRHYBibt_6glossa8semantic10conversion25try_print_property_access
FNDA:1399,_RNvNtNtCs4cnvRHYBibt_6glossa8semantic10conversion27classify_equality_assertion
FNDA:1399,_RNvNtNtCs4cnvRHYBibt_6glossa8semantic10conversion28classify_assembled_statement
FNDA:39,_RNvNtNtCs4cnvRHYBibt_6glossa8semantic10conversion28classify_collection_mutation
FNDA:1399,_RNvNtNtCs4cnvRHYBibt_6glossa8semantic10conversion29classify_genitive_method_call
FNDA:1390,_RNvNtNtCs4cnvRHYBibt_6glossa8semantic10conversion29convert_assembled_to_analyzed
FNDA:1371,_RNvNtNtCs4cnvRHYBibt_6glossa8semantic10conversion29extract_enum_from_nominatives
FNDA:1399,_RNvNtNtCs4cnvRHYBibt_6glossa8semantic10conversion30classify_property_access_print
FNDA:2739,_RNvNtNtCs4cnvRHYBibt_6glossa8semantic10conversion30try_parse_genitive_method_call
FNDA:1399,_RNvNtNtCs4cnvRHYBibt_6glossa8semantic10conversion31classify_subjunctive_comparison
FNF:46
FNH:46
DA:61,2201
DA:62,2201
DA:63,2201
DA:64,2201
DA:65,2201
DA:66,2201
DA:71,2210
DA:72,2210
DA:73,2210
DA:74,2210
DA:75,2210
DA:76,30
DA:77,2180
DA:78,2180
DA:79,3
DA:80,2177
DA:81,2177
DA:82,1
DA:83,2176
DA:84,2176
DA:85,2
DA:86,2174
DA:87,2174
DA:88,2
DA:89,2172
DA:90,2172
DA:91,5
DA:92,2167
DA:93,2167
DA:94,8
DA:95,2159
DA:96,2159
DA:97,1540
DA:98,616
DA:99,616
DA:100,5
DA:101,606
DA:102,606
DA:103,20
DA:104,586
DA:105,586
DA:106,288
DA:107,297
DA:108,297
DA:109,4
DA:110,293
DA:112,293
DA:113,2210
DA:120,2210
DA:121,2210
DA:122,2210
DA:123,2210
DA:124,2210
DA:125,1976
DA:126,1976
DA:127,1660
DA:129,234
DA:132,2210
DA:133,2155
DA:134,2147
DA:135,343
DA:137,30
DA:138,2180
DA:140,2180
DA:141,2210
DA:144,2180
DA:145,2180
DA:146,2180
DA:147,2180
DA:148,2180
DA:149,234
DA:152,1946
DA:153,1654
DA:154,292
DA:156,292
DA:157,288
DA:158,4
DA:160,4
DA:161,1
DA:165,3
DA:168,3
DA:171,3
DA:172,0
DA:175,3
DA:176,0
DA:177,3
DA:180,3
DA:181,3
DA:182,3
DA:183,3
DA:184,3
DA:185,3
DA:186,3
DA:187,3
DA:188,3
DA:189,3
DA:191,3
DA:192,2180
DA:195,2177
DA:196,2177
DA:197,2177
DA:198,2177
DA:199,2177
DA:200,234
DA:204,1943
DA:205,389
DA:206,1554
DA:209,1554
DA:210,1614
DA:211,61
DA:212,1
DA:213,1
DA:214,60
DA:217,1554
DA:218,1553
DA:219,2
DA:220,0
DA:221,0
DA:222,1554
DA:224,1554
DA:225,1555
DA:226,2
DA:227,0
DA:228,0
DA:229,2
DA:231,1
DA:234,1554
DA:235,1553
DA:238,1
DA:239,0
DA:242,1
DA:243,1
DA:244,1
DA:245,1
DA:246,1
DA:248,2
DA:249,1
DA:250,1
DA:251,1
DA:254,1
DA:255,1
DA:256,1
DA:257,1
DA:259,1
DA:260,1
DA:261,1
DA:262,1
DA:263,1
DA:264,1
DA:265,1
DA:267,1
DA:268,1
DA:270,1
DA:271,1
DA:272,1
DA:273,1
DA:274,1
DA:275,2177
DA:278,2167
DA:279,2167
DA:280,2167
DA:281,2167
DA:282,2167
DA:283,234
DA:286,1933
DA:287,1551
DA:288,11
DA:289,11
DA:291,1925
DA:292,8
DA:294,8
DA:295,0
DA:298,8
DA:299,6
DA:300,6
DA:301,6
DA:302,6
DA:304,2
DA:305,2
DA:306,2
DA:307,2
DA:310,8
DA:311,8
DA:312,8
DA:314,8
DA:315,2167
DA:318,1543
DA:319,1543
DA:320,1543
DA:321,1543
DA:323,1543
DA:324,7
DA:326,1543
DA:327,6
DA:328,6
DA:329,6
DA:330,6
DA:331,1537
DA:334,1537
DA:335,2
DA:336,2
DA:338,2
DA:339,2
DA:340,2
DA:341,2
DA:342,2
DA:344,0
DA:346,1535
DA:349,1535
DA:350,1534
DA:351,1
DA:354,1
DA:355,1
DA:356,1
DA:357,1
DA:358,1
DA:359,0
DA:361,0
DA:362,1543
DA:365,2159
DA:366,2159
DA:367,2159
DA:368,2159
DA:369,2159
DA:370,234
DA:373,1925
DA:374,382
DA:375,1543
DA:377,1543
DA:378,1543
DA:380,1540
DA:381,10
DA:382,10
DA:383,10
DA:384,10
DA:386,1530
DA:389,1540
DA:390,1540
DA:391,8
DA:392,1532
DA:393,1532
DA:394,1532
DA:396,1540
DA:397,1540
DA:398,1540
DA:399,1540
DA:400,1540
DA:401,2159
DA:404,616
DA:405,616
DA:406,616
DA:407,616
DA:408,616
DA:409,234
DA:412,382
DA:413,372
DA:414,10
DA:416,10
DA:417,0
DA:420,10
DA:422,10
DA:423,1
DA:424,1
DA:425,1
DA:426,1
DA:427,2
DA:428,2
DA:429,2
DA:430,2
DA:432,7
DA:433,2
DA:434,2
DA:435,2
DA:436,2
DA:437,2
DA:438,2
DA:440,7
DA:441,2
DA:442,2
DA:443,2
DA:444,2
DA:445,5
DA:447,5
DA:448,5
DA:449,5
DA:450,5
DA:451,5
DA:452,5
DA:455,616
DA:458,606
DA:459,606
DA:460,606
DA:461,606
DA:462,606
DA:463,372
DA:465,372
DA:466,4
DA:467,368
DA:468,368
DA:469,6
DA:470,362
DA:471,362
DA:472,10
DA:473,352
DA:474,234
DA:475,586
DA:476,606
DA:478,372
DA:479,372
DA:480,372
DA:481,372
DA:482,372
DA:483,372
DA:484,4
DA:486,4
DA:487,4
DA:488,4
DA:489,4
DA:490,4
DA:491,4
DA:492,4
DA:494,4
DA:495,4
DA:496,4
DA:497,4
DA:498,4
DA:499,4
DA:500,4
DA:501,4
DA:503,4
DA:504,368
DA:505,368
DA:506,372
DA:508,368
DA:509,368
DA:510,368
DA:511,368
DA:512,368
DA:513,368
DA:514,6
DA:516,6
DA:517,6
DA:518,6
DA:519,6
DA:520,6
DA:521,6
DA:522,6
DA:524,6
DA:525,4
DA:526,2
DA:527,1
DA:528,1
DA:529,1
DA:530,1
DA:531,1
DA:532,1
DA:533,1
DA:535,1
DA:536,1
DA:537,1
DA:538,1
DA:541,6
DA:542,6
DA:543,6
DA:544,6
DA:545,6
DA:546,6
DA:547,6
DA:548,6
DA:550,6
DA:551,362
DA:552,362
DA:553,368
DA:555,362
DA:556,362
DA:557,362
DA:558,362
DA:559,362
DA:560,362
DA:561,10
DA:563,10
DA:564,10
DA:565,10
DA:566,10
DA:567,10
DA:569,10
DA:570,10
DA:571,10
DA:572,10
DA:574,10
DA:576,10
DA:577,5
DA:578,5
DA:579,5
DA:581,5
DA:582,5
DA:583,0
DA:584,0
DA:585,0
DA:586,0
DA:587,0
DA:588,0
DA:589,0
DA:590,0
DA:592,0
DA:595,10
DA:596,5
DA:598,5
DA:600,10
DA:601,10
DA:602,10
DA:603,10
DA:604,10
DA:605,10
DA:606,10
DA:607,10
DA:609,10
DA:610,352
DA:611,352
DA:612,362
DA:617,2174
DA:618,2174
DA:619,2174
DA:620,2174
DA:621,2174
DA:622,1940
DA:624,1940
DA:629,2
DA:630,2
DA:633,2
DA:634,2
DA:635,2
DA:636,2
DA:637,2
DA:639,2
DA:640,2
DA:642,0
DA:643,0
DA:644,0
DA:645,0
DA:648,2
DA:649,2
DA:652,2
DA:653,0
DA:655,2
DA:656,2
DA:657,2
DA:658,2
DA:659,2
DA:660,2
DA:661,2
DA:664,2
DA:665,2
DA:666,2
DA:667,2
DA:668,2
DA:669,2
DA:670,2
DA:671,2
DA:672,2
DA:673,2
DA:674,2
DA:676,2
DA:677,2
DA:678,2
DA:679,2
DA:680,2
DA:681,2
DA:683,2
DA:684,0
DA:685,1938
DA:686,234
DA:687,2172
DA:688,2174
DA:693,2172
DA:694,2172
DA:695,2172
DA:696,2172
DA:697,2172
DA:698,1938
DA:700,1938
DA:702,5
DA:703,5
DA:706,5
DA:707,5
DA:708,5
DA:709,5
DA:710,5
DA:711,5
DA:712,5
DA:713,5
DA:716,5
DA:717,5
DA:718,5
DA:720,5
DA:721,5
DA:722,5
DA:723,5
DA:724,5
DA:725,5
DA:726,5
DA:727,5
DA:729,5
DA:730,0
DA:731,1933
DA:732,234
DA:733,2167
DA:734,2172
DA:736,289
DA:737,289
DA:738,289
DA:739,289
DA:740,289
DA:741,30
DA:742,4
DA:743,4
DA:744,4
DA:745,4
DA:747,26
DA:750,30
DA:752,30
DA:753,4
DA:754,4
DA:755,4
DA:756,26
DA:757,259
DA:758,285
DA:759,289
DA:761,285
DA:762,285
DA:763,285
DA:764,285
DA:765,285
DA:766,6
DA:767,12
DA:768,6
DA:769,6
DA:770,6
DA:771,6
DA:772,6
DA:773,2
DA:774,2
DA:775,2
DA:776,2
DA:777,2
DA:779,0
DA:782,4
DA:784,6
DA:785,6
DA:786,3
DA:787,2
DA:788,1
DA:790,6
DA:791,6
DA:792,6
DA:793,6
DA:794,6
DA:795,6
DA:796,6
DA:797,6
DA:799,6
DA:800,279
DA:801,279
DA:802,285
DA:804,279
DA:805,279
DA:806,279
DA:807,279
DA:808,279
DA:809,6
DA:810,12
DA:811,6
DA:812,6
DA:813,6
DA:814,6
DA:815,6
DA:816,6
DA:817,6
DA:818,6
DA:819,6
DA:821,6
DA:822,273
DA:823,273
DA:824,279
DA:826,273
DA:827,273
DA:828,273
DA:829,273
DA:830,273
DA:831,3
DA:832,6
DA:833,3
DA:834,3
DA:835,3
DA:836,3
DA:837,3
DA:839,3
DA:840,270
DA:841,270
DA:842,273
DA:844,270
DA:845,270
DA:846,270
DA:847,270
DA:848,269
DA:849,270
DA:851,269
DA:852,130
DA:853,43
DA:854,43
DA:855,43
DA:856,43
DA:857,43
DA:858,43
DA:859,43
DA:860,43
DA:861,226
DA:863,269
DA:864,0
DA:865,0
DA:866,0
DA:867,0
DA:868,0
DA:869,0
DA:870,269
DA:872,269
DA:873,270
DA:876,586
DA:877,586
DA:878,586
DA:879,586
DA:880,586
DA:881,352
DA:883,352
DA:884,289
DA:885,4
DA:886,285
DA:888,285
DA:889,6
DA:890,279
DA:892,279
DA:893,6
DA:894,273
DA:896,273
DA:897,3
DA:898,270
DA:900,270
DA:901,269
DA:902,63
DA:903,234
DA:904,297
DA:905,586
DA:908,297
DA:909,297
DA:910,297
DA:911,297
DA:912,297
DA:914,4
DA:915,3
DA:917,3
DA:918,3
DA:919,3
DA:920,3
DA:921,3
DA:923,3
DA:924,3
DA:925,3
DA:926,3
DA:928,3
DA:929,3
DA:931,0
DA:932,0
DA:933,0
DA:934,0
DA:937,3
DA:938,3
DA:941,3
DA:942,2
DA:944,1
DA:945,1
DA:946,1
DA:947,1
DA:948,1
DA:949,1
DA:950,1
DA:953,3
DA:954,3
DA:955,3
DA:956,3
DA:957,3
DA:958,3
DA:959,3
DA:960,3
DA:962,3
DA:963,1
DA:966,1
DA:967,1
DA:968,0
DA:969,0
DA:970,1
DA:971,1
DA:972,1
DA:973,1
DA:974,1
DA:975,1
DA:976,1
DA:977,1
DA:978,1
DA:979,1
DA:980,1
DA:981,293
DA:982,293
DA:983,297
DA:986,294
DA:992,294
DA:993,9
DA:996,9
DA:998,285
DA:1001,294
DA:1005,294
DA:1006,9
DA:1008,9
DA:1009,7
DA:1010,7
DA:1011,7
DA:1014,9
DA:1015,3
DA:1016,6
DA:1017,0
DA:1018,0
DA:1019,0
DA:1020,0
DA:1022,6
DA:1023,3
DA:1024,3
DA:1025,3
DA:1028,9
DA:1029,5
DA:1030,5
DA:1031,5
DA:1032,285
DA:1035,294
DA:1036,17
DA:1037,8
DA:1038,8
DA:1039,8
DA:1040,8
DA:1041,9
DA:1042,0
DA:1043,0
DA:1044,0
DA:1045,0
DA:1046,9
DA:1047,277
DA:1049,294
DA:1051,2
DA:1052,2
DA:1053,2
DA:1054,2
DA:1055,2
DA:1056,2
DA:1057,2
DA:1058,292
DA:1060,294
DA:1061,294
DA:1065,3438
DA:1066,3438
DA:1067,3438
DA:1068,3438
DA:1069,3438
DA:1070,3170
DA:1071,2
DA:1072,2
DA:1074,2
DA:1075,2
DA:1076,2
DA:1077,2
DA:1078,2
DA:1079,2
DA:1081,2
DA:1082,2
DA:1083,0
DA:1084,0
DA:1086,2
DA:1087,2
DA:1088,2
DA:1089,2
DA:1090,2
DA:1091,2
DA:1092,2
DA:1093,2
DA:1094,2
DA:1095,2
DA:1096,2
DA:1097,0
DA:1098,0
DA:1099,3168
DA:1100,268
DA:1101,3436
DA:1102,3438
DA:1105,2176
DA:1106,2176
DA:1107,2176
DA:1108,2176
DA:1109,2176
DA:1110,1942
DA:1111,1942
DA:1112,289
DA:1113,1653
DA:1114,234
DA:1116,1887
DA:1117,2
DA:1118,1885
DA:1120,1885
DA:1121,2176
DA:1124,1607
DA:1125,1607
DA:1126,1607
DA:1127,1607
DA:1128,1607
DA:1129,1607
DA:1132,6151
DA:1135,1607
DA:1136,6
DA:1137,6
DA:1138,6
DA:1139,6
DA:1140,6
DA:1141,6
DA:1142,6
DA:1143,1601
DA:1145,1601
DA:1146,1538
DA:1147,1538
DA:1150,1538
DA:1151,28
DA:1152,28
DA:1153,28
DA:1154,28
DA:1155,28
DA:1156,28
DA:1157,28
DA:1158,1510
DA:1161,1510
DA:1162,14
DA:1163,14
DA:1164,14
DA:1165,14
DA:1166,14
DA:1167,14
DA:1168,14
DA:1169,14
DA:1170,14
DA:1171,14
DA:1172,1496
DA:1175,1496
DA:1176,13
DA:1177,13
DA:1178,13
DA:1179,13
DA:1180,13
DA:1181,13
DA:1182,13
DA:1183,13
DA:1184,13
DA:1185,13
DA:1186,1483
DA:1187,63
DA:1189,1546
DA:1190,1607
DA:1196,1562
DA:1197,1562
DA:1198,1562
DA:1199,1562
DA:1200,1562
DA:1201,7
DA:1202,7
DA:1203,7
DA:1204,7
DA:1205,7
DA:1206,7
DA:1207,7
DA:1208,7
DA:1209,1555
DA:1210,1555
DA:1211,1562
DA:1213,1555
DA:1214,1555
DA:1215,1555
DA:1216,1555
DA:1217,1555
DA:1218,1536
DA:1220,4
DA:1221,1551
DA:1222,1551
DA:1223,1555
DA:1225,1551
DA:1226,1551
DA:1227,1551
DA:1228,1551
DA:1229,1551
DA:1230,0
DA:1231,1551
DA:1232,1551
DA:1233,1551
DA:1235,1551
DA:1236,1551
DA:1237,1551
DA:1238,1551
DA:1239,1561
DA:1240,65
DA:1241,55
DA:1242,10
DA:1244,1496
DA:1245,1551
DA:1247,1496
DA:1248,1496
DA:1249,1496
DA:1250,1496
DA:1251,1496
DA:1252,1
DA:1253,1
DA:1254,1
DA:1255,1
DA:1256,1
DA:1257,1
DA:1258,1
DA:1259,1
DA:1260,1
DA:1261,1
DA:1262,1
DA:1263,1
DA:1264,1
DA:1265,1
DA:1266,1
DA:1267,1495
DA:1268,1495
DA:1269,1496
DA:1271,1495
DA:1272,1495
DA:1273,1495
DA:1274,1495
DA:1275,1495
DA:1276,2
DA:1277,2
DA:1278,2
DA:1279,2
DA:1280,2
DA:1281,2
DA:1282,2
DA:1283,2
DA:1284,2
DA:1285,2
DA:1286,2
DA:1287,2
DA:1288,1493
DA:1289,1493
DA:1290,1495
DA:1292,1493
DA:1293,1493
DA:1294,1493
DA:1295,1493
DA:1296,1493
DA:1297,40
DA:1298,150
DA:1299,110
DA:1302,40
DA:1303,40
DA:1304,40
DA:1305,40
DA:1306,40
DA:1307,40
DA:1308,40
DA:1309,40
DA:1310,40
DA:1311,40
DA:1312,40
DA:1313,1453
DA:1314,1453
DA:1315,1493
DA:1317,1453
DA:1318,1453
DA:1319,1453
DA:1320,1453
DA:1321,1453
DA:1323,9
DA:1324,3
DA:1325,3
DA:1326,3
DA:1327,3
DA:1328,3
DA:1329,0
DA:1330,6
DA:1332,6
DA:1333,9
DA:1334,9
DA:1335,9
DA:1338,6
DA:1339,3
DA:1342,1
DA:1343,1
DA:1344,1
DA:1345,1
DA:1346,1
DA:1347,1
DA:1348,5
DA:1351,5
DA:1352,2
DA:1354,2
DA:1355,2
DA:1356,2
DA:1357,2
DA:1358,2
DA:1359,2
DA:1360,3
DA:1363,3
DA:1364,2
DA:1365,2
DA:1366,2
DA:1367,2
DA:1368,2
DA:1369,2
DA:1370,1
DA:1371,1444
DA:1372,1445
DA:1373,1453
DA:1375,1443
DA:1376,1443
DA:1377,1443
DA:1378,1443
DA:1379,1443
DA:1380,1435
DA:1381,8
DA:1382,8
DA:1383,1443
DA:1385,1445
DA:1386,1445
DA:1387,1445
DA:1388,1445
DA:1389,1445
DA:1390,6
DA:1391,1439
DA:1392,1439
DA:1393,1445
DA:1395,8
DA:1396,8
DA:1397,8
DA:1398,8
DA:1399,8
DA:1400,4
DA:1403,4
DA:1404,1
DA:1405,1
DA:1406,1
DA:1407,1
DA:1408,1
DA:1409,1
DA:1410,1
DA:1411,3
DA:1413,3
DA:1414,3
DA:1415,3
DA:1416,3
DA:1417,3
DA:1418,3
DA:1419,3
DA:1420,4
DA:1421,4
DA:1422,8
DA:1444,1569
DA:1445,1569
DA:1446,1569
DA:1447,1569
DA:1448,1569
DA:1451,4
DA:1452,4
DA:1454,4
DA:1455,2
DA:1456,2
DA:1457,0
DA:1458,1565
DA:1460,1565
DA:1462,3
DA:1463,3
DA:1466,3
DA:1467,2
DA:1468,2
DA:1469,0
DA:1470,1562
DA:1472,1562
DA:1473,7
DA:1474,1555
DA:1475,1555
DA:1476,4
DA:1477,1551
DA:1478,1551
DA:1479,0
DA:1480,1551
DA:1481,1551
DA:1482,55
DA:1483,1496
DA:1484,1496
DA:1485,1
DA:1486,1495
DA:1487,1495
DA:1488,2
DA:1489,1493
DA:1490,1493
DA:1491,40
DA:1492,1453
DA:1493,1453
DA:1494,8
DA:1495,1445
DA:1497,1445
DA:1498,2
DA:1499,1443
DA:1500,1443
DA:1501,1435
DA:1502,8
DA:1503,8
DA:1504,4
DA:1505,4
DA:1508,4
DA:1509,4
DA:1510,4
DA:1511,4
DA:1512,4
DA:1513,4
DA:1514,4
DA:1515,1569
DA:1522,1
DA:1525,1
DA:1526,1
DA:1527,1
DA:1528,1
DA:1531,1
DA:1532,1
DA:1534,1
DA:1535,1
DA:1537,0
DA:1539,1
BRF:0
BRH:0
LF:1144
LH:1076
end_of_record
SF:/app/src/semantic/declarations.rs
FN:216,_RINvNtNtCsluBEq34Hdgp_6glossa8semantic12declarations18analyze_trait_implNtNtB4_8analyzer16SemanticAnalyzerEB6_
FN:35,_RINvNtNtCsluBEq34Hdgp_6glossa8semantic12declarations23analyze_type_definitionNtNtB4_8analyzer16SemanticAnalyzerEB6_
FN:542,_RINvNtNtCsluBEq34Hdgp_6glossa8semantic12declarations24analyze_test_declarationNtNtB4_8analyzer16SemanticAnalyzerEB6_
FN:115,_RINvNtNtCsluBEq34Hdgp_6glossa8semantic12declarations24analyze_trait_definitionNtNtB4_8analyzer16SemanticAnalyzerEB6_
FN:347,_RINvNtNtCsluBEq34Hdgp_6glossa8semantic12declarations25parse_function_definitionNtNtB4_8analyzer16SemanticAnalyzerEB6_
FN:229,_RNCINvNtNtCsluBEq34Hdgp_6glossa8semantic12declarations18analyze_trait_implNtNtB6_8analyzer16SemanticAnalyzerE0B8_
FN:235,_RNCINvNtNtCsluBEq34Hdgp_6glossa8semantic12declarations18analyze_trait_implNtNtB6_8analyzer16SemanticAnalyzerEs_0B8_
FN:447,_RNCNvNtNtCsluBEq34Hdgp_6glossa8semantic12declarations31extract_function_name_from_expr0B7_
FN:307,_RNvNtNtCsluBEq34Hdgp_6glossa8semantic12declarations17resolve_type_name
FN:90,_RNvNtNtCsluBEq34Hdgp_6glossa8semantic12declarations20check_recursive_type
FN:513,_RNvNtNtCsluBEq34Hdgp_6glossa8semantic12declarations23collect_words_from_expr
FN:530,_RNvNtNtCsluBEq34Hdgp_6glossa8semantic12declarations27infer_return_type_from_body
FN:452,_RNvNtNtCsluBEq34Hdgp_6glossa8semantic12declarations28extract_parameters_from_expr
FN:419,_RNvNtNtCsluBEq34Hdgp_6glossa8semantic12declarations31extract_function_name_from_expr
FN:572,_RNvNtNtNtCs4cnvRHYBibt_6glossa8semantic12declarations5testss_25test_check_recursive_type
FN:216,_RINvNtNtCs4cnvRHYBibt_6glossa8semantic12declarations18analyze_trait_implNtNtB4_8analyzer16SemanticAnalyzerEB6_
FN:35,_RINvNtNtCs4cnvRHYBibt_6glossa8semantic12declarations23analyze_type_definitionNtNtB4_8analyzer16SemanticAnalyzerEB6_
FN:542,_RINvNtNtCs4cnvRHYBibt_6glossa8semantic12declarations24analyze_test_declarationNtNtB4_8analyzer16SemanticAnalyzerEB6_
FN:115,_RINvNtNtCs4cnvRHYBibt_6glossa8semantic12declarations24analyze_trait_definitionNtNtB4_8analyzer16SemanticAnalyzerEB6_
FN:347,_RINvNtNtCs4cnvRHYBibt_6glossa8semantic12declarations25parse_function_definitionNtNtB4_8analyzer16SemanticAnalyzerEB6_
FN:229,_RNCINvNtNtCs4cnvRHYBibt_6glossa8semantic12declarations18analyze_trait_implNtNtB6_8analyzer16SemanticAnalyzerE0B8_
FN:235,_RNCINvNtNtCs4cnvRHYBibt_6glossa8semantic12declarations18analyze_trait_implNtNtB6_8analyzer16SemanticAnalyzerEs_0B8_
FN:447,_RNCNvNtNtCs4cnvRHYBibt_6glossa8semantic12declarations31extract_function_name_from_expr0B7_
FN:307,_RNvNtNtCs4cnvRHYBibt_6glossa8semantic12declarations17resolve_type_name
FN:90,_RNvNtNtCs4cnvRHYBibt_6glossa8semantic12declarations20check_recursive_type
FN:513,_RNvNtNtCs4cnvRHYBibt_6glossa8semantic12declarations23collect_words_from_expr
FN:530,_RNvNtNtCs4cnvRHYBibt_6glossa8semantic12declarations27infer_return_type_from_body
FN:452,_RNvNtNtCs4cnvRHYBibt_6glossa8semantic12declarations28extract_parameters_from_expr
FN:419,_RNvNtNtCs4cnvRHYBibt_6glossa8semantic12declarations31extract_function_name_from_expr
FNDA:20,_RINvNtNtCsluBEq34Hdgp_6glossa8semantic12declarations18analyze_trait_implNtNtB4_8analyzer16SemanticAnalyzerEB6_
FNDA:38,_RINvNtNtCsluBEq34Hdgp_6glossa8semantic12declarations23analyze_type_definitionNtNtB4_8analyzer16SemanticAnalyzerEB6_
FNDA:8,_RINvNtNtCsluBEq34Hdgp_6glossa8semantic12declarations24analyze_test_declarationNtNtB4_8analyzer16SemanticAnalyzerEB6_
FNDA:27,_RINvNtNtCsluBEq34Hdgp_6glossa8semantic12declarations24analyze_trait_definitionNtNtB4_8analyzer16SemanticAnalyzerEB6_
FNDA:17,_RINvNtNtCsluBEq34Hdgp_6glossa8semantic12declarations25parse_function_definitionNtNtB4_8analyzer16SemanticAnalyzerEB6_
FNDA:1,_RNCINvNtNtCsluBEq34Hdgp_6glossa8semantic12declarations18analyze_trait_implNtNtB6_8analyzer16SemanticAnalyzerE0B8_
FNDA:1,_RNCINvNtNtCsluBEq34Hdgp_6glossa8semantic12declarations18analyze_trait_implNtNtB6_8analyzer16SemanticAnalyzerEs_0B8_
FNDA:0,_RNCNvNtNtCsluBEq34Hdgp_6glossa8semantic12declarations31extract_function_name_from_expr0B7_
FNDA:42,_RNvNtNtCsluBEq34Hdgp_6glossa8semantic12declarations17resolve_type_name
FNDA:37,_RNvNtNtCsluBEq34Hdgp_6glossa8semantic12declarations20check_recursive_type
FNDA:156,_RNvNtNtCsluBEq34Hdgp_6glossa8semantic12declarations23collect_words_from_expr
FNDA:41,_RNvNtNtCsluBEq34Hdgp_6glossa8semantic12declarations27infer_return_type_from_body
FNDA:17,_RNvNtNtCsluBEq34Hdgp_6glossa8semantic12declarations28extract_parameters_from_expr
FNDA:17,_RNvNtNtCsluBEq34Hdgp_6glossa8semantic12declarations31extract_function_name_from_expr
FNDA:1,_RNvNtNtNtCs4cnvRHYBibt_6glossa8semantic12declarations5testss_25test_check_recursive_type
FNDA:1,_RINvNtNtCs4cnvRHYBibt_6glossa8semantic12declarations18analyze_trait_implNtNtB4_8analyzer16SemanticAnalyzerEB6_
FNDA:6,_RINvNtNtCs4cnvRHYBibt_6glossa8semantic12declarations23analyze_type_definitionNtNtB4_8analyzer16SemanticAnalyzerEB6_
FNDA:0,_RINvNtNtCs4cnvRHYBibt_6glossa8semantic12declarations24analyze_test_declarationNtNtB4_8analyzer16SemanticAnalyzerEB6_
FNDA:1,_RINvNtNtCs4cnvRHYBibt_6glossa8semantic12declarations24analyze_trait_definitionNtNtB4_8analyzer16SemanticAnalyzerEB6_
FNDA:0,_RINvNtNtCs4cnvRHYBibt_6glossa8semantic12declarations25parse_function_definitionNtNtB4_8analyzer16SemanticAnalyzerEB6_
FNDA:0,_RNCINvNtNtCs4cnvRHYBibt_6glossa8semantic12declarations18analyze_trait_implNtNtB6_8analyzer16SemanticAnalyzerE0B8_
FNDA:0,_RNCINvNtNtCs4cnvRHYBibt_6glossa8semantic12declarations18analyze_trait_implNtNtB6_8analyzer16SemanticAnalyzerEs_0B8_
FNDA:0,_RNCNvNtNtCs4cnvRHYBibt_6glossa8semantic12declarations31extract_function_name_from_expr0B7_
FNDA:5,_RNvNtNtCs4cnvRHYBibt_6glossa8semantic12declarations17resolve_type_name
FNDA:22,_RNvNtNtCs4cnvRHYBibt_6glossa8semantic12declarations20check_recursive_type
FNDA:0,_RNvNtNtCs4cnvRHYBibt_6glossa8semantic12declarations23collect_words_from_expr
FNDA:1,_RNvNtNtCs4cnvRHYBibt_6glossa8semantic12declarations27infer_return_type_from_body
FNDA:0,_RNvNtNtCs4cnvRHYBibt_6glossa8semantic12declarations28extract_parameters_from_expr
FNDA:0,_RNvNtNtCs4cnvRHYBibt_6glossa8semantic12declarations31extract_function_name_from_expr
FNF:15
FNH:14
DA:35,44
DA:36,44
DA:37,44
DA:38,44
DA:39,44
DA:41,44
DA:44,44
DA:45,44
DA:46,44
DA:47,44
DA:48,44
DA:49,44
DA:50,44
DA:54,44
DA:55,85
DA:56,44
DA:57,44
DA:60,44
DA:63,42
DA:64,1
DA:65,1
DA:66,1
DA:67,1
DA:68,41
DA:70,41
DA:74,41
DA:75,41
DA:76,41
DA:77,41
DA:78,41
DA:81,41
DA:83,41
DA:84,41
DA:85,41
DA:86,41
DA:87,44
DA:90,59
DA:91,59
DA:92,11
DA:93,2
DA:94,3
DA:95,3
DA:98,43
DA:100,59
DA:115,28
DA:116,28
DA:117,28
DA:118,28
DA:119,28
DA:121,28
DA:124,28
DA:125,1
DA:126,1
DA:127,1
DA:128,1
DA:129,27
DA:132,27
DA:134,58
DA:135,31
DA:138,31
DA:139,66
DA:140,35
DA:141,35
DA:142,35
DA:143,35
DA:144,35
DA:146,31
DA:148,6
DA:149,6
DA:152,6
DA:154,12
DA:155,6
DA:156,6
DA:158,12
DA:159,6
DA:162,6
DA:164,0
DA:167,6
DA:168,6
DA:170,0
DA:173,6
DA:174,6
DA:175,6
DA:176,6
DA:177,6
DA:178,6
DA:179,25
DA:180,25
DA:181,25
DA:182,25
DA:183,25
DA:184,25
DA:185,25
DA:186,25
DA:190,27
DA:191,27
DA:192,27
DA:193,27
DA:196,27
DA:198,27
DA:199,27
DA:200,27
DA:201,27
DA:202,28
DA:216,21
DA:217,21
DA:218,21
DA:219,21
DA:220,21
DA:222,21
DA:223,21
DA:226,21
DA:227,21
DA:228,21
DA:229,21
DA:232,20
DA:233,20
DA:234,20
DA:235,20
DA:238,19
DA:239,19
DA:241,38
DA:242,19
DA:245,19
DA:246,41
DA:247,22
DA:248,22
DA:249,22
DA:250,22
DA:253,19
DA:255,19
DA:256,19
DA:259,41
DA:260,22
DA:261,22
DA:264,38
DA:265,19
DA:269,19
DA:271,19
DA:272,19
DA:273,19
DA:274,19
DA:275,19
DA:276,19
DA:277,19
DA:281,40
DA:282,22
DA:283,1
DA:284,1
DA:285,1
DA:286,1
DA:287,21
DA:291,18
DA:292,18
DA:293,18
DA:294,18
DA:297,18
DA:299,18
DA:300,18
DA:301,18
DA:302,18
DA:303,18
DA:304,21
DA:307,47
DA:308,47
DA:310,47
DA:312,8
DA:314,4
DA:319,4
DA:320,2
DA:322,2
DA:323,2
DA:324,2
DA:325,2
DA:329,47
DA:347,17
DA:348,17
DA:349,17
DA:350,17
DA:351,17
DA:356,17
DA:357,0
DA:358,17
DA:360,17
DA:363,17
DA:364,0
DA:365,0
DA:366,0
DA:367,17
DA:370,17
DA:371,17
DA:374,17
DA:378,17
DA:380,17
DA:381,28
DA:382,11
DA:383,11
DA:384,11
DA:387,17
DA:390,35
DA:392,18
DA:393,18
DA:394,18
DA:396,18
DA:397,18
DA:398,18
DA:399,18
DA:400,18
DA:403,18
DA:408,17
DA:410,17
DA:411,17
DA:412,17
DA:413,17
DA:414,17
DA:415,17
DA:416,17
DA:419,17
DA:421,17
DA:423,17
DA:425,34
DA:426,34
DA:429,34
DA:430,17
DA:431,17
DA:433,0
DA:435,17
DA:438,17
DA:439,17
DA:440,17
DA:441,17
DA:442,17
DA:443,17
DA:444,17
DA:447,0
DA:448,17
DA:452,17
DA:453,17
DA:454,17
DA:455,17
DA:456,17
DA:459,17
DA:462,17
DA:463,34
DA:464,34
DA:465,34
DA:466,17
DA:467,17
DA:468,17
DA:471,17
DA:472,17
DA:474,30
DA:475,13
DA:476,13
DA:479,13
DA:480,11
DA:483,11
DA:484,11
DA:485,11
DA:488,11
DA:489,11
DA:490,5
DA:491,5
DA:492,5
DA:494,3
DA:496,3
DA:497,3
DA:498,2
DA:499,6
DA:501,11
DA:502,11
DA:503,0
DA:504,2
DA:506,13
DA:509,17
DA:510,17
DA:513,156
DA:514,156
DA:516,156
DA:517,122
DA:518,34
DA:519,156
DA:520,122
DA:521,122
DA:523,0
DA:526,156
DA:527,156
DA:530,42
DA:531,61
DA:532,43
DA:533,24
DA:535,24
DA:536,19
DA:538,18
DA:539,42
DA:542,8
DA:543,8
DA:544,8
DA:545,8
DA:546,8
DA:547,8
DA:550,8
DA:554,8
DA:556,25
DA:557,17
DA:561,8
DA:562,8
DA:563,8
DA:564,8
DA:565,8
DA:572,1
DA:573,1
DA:576,1
DA:577,1
DA:578,1
DA:579,1
DA:580,1
DA:581,1
DA:584,1
DA:585,1
DA:586,1
DA:587,1
DA:588,1
DA:589,1
DA:592,1
DA:593,1
DA:596,1
DA:597,1
DA:600,1
DA:601,1
DA:604,1
DA:605,1
DA:608,1
DA:609,1
DA:612,1
DA:613,1
DA:616,1
DA:617,1
DA:620,1
DA:621,1
DA:622,1
BRF:0
BRH:0
LF:344
LH:333
end_of_record
SF:/app/src/semantic/expressions.rs
FN:156,_RNCNvNtNtCsluBEq34Hdgp_6glossa8semantic11expressions13analyze_array0B7_
FN:230,_RNCNvNtNtCsluBEq34Hdgp_6glossa8semantic11expressions14analyze_phrase0B7_
FN:370,_RNCNvNtNtCsluBEq34Hdgp_6glossa8semantic11expressions21contains_verb_in_expr0B7_
FN:100,_RNvNtNtCsluBEq34Hdgp_6glossa8semantic11expressions12analyze_word
FN:144,_RNvNtNtCsluBEq34Hdgp_6glossa8semantic11expressions13analyze_array
FN:286,_RNvNtNtCsluBEq34Hdgp_6glossa8semantic11expressions13analyze_binop
FN:253,_RNvNtNtCsluBEq34Hdgp_6glossa8semantic11expressions13analyze_block
FN:207,_RNvNtNtCsluBEq34Hdgp_6glossa8semantic11expressions14analyze_phrase
FN:337,_RNvNtNtCsluBEq34Hdgp_6glossa8semantic11expressions14get_first_word
FN:126,_RNvNtNtCsluBEq34Hdgp_6glossa8semantic11expressions15analyze_literal
FN:315,_RNvNtNtCsluBEq34Hdgp_6glossa8semantic11expressions15analyze_unaryop
FN:629,_RNvNtNtCsluBEq34Hdgp_6glossa8semantic11expressions15literal_to_type
FN:724,_RNvNtNtCsluBEq34Hdgp_6glossa8semantic11expressions16infer_binop_type
FN:641,_RNvNtNtCsluBEq34Hdgp_6glossa8semantic11expressions17build_binary_expr
FN:394,_RNvNtNtCsluBEq34Hdgp_6glossa8semantic11expressions19feed_expr_recursive
FN:165,_RNvNtNtCsluBEq34Hdgp_6glossa8semantic11expressions20analyze_index_access
FN:53,_RNvNtNtCsluBEq34Hdgp_6glossa8semantic11expressions21analyze_argument_expr
FN:367,_RNvNtNtCsluBEq34Hdgp_6glossa8semantic11expressions21contains_verb_in_expr
FN:183,_RNvNtNtCsluBEq34Hdgp_6glossa8semantic11expressions23analyze_property_access
FN:611,_RNvNtNtCsluBEq34Hdgp_6glossa8semantic11expressions24literal_to_analyzed_expr
FN:563,_RNvNtNtCsluBEq34Hdgp_6glossa8semantic11expressions26check_cloning_depth_safety
FN:60,_RNvNtNtCsluBEq34Hdgp_6glossa8semantic11expressions31analyze_argument_expr_recursive
FN:355,_RNvNtNtCsluBEq34Hdgp_6glossa8semantic11expressions33contains_function_definition_verb
FN:386,_RNvNtNtCsluBEq34Hdgp_6glossa8semantic11expressions35feed_expr_to_assembler_with_context
FN:668,_RNvNtNtCsluBEq34Hdgp_6glossa8semantic11expressions39build_expressions_from_literals_and_ops
FN:1340,_RNvNtNtNtCs4cnvRHYBibt_6glossa8semantic11expressions16regression_testss_32test_dropped_operator_regression
FN:100,_RNvNtNtCs4cnvRHYBibt_6glossa8semantic11expressions12analyze_word
FN:144,_RNvNtNtCs4cnvRHYBibt_6glossa8semantic11expressions13analyze_array
FN:286,_RNvNtNtCs4cnvRHYBibt_6glossa8semantic11expressions13analyze_binop
FN:253,_RNvNtNtCs4cnvRHYBibt_6glossa8semantic11expressions13analyze_block
FN:207,_RNvNtNtCs4cnvRHYBibt_6glossa8semantic11expressions14analyze_phrase
FN:337,_RNvNtNtCs4cnvRHYBibt_6glossa8semantic11expressions14get_first_word
FN:126,_RNvNtNtCs4cnvRHYBibt_6glossa8semantic11expressions15analyze_literal
FN:315,_RNvNtNtCs4cnvRHYBibt_6glossa8semantic11expressions15analyze_unaryop
FN:629,_RNvNtNtCs4cnvRHYBibt_6glossa8semantic11expressions15literal_to_type
FN:724,_RNvNtNtCs4cnvRHYBibt_6glossa8semantic11expressions16infer_binop_type
FN:641,_RNvNtNtCs4cnvRHYBibt_6glossa8semantic11expressions17build_binary_expr
FN:394,_RNvNtNtCs4cnvRHYBibt_6glossa8semantic11expressions19feed_expr_recursive
FN:165,_RNvNtNtCs4cnvRHYBibt_6glossa8semantic11expressions20analyze_index_access
FN:53,_RNvNtNtCs4cnvRHYBibt_6glossa8semantic11expressions21analyze_argument_expr
FN:367,_RNvNtNtCs4cnvRHYBibt_6glossa8semantic11expressions21contains_verb_in_expr
FN:183,_RNvNtNtCs4cnvRHYBibt_6glossa8semantic11expressions23analyze_property_access
FN:611,_RNvNtNtCs4cnvRHYBibt_6glossa8semantic11expressions24literal_to_analyzed_expr
FN:563,_RNvNtNtCs4cnvRHYBibt_6glossa8semantic11expressions26check_cloning_depth_safety
FN:60,_RNvNtNtCs4cnvRHYBibt_6glossa8semantic11expressions31analyze_argument_expr_recursive
FN:355,_RNvNtNtCs4cnvRHYBibt_6glossa8semantic11expressions33contains_function_definition_verb
FN:386,_RNvNtNtCs4cnvRHYBibt_6glossa8semantic11expressions35feed_expr_to_assembler_with_context
FN:668,_RNvNtNtCs4cnvRHYBibt_6glossa8semantic11expressions39build_expressions_from_literals_and_ops
FN:156,_RNCNvNtNtCs4cnvRHYBibt_6glossa8semantic11expressions13analyze_array0B7_
FN:230,_RNCNvNtNtCs4cnvRHYBibt_6glossa8semantic11expressions14analyze_phrase0B7_
FN:370,_RNCNvNtNtCs4cnvRHYBibt_6glossa8semantic11expressions21contains_verb_in_expr0B7_
FN:1305,_RNvNtNtNtCs4cnvRHYBibt_6glossa8semantic11expressions5testss_21test_dropped_operator
FN:1143,_RNvNtNtNtCs4cnvRHYBibt_6glossa8semantic11expressions5testss_29test_vso_ambiguity_resolution
FN:1224,_RNvNtNtNtCs4cnvRHYBibt_6glossa8semantic11expressions5testss_36test_phrase_errors_on_multiple_terms
FN:794,_RNvNtNtNtCs4cnvRHYBibt_6glossa8semantic11expressions5testss_40test_analyze_argument_expr_handles_array
FN:829,_RNvNtNtNtCs4cnvRHYBibt_6glossa8semantic11expressions5testss_40test_analyze_argument_expr_handles_binop
FN:1084,_RNvNtNtNtCs4cnvRHYBibt_6glossa8semantic11expressions5testss_40test_analyze_argument_expr_handles_block
FN:1288,_RNvNtNtNtCs4cnvRHYBibt_6glossa8semantic11expressions5testss_40test_recursion_limit_expression_analysis
FN:747,_RNvNtNtNtCs4cnvRHYBibt_6glossa8semantic11expressions5testss_41test_analyze_argument_expr_handles_unwrap
FN:1238,_RNvNtNtNtCs4cnvRHYBibt_6glossa8semantic11expressions5testss_41test_build_expressions_preserves_literals
FN:1189,_RNvNtNtNtCs4cnvRHYBibt_6glossa8semantic11expressions5testss_42test_backtracking_failure_propagates_error
FN:1259,_RNvNtNtNtCs4cnvRHYBibt_6glossa8semantic11expressions5testss_43test_dropped_operator_insufficient_literals
FN:765,_RNvNtNtNtCs4cnvRHYBibt_6glossa8semantic11expressions5testss_44test_build_expressions_insufficient_literals
FN:812,_RNvNtNtNtCs4cnvRHYBibt_6glossa8semantic11expressions5testss_47test_analyze_argument_expr_handles_index_access
FN:1105,_RNvNtNtNtCs4cnvRHYBibt_6glossa8semantic11expressions5testss_48test_analyze_argument_expr_errors_on_empty_block
FN:1040,_RNvNtNtNtCs4cnvRHYBibt_6glossa8semantic11expressions5testss_48test_analyze_argument_expr_handles_function_call
FN:939,_RNvNtNtNtCs4cnvRHYBibt_6glossa8semantic11expressions5testss_49test_analyze_argument_expr_errors_on_empty_phrase
FN:908,_RNvNtNtNtCs4cnvRHYBibt_6glossa8semantic11expressions5testss_50test_analyze_argument_expr_handles_property_access
FN:1025,_RNvNtNtNtCs4cnvRHYBibt_6glossa8semantic11expressions5testss_51test_analyze_argument_expr_handles_phrase_recursion
FN:948,_RNvNtNtNtCs4cnvRHYBibt_6glossa8semantic11expressions5testss_52test_analyze_argument_expr_propagates_error_in_array
FN:979,_RNvNtNtNtCs4cnvRHYBibt_6glossa8semantic11expressions5testss_52test_analyze_argument_expr_propagates_error_in_binop
FN:926,_RNvNtNtNtCs4cnvRHYBibt_6glossa8semantic11expressions5testss_53test_analyze_argument_expr_errors_on_invalid_property
FN:1001,_RNvNtNtNtCs4cnvRHYBibt_6glossa8semantic11expressions5testss_55test_analyze_argument_expr_propagates_error_in_unary_op
FN:958,_RNvNtNtNtCs4cnvRHYBibt_6glossa8semantic11expressions5testss_59test_analyze_argument_expr_propagates_error_in_index_access
FN:1127,_RNvNtNtNtCs4cnvRHYBibt_6glossa8semantic11expressions5testss_60test_analyze_argument_expr_errors_on_block_with_empty_clause
FN:1113,_RNvNtNtNtCs4cnvRHYBibt_6glossa8semantic11expressions5testss_60test_analyze_argument_expr_errors_on_invalid_block_structure
FN:1069,_RNvNtNtNtCs4cnvRHYBibt_6glossa8semantic11expressions5testss_60test_analyze_argument_expr_propagates_error_in_function_args
FN:1013,_RNvNtNtNtCs4cnvRHYBibt_6glossa8semantic11expressions5testss_61test_analyze_argument_expr_propagates_error_in_property_owner
FNDA:0,_RNCNvNtNtCsluBEq34Hdgp_6glossa8semantic11expressions13analyze_array0B7_
FNDA:2,_RNCNvNtNtCsluBEq34Hdgp_6glossa8semantic11expressions14analyze_phrase0B7_
FNDA:2029282,_RNCNvNtNtCsluBEq34Hdgp_6glossa8semantic11expressions21contains_verb_in_expr0B7_
FNDA:15,_RNvNtNtCsluBEq34Hdgp_6glossa8semantic11expressions12analyze_word
FNDA:0,_RNvNtNtCsluBEq34Hdgp_6glossa8semantic11expressions13analyze_array
FNDA:0,_RNvNtNtCsluBEq34Hdgp_6glossa8semantic11expressions13analyze_binop
FNDA:2,_RNvNtNtCsluBEq34Hdgp_6glossa8semantic11expressions13analyze_block
FNDA:54,_RNvNtNtCsluBEq34Hdgp_6glossa8semantic11expressions14analyze_phrase
FNDA:781,_RNvNtNtCsluBEq34Hdgp_6glossa8semantic11expressions14get_first_word
FNDA:116,_RNvNtNtCsluBEq34Hdgp_6glossa8semantic11expressions15analyze_literal
FNDA:0,_RNvNtNtCsluBEq34Hdgp_6glossa8semantic11expressions15analyze_unaryop
FNDA:79,_RNvNtNtCsluBEq34Hdgp_6glossa8semantic11expressions15literal_to_type
FNDA:41,_RNvNtNtCsluBEq34Hdgp_6glossa8semantic11expressions16infer_binop_type
FNDA:15,_RNvNtNtCsluBEq34Hdgp_6glossa8semantic11expressions17build_binary_expr
FNDA:9767,_RNvNtNtCsluBEq34Hdgp_6glossa8semantic11expressions19feed_expr_recursive
FNDA:0,_RNvNtNtCsluBEq34Hdgp_6glossa8semantic11expressions20analyze_index_access
FNDA:134,_RNvNtNtCsluBEq34Hdgp_6glossa8semantic11expressions21analyze_argument_expr
FNDA:2034121,_RNvNtNtCsluBEq34Hdgp_6glossa8semantic11expressions21contains_verb_in_expr
FNDA:0,_RNvNtNtCsluBEq34Hdgp_6glossa8semantic11expressions23analyze_property_access
FNDA:810,_RNvNtNtCsluBEq34Hdgp_6glossa8semantic11expressions24literal_to_analyzed_expr
FNDA:54,_RNvNtNtCsluBEq34Hdgp_6glossa8semantic11expressions26check_cloning_depth_safety
FNDA:188,_RNvNtNtCsluBEq34Hdgp_6glossa8semantic11expressions31analyze_argument_expr_recursive
FNDA:798,_RNvNtNtCsluBEq34Hdgp_6glossa8semantic11expressions33contains_function_definition_verb
FNDA:5197,_RNvNtNtCsluBEq34Hdgp_6glossa8semantic11expressions35feed_expr_to_assembler_with_context
FNDA:537,_RNvNtNtCsluBEq34Hdgp_6glossa8semantic11expressions39build_expressions_from_literals_and_ops
FNDA:1,_RNvNtNtNtCs4cnvRHYBibt_6glossa8semantic11expressions16regression_testss_32test_dropped_operator_regression
FNDA:5,_RNvNtNtCs4cnvRHYBibt_6glossa8semantic11expressions12analyze_word
FNDA:5,_RNvNtNtCs4cnvRHYBibt_6glossa8semantic11expressions13analyze_array
FNDA:15,_RNvNtNtCs4cnvRHYBibt_6glossa8semantic11expressions13analyze_binop
FNDA:5,_RNvNtNtCs4cnvRHYBibt_6glossa8semantic11expressions13analyze_block
FNDA:66,_RNvNtNtCs4cnvRHYBibt_6glossa8semantic11expressions14analyze_phrase
FNDA:1379,_RNvNtNtCs4cnvRHYBibt_6glossa8semantic11expressions14get_first_word
FNDA:42,_RNvNtNtCs4cnvRHYBibt_6glossa8semantic11expressions15analyze_literal
FNDA:2,_RNvNtNtCs4cnvRHYBibt_6glossa8semantic11expressions15analyze_unaryop
FNDA:1356,_RNvNtNtCs4cnvRHYBibt_6glossa8semantic11expressions15literal_to_type
FNDA:23,_RNvNtNtCs4cnvRHYBibt_6glossa8semantic11expressions16infer_binop_type
FNDA:20,_RNvNtNtCs4cnvRHYBibt_6glossa8semantic11expressions17build_binary_expr
FNDA:6847,_RNvNtNtCs4cnvRHYBibt_6glossa8semantic11expressions19feed_expr_recursive
FNDA:3,_RNvNtNtCs4cnvRHYBibt_6glossa8semantic11expressions20analyze_index_access
FNDA:45,_RNvNtNtCs4cnvRHYBibt_6glossa8semantic11expressions21analyze_argument_expr
FNDA:6820,_RNvNtNtCs4cnvRHYBibt_6glossa8semantic11expressions21contains_verb_in_expr
FNDA:3,_RNvNtNtCs4cnvRHYBibt_6glossa8semantic11expressions23analyze_property_access
FNDA:2749,_RNvNtNtCs4cnvRHYBibt_6glossa8semantic11expressions24literal_to_analyzed_expr
FNDA:565,_RNvNtNtCs4cnvRHYBibt_6glossa8semantic11expressions26check_cloning_depth_safety
FNDA:147,_RNvNtNtCs4cnvRHYBibt_6glossa8semantic11expressions31analyze_argument_expr_recursive
FNDA:1379,_RNvNtNtCs4cnvRHYBibt_6glossa8semantic11expressions33contains_function_definition_verb
FNDA:1398,_RNvNtNtCs4cnvRHYBibt_6glossa8semantic11expressions35feed_expr_to_assembler_with_context
FNDA:35,_RNvNtNtCs4cnvRHYBibt_6glossa8semantic11expressions39build_expressions_from_literals_and_ops
FNDA:1,_RNCNvNtNtCs4cnvRHYBibt_6glossa8semantic11expressions13analyze_array0B7_
FNDA:1,_RNCNvNtNtCs4cnvRHYBibt_6glossa8semantic11expressions14analyze_phrase0B7_
FNDA:5440,_RNCNvNtNtCs4cnvRHYBibt_6glossa8semantic11expressions21contains_verb_in_expr0B7_
FNDA:1,_RNvNtNtNtCs4cnvRHYBibt_6glossa8semantic11expressions5testss_21test_dropped_operator
FNDA:1,_RNvNtNtNtCs4cnvRHYBibt_6glossa8semantic11expressions5testss_29test_vso_ambiguity_resolution
FNDA:1,_RNvNtNtNtCs4cnvRHYBibt_6glossa8semantic11expressions5testss_36test_phrase_errors_on_multiple_terms
FNDA:1,_RNvNtNtNtCs4cnvRHYBibt_6glossa8semantic11expressions5testss_40test_analyze_argument_expr_handles_array
FNDA:1,_RNvNtNtNtCs4cnvRHYBibt_6glossa8semantic11expressions5testss_40test_analyze_argument_expr_handles_binop
FNDA:1,_RNvNtNtNtCs4cnvRHYBibt_6glossa8semantic11expressions5testss_40test_analyze_argument_expr_handles_block
FNDA:1,_RNvNtNtNtCs4cnvRHYBibt_6glossa8semantic11expressions5testss_40test_recursion_limit_expression_analysis
FNDA:1,_RNvNtNtNtCs4cnvRHYBibt_6glossa8semantic11expressions5testss_41test_analyze_argument_expr_handles_unwrap
FNDA:1,_RNvNtNtNtCs4cnvRHYBibt_6glossa8semantic11expressions5testss_41test_build_expressions_preserves_literals
FNDA:1,_RNvNtNtNtCs4cnvRHYBibt_6glossa8semantic11expressions5testss_42test_backtracking_failure_propagates_error
FNDA:1,_RNvNtNtNtCs4cnvRHYBibt_6glossa8semantic11expressions5testss_43test_dropped_operator_insufficient_literals
FNDA:1,_RNvNtNtNtCs4cnvRHYBibt_6glossa8semantic11expressions5testss_44test_build_expressions_insufficient_literals
FNDA:1,_RNvNtNtNtCs4cnvRHYBibt_6glossa8semantic11expressions5testss_47test_analyze_argument_expr_handles_index_access
FNDA:1,_RNvNtNtNtCs4cnvRHYBibt_6glossa8semantic11expressions5testss_48test_analyze_argument_expr_errors_on_empty_block
FNDA:1,_RNvNtNtNtCs4cnvRHYBibt_6glossa8semantic11expressions5testss_48test_analyze_argument_expr_handles_function_call
FNDA:1,_RNvNtNtNtCs4cnvRHYBibt_6glossa8semantic11expressions5testss_49test_analyze_argument_expr_errors_on_empty_phrase
FNDA:1,_RNvNtNtNtCs4cnvRHYBibt_6glossa8semantic11expressions5testss_50test_analyze_argument_expr_handles_property_access
FNDA:1,_RNvNtNtNtCs4cnvRHYBibt_6glossa8semantic11expressions5testss_51test_analyze_argument_expr_handles_phrase_recursion
FNDA:1,_RNvNtNtNtCs4cnvRHYBibt_6glossa8semantic11expressions5testss_52test_analyze_argument_expr_propagates_error_in_array
FNDA:1,_RNvNtNtNtCs4cnvRHYBibt_6glossa8semantic11expressions5testss_52test_analyze_argument_expr_propagates_error_in_binop
FNDA:1,_RNvNtNtNtCs4cnvRHYBibt_6glossa8semantic11expressions5testss_53test_analyze_argument_expr_errors_on_invalid_property
FNDA:1,_RNvNtNtNtCs4cnvRHYBibt_6glossa8semantic11expressions5testss_55test_analyze_argument_expr_propagates_error_in_unary_op
FNDA:1,_RNvNtNtNtCs4cnvRHYBibt_6glossa8semantic11expressions5testss_59test_analyze_argument_expr_propagates_error_in_index_access
FNDA:1,_RNvNtNtNtCs4cnvRHYBibt_6glossa8semantic11expressions5testss_60test_analyze_argument_expr_errors_on_block_with_empty_clause
FNDA:1,_RNvNtNtNtCs4cnvRHYBibt_6glossa8semantic11expressions5testss_60test_analyze_argument_expr_errors_on_invalid_block_structure
FNDA:1,_RNvNtNtNtCs4cnvRHYBibt_6glossa8semantic11expressions5testss_60test_analyze_argument_expr_propagates_error_in_function_args
FNDA:1,_RNvNtNtNtCs4cnvRHYBibt_6glossa8semantic11expressions5testss_61test_analyze_argument_expr_propagates_error_in_property_owner
FNF:53
FNH:53
DA:53,179
DA:54,179
DA:55,179
DA:56,179
DA:57,179
DA:58,179
DA:60,335
DA:61,335
DA:62,335
DA:63,335
DA:64,335
DA:65,335
DA:66,2
DA:67,2
DA:68,2
DA:69,333
DA:71,333
DA:72,20
DA:75,158
DA:78,5
DA:80,3
DA:82,120
DA:84,7
DA:86,15
DA:88,2
DA:90,3
DA:91,3
DA:94,0
DA:95,0
DA:96,0
DA:98,335
DA:100,20
DA:101,20
DA:104,20
DA:105,1
DA:106,1
DA:107,1
DA:108,1
DA:109,19
DA:112,19
DA:113,19
DA:114,19
DA:115,19
DA:116,19
DA:117,0
DA:120,0
DA:121,0
DA:122,0
DA:123,0
DA:124,20
DA:126,158
DA:127,158
DA:128,154
DA:129,154
DA:130,154
DA:131,154
DA:132,3
DA:133,3
DA:134,3
DA:135,3
DA:136,1
DA:137,1
DA:138,1
DA:139,1
DA:140,0
DA:142,158
DA:144,5
DA:145,5
DA:146,5
DA:147,5
DA:148,5
DA:149,5
DA:150,8
DA:151,4
DA:154,4
DA:155,4
DA:156,4
DA:157,4
DA:159,4
DA:160,4
DA:161,4
DA:162,4
DA:163,5
DA:165,3
DA:166,3
DA:167,3
DA:168,3
DA:169,3
DA:170,3
DA:171,3
DA:172,2
DA:174,1
DA:175,1
DA:176,1
DA:177,1
DA:178,1
DA:179,1
DA:180,1
DA:181,3
DA:183,3
DA:184,3
DA:185,3
DA:186,3
DA:187,3
DA:188,3
DA:193,3
DA:194,2
DA:195,1
DA:196,1
DA:197,1
DA:198,1
DA:199,1
DA:200,1
DA:201,1
DA:203,1
DA:205,3
DA:207,120
DA:208,120
DA:209,120
DA:210,120
DA:211,120
DA:213,120
DA:214,9
DA:215,111
DA:218,111
DA:219,4
DA:221,4
DA:223,4
DA:224,5
DA:225,5
DA:228,3
DA:229,3
DA:230,3
DA:231,3
DA:233,3
DA:234,3
DA:235,3
DA:236,3
DA:237,3
DA:238,3
DA:239,3
DA:240,0
DA:241,107
DA:245,107
DA:246,2
DA:247,105
DA:250,105
DA:251,120
DA:253,7
DA:254,7
DA:255,7
DA:256,7
DA:257,7
DA:261,7
DA:262,2
DA:263,2
DA:264,2
DA:265,5
DA:267,5
DA:268,5
DA:269,5
DA:270,1
DA:271,1
DA:272,1
DA:273,4
DA:275,4
DA:276,4
DA:277,1
DA:278,1
DA:279,1
DA:280,3
DA:282,3
DA:283,3
DA:284,7
DA:286,15
DA:287,15
DA:288,15
DA:289,15
DA:290,15
DA:291,15
DA:292,15
DA:293,15
DA:294,14
DA:296,13
DA:297,1
DA:298,1
DA:299,1
DA:300,1
DA:301,1
DA:302,1
DA:303,1
DA:304,1
DA:305,1
DA:306,1
DA:307,1
DA:308,1
DA:309,1
DA:312,13
DA:313,15
DA:315,2
DA:316,2
DA:317,2
DA:318,2
DA:319,2
DA:320,2
DA:321,2
DA:323,2
DA:324,1
DA:325,1
DA:326,1
DA:327,1
DA:330,0
DA:331,0
DA:332,0
DA:334,2
DA:337,2160
DA:338,2160
DA:339,2160
DA:341,2160
DA:342,2040
DA:343,2040
DA:345,1949
DA:346,91
DA:347,120
DA:348,9
DA:349,111
DA:350,0
DA:351,202
DA:352,2160
DA:355,2177
DA:356,4208
DA:357,10410
DA:358,6219
DA:359,17
DA:360,6202
DA:363,2160
DA:364,2177
DA:367,2040941
DA:368,2040941
DA:369,1009169
DA:370,2034722
DA:371,1027176
DA:373,2040941
DA:386,6595
DA:387,6595
DA:388,6595
DA:389,6595
DA:390,6595
DA:391,6595
DA:392,6595
DA:394,16614
DA:395,16614
DA:396,16614
DA:397,16614
DA:398,16614
DA:399,16614
DA:400,16614
DA:401,0
DA:402,0
DA:403,0
DA:404,16614
DA:406,16614
DA:407,210
DA:408,210
DA:410,4508
DA:411,4508
DA:413,10
DA:414,10
DA:416,8675
DA:419,8675
DA:420,8675
DA:421,6
DA:423,6
DA:424,8669
DA:429,8669
DA:430,8669
DA:432,8669
DA:433,3344
DA:434,3344
DA:435,313
DA:436,312
DA:437,3031
DA:438,5325
DA:441,8356
DA:445,8356
DA:450,8356
DA:451,8356
DA:453,8401
DA:454,8391
DA:456,8346
DA:457,8346
DA:459,45
DA:460,45
DA:461,45
DA:462,45
DA:466,8356
DA:467,10
DA:468,10
DA:470,0
DA:472,8346
DA:475,8346
DA:477,2352
DA:480,12623
DA:481,10276
DA:484,262
DA:485,262
DA:486,0
DA:488,10014
DA:499,13
DA:501,3
DA:503,1
DA:505,1
DA:506,1
DA:509,1
DA:511,1
DA:512,0
DA:513,1
DA:516,2
DA:517,1
DA:520,1
DA:522,1
DA:523,1
DA:525,1
DA:526,0
DA:527,1
DA:528,1
DA:530,1
DA:532,1
DA:533,1
DA:535,267
DA:537,267
DA:539,266
DA:542,1
DA:545,260
DA:548,260
DA:550,312
DA:552,312
DA:554,4
DA:556,4
DA:559,16265
DA:560,16614
DA:563,619
DA:564,619
DA:565,10
DA:566,10
DA:567,10
DA:568,609
DA:570,609
DA:571,62
DA:572,62
DA:573,3
DA:575,97
DA:576,152
DA:577,102
DA:580,98
DA:581,98
DA:582,48
DA:584,98
DA:585,98
DA:586,48
DA:588,49
DA:589,98
DA:591,49
DA:592,49
DA:593,49
DA:600,0
DA:602,56
DA:604,109
DA:605,619
DA:611,3559
DA:612,3559
DA:613,232
DA:614,232
DA:615,232
DA:616,232
DA:617,3314
DA:618,3314
DA:619,3314
DA:620,3314
DA:621,13
DA:622,13
DA:623,13
DA:624,13
DA:626,3559
DA:629,1435
DA:630,1435
DA:631,4
DA:632,1431
DA:633,0
DA:635,1435
DA:641,35
DA:642,35
DA:643,35
DA:644,35
DA:645,35
DA:646,35
DA:647,35
DA:648,35
DA:649,35
DA:650,35
DA:651,35
DA:652,35
DA:653,35
DA:654,35
DA:655,35
DA:668,572
DA:669,572
DA:670,572
DA:671,572
DA:673,572
DA:674,538
DA:675,34
DA:680,34
DA:681,5
DA:682,5
DA:683,5
DA:684,5
DA:685,5
DA:686,5
DA:687,29
DA:690,29
DA:692,29
DA:693,29
DA:694,29
DA:695,29
DA:696,29
DA:697,29
DA:698,29
DA:699,29
DA:700,29
DA:701,29
DA:702,29
DA:703,29
DA:704,29
DA:706,29
DA:710,29
DA:712,29
DA:713,1
DA:714,1
DA:716,29
DA:717,572
DA:724,64
DA:727,64
DA:730,27
DA:734,31
DA:737,6
DA:739,64
DA:747,1
DA:748,1
DA:749,1
DA:750,1
DA:751,1
DA:753,1
DA:754,1
DA:756,1
DA:757,1
DA:758,1
DA:759,1
DA:760,0
DA:762,1
DA:765,1
DA:771,1
DA:772,1
DA:773,1
DA:774,1
DA:777,1
DA:779,1
DA:780,1
DA:781,0
DA:785,1
DA:786,1
DA:787,1
DA:788,0
DA:791,1
DA:794,1
DA:795,1
DA:796,1
DA:797,1
DA:799,1
DA:800,1
DA:801,1
DA:802,1
DA:803,1
DA:807,0
DA:809,1
DA:812,1
DA:813,1
DA:814,1
DA:815,1
DA:816,1
DA:817,1
DA:818,1
DA:820,1
DA:821,1
DA:822,1
DA:824,0
DA:826,1
DA:829,1
DA:830,1
DA:831,1
DA:832,1
DA:833,1
DA:834,1
DA:835,1
DA:836,1
DA:837,1
DA:838,1
DA:839,1
DA:840,1
DA:841,1
DA:842,1
DA:843,1
DA:844,1
DA:845,1
DA:846,1
DA:847,1
DA:848,1
DA:849,1
DA:850,1
DA:851,1
DA:852,1
DA:853,1
DA:854,1
DA:855,1
DA:856,1
DA:857,1
DA:858,1
DA:859,1
DA:860,1
DA:861,1
DA:862,1
DA:863,1
DA:864,1
DA:865,1
DA:866,1
DA:867,1
DA:868,1
DA:869,1
DA:870,1
DA:871,1
DA:872,1
DA:873,1
DA:874,1
DA:875,1
DA:876,1
DA:877,1
DA:878,1
DA:879,1
DA:880,1
DA:881,1
DA:882,1
DA:883,1
DA:886,14
DA:887,13
DA:888,13
DA:889,13
DA:890,13
DA:891,13
DA:892,13
DA:894,13
DA:895,13
DA:896,13
DA:898,0
DA:902,0
DA:905,1
DA:908,1
DA:909,1
DA:910,1
DA:911,1
DA:912,1
DA:913,1
DA:914,1
DA:915,1
DA:917,1
DA:918,1
DA:919,1
DA:921,0
DA:923,1
DA:926,1
DA:927,1
DA:928,1
DA:929,1
DA:930,1
DA:931,1
DA:932,1
DA:933,1
DA:935,1
DA:936,1
DA:939,1
DA:940,1
DA:941,1
DA:942,1
DA:944,1
DA:945,1
DA:948,1
DA:950,1
DA:951,1
DA:952,1
DA:954,1
DA:955,1
DA:958,1
DA:960,1
DA:961,1
DA:962,1
DA:963,1
DA:964,1
DA:965,1
DA:967,1
DA:970,1
DA:971,1
DA:972,1
DA:973,1
DA:974,1
DA:975,1
DA:976,1
DA:979,1
DA:981,1
DA:982,1
DA:983,1
DA:984,1
DA:985,1
DA:986,1
DA:987,1
DA:988,1
DA:991,1
DA:992,1
DA:993,1
DA:994,1
DA:995,1
DA:996,1
DA:997,1
DA:998,1
DA:1001,1
DA:1003,1
DA:1004,1
DA:1005,1
DA:1006,1
DA:1007,1
DA:1008,1
DA:1009,1
DA:1010,1
DA:1013,1
DA:1015,1
DA:1016,1
DA:1017,1
DA:1018,1
DA:1019,1
DA:1020,1
DA:1021,1
DA:1022,1
DA:1025,1
DA:1028,1
DA:1029,1
DA:1030,1
DA:1031,1
DA:1033,1
DA:1034,1
DA:1035,0
DA:1037,1
DA:1040,1
DA:1042,1
DA:1043,1
DA:1045,1
DA:1046,1
DA:1050,1
DA:1051,1
DA:1052,1
DA:1053,1
DA:1054,1
DA:1056,1
DA:1058,1
DA:1059,1
DA:1060,1
DA:1061,1
DA:1062,1
DA:1064,0
DA:1066,1
DA:1069,1
DA:1070,1
DA:1071,1
DA:1074,1
DA:1075,1
DA:1076,1
DA:1077,1
DA:1079,1
DA:1080,1
DA:1081,1
DA:1084,1
DA:1087,1
DA:1088,1
DA:1089,1
DA:1090,1
DA:1091,1
DA:1092,1
DA:1093,1
DA:1094,1
DA:1095,1
DA:1096,1
DA:1098,1
DA:1099,1
DA:1100,0
DA:1102,1
DA:1105,1
DA:1106,1
DA:1107,1
DA:1108,1
DA:1109,1
DA:1110,1
DA:1113,1
DA:1115,1
DA:1116,1
DA:1117,1
DA:1118,1
DA:1119,1
DA:1120,1
DA:1121,1
DA:1122,1
DA:1123,1
DA:1124,1
DA:1127,1
DA:1129,1
DA:1130,1
DA:1131,1
DA:1132,1
DA:1133,1
DA:1134,1
DA:1135,1
DA:1136,1
DA:1137,1
DA:1138,1
DA:1139,1
DA:1140,1
DA:1143,1
DA:1155,1
DA:1156,1
DA:1159,1
DA:1160,1
DA:1163,1
DA:1164,1
DA:1167,1
DA:1168,1
DA:1171,1
DA:1174,1
DA:1175,1
DA:1177,1
DA:1178,1
DA:1181,1
DA:1182,1
DA:1183,0
DA:1186,1
DA:1189,1
DA:1198,1
DA:1199,1
DA:1202,1
DA:1203,1
DA:1206,1
DA:1207,1
DA:1209,1
DA:1210,1
DA:1211,0
DA:1213,1
DA:1216,1
DA:1217,1
DA:1218,0
DA:1221,1
DA:1224,1
DA:1225,1
DA:1226,1
DA:1227,1
DA:1230,1
DA:1231,1
DA:1232,0
DA:1235,1
DA:1238,1
DA:1239,1
DA:1240,1
DA:1242,1
DA:1244,1
DA:1245,1
DA:1247,0
DA:1251,1
DA:1252,1
DA:1254,0
DA:1256,1
DA:1259,1
DA:1265,1
DA:1266,1
DA:1267,1
DA:1268,1
DA:1271,1
DA:1273,1
DA:1274,1
DA:1275,0
DA:1279,1
DA:1280,1
DA:1281,1
DA:1282,0
DA:1285,1
DA:1288,1
DA:1291,1
DA:1292,53
DA:1293,52
DA:1294,52
DA:1296,1
DA:1297,1
DA:1299,1
DA:1300,1
DA:1301,1
DA:1302,1
DA:1305,1
DA:1311,1
DA:1312,1
DA:1313,1
DA:1314,1
DA:1317,1
DA:1319,1
DA:1320,1
DA:1321,0
DA:1325,1
DA:1326,1
DA:1327,1
DA:1328,0
DA:1331,1
DA:1340,1
DA:1346,1
DA:1347,1
DA:1349,1
DA:1351,1
DA:1352,1
DA:1353,0
DA:1357,1
DA:1358,1
DA:1359,1
DA:1360,0
DA:1363,1
BRF:0
BRH:0
LF:838
LH:788
end_of_record
SF:/app/src/semantic/mod.rs
FN:76,_RNvNtCsluBEq34Hdgp_6glossa8semantic18assemble_statement
FN:76,_RNvNtCs4cnvRHYBibt_6glossa8semantic18assemble_statement
FN:102,_RNvNtNtCs4cnvRHYBibt_6glossa8semantic5testss_18test_analyze_hello
FN:114,_RNvNtNtCs4cnvRHYBibt_6glossa8semantic5testss_20test_analyze_binding
FN:128,_RNvNtNtCs4cnvRHYBibt_6glossa8semantic5testss_25test_analyze_variable_use
FN:153,_RNvNtNtCs4cnvRHYBibt_6glossa8semantic5testss_27test_analyze_number_literal
FN:141,_RNvNtNtCs4cnvRHYBibt_6glossa8semantic5testss_27test_analyze_string_literal
FNDA:838,_RNvNtCsluBEq34Hdgp_6glossa8semantic18assemble_statement
FNDA:1382,_RNvNtCs4cnvRHYBibt_6glossa8semantic18assemble_statement
FNDA:1,_RNvNtNtCs4cnvRHYBibt_6glossa8semantic5testss_18test_analyze_hello
FNDA:1,_RNvNtNtCs4cnvRHYBibt_6glossa8semantic5testss_20test_analyze_binding
FNDA:1,_RNvNtNtCs4cnvRHYBibt_6glossa8semantic5testss_25test_analyze_variable_use
FNDA:1,_RNvNtNtCs4cnvRHYBibt_6glossa8semantic5testss_27test_analyze_number_literal
FNDA:1,_RNvNtNtCs4cnvRHYBibt_6glossa8semantic5testss_27test_analyze_string_literal
FNF:6
FNH:6
DA:76,2220
DA:77,2220
DA:78,2220
DA:79,2220
DA:82,2220
DA:86,2221
DA:87,8783
DA:88,6579
DA:93,2203
DA:94,2220
DA:102,1
DA:103,1
DA:104,1
DA:106,1
DA:107,1
DA:108,1
DA:111,1
DA:114,1
DA:115,1
DA:116,1
DA:118,1
DA:119,1
DA:120,1
DA:124,1
DA:125,1
DA:128,1
DA:129,1
DA:130,1
DA:132,1
DA:134,1
DA:135,1
DA:138,1
DA:141,1
DA:142,1
DA:143,1
DA:145,1
DA:146,1
DA:148,0
DA:150,1
DA:153,1
DA:154,1
DA:155,1
DA:157,1
DA:158,1
DA:160,0
DA:162,1
BRF:0
BRH:0
LF:46
LH:44
end_of_record
SF:/app/src/semantic/patterns.rs
FN:462,_RNCNvNtNtCsluBEq34Hdgp_6glossa8semantic8patterns18extract_collection0B7_
FN:229,_RNCNvNtNtCsluBEq34Hdgp_6glossa8semantic8patterns30try_parse_struct_instantiation0B7_
FN:503,_RNvMNtNtCsluBEq34Hdgp_6glossa8semantic8patternsNtB2_15QuantifierFlags4from
FN:789,_RNvNtNtCsluBEq34Hdgp_6glossa8semantic8patterns12process_find
FN:256,_RNvNtNtCsluBEq34Hdgp_6glossa8semantic8patterns17parse_struct_args
FN:457,_RNvNtNtCsluBEq34Hdgp_6glossa8semantic8patterns18extract_collection
FN:530,_RNvNtNtCsluBEq34Hdgp_6glossa8semantic8patterns18process_adjectives
FN:596,_RNvNtNtCsluBEq34Hdgp_6glossa8semantic8patterns19process_participles
FN:360,_RNvNtNtCsluBEq34Hdgp_6glossa8semantic8patterns23detect_iterator_pattern
FN:852,_RNvNtNtCsluBEq34Hdgp_6glossa8semantic8patterns23finalize_iterator_chain
FN:866,_RNvNtNtCsluBEq34Hdgp_6glossa8semantic8patterns24extract_comparison_value
FN:941,_RNvNtNtCsluBEq34Hdgp_6glossa8semantic8patterns27create_comparison_predicate
FN:64,_RNvNtNtCsluBEq34Hdgp_6glossa8semantic8patterns27try_parse_trait_method_call
FN:752,_RNvNtNtCsluBEq34Hdgp_6glossa8semantic8patterns28process_explicit_quantifiers
FN:134,_RNvNtNtCsluBEq34Hdgp_6glossa8semantic8patterns30try_parse_struct_instantiation
FN:462,_RNCNvNtNtCs4cnvRHYBibt_6glossa8semantic8patterns18extract_collection0B7_
FN:229,_RNCNvNtNtCs4cnvRHYBibt_6glossa8semantic8patterns30try_parse_struct_instantiation0B7_
FN:1092,_RNvNtNtNtCs4cnvRHYBibt_6glossa8semantic8patterns14coverage_testss_32test_detect_iterator_pattern_any
FN:1169,_RNvNtNtNtCs4cnvRHYBibt_6glossa8semantic8patterns14coverage_testss_33test_detect_iterator_pattern_find
FN:1230,_RNvNtNtNtCs4cnvRHYBibt_6glossa8semantic8patterns14coverage_testss_35test_detect_iterator_pattern_filter
FN:1310,_RNvNtNtNtCs4cnvRHYBibt_6glossa8semantic8patterns14coverage_testss_47test_try_parse_struct_instantiation_empty_terms
FN:977,_RNvNtNtNtCs4cnvRHYBibt_6glossa8semantic8patterns5testss_35test_extract_comparison_value_lemma
FN:1059,_RNvNtNtNtCs4cnvRHYBibt_6glossa8semantic8patterns5testss_38test_extract_comparison_value_fallback
FN:1030,_RNvNtNtNtCs4cnvRHYBibt_6glossa8semantic8patterns5testss_38test_extract_comparison_value_original
FN:1005,_RNvNtNtNtCs4cnvRHYBibt_6glossa8semantic8patterns5testss_38test_extract_comparison_value_stripped
FN:503,_RNvMNtNtCs4cnvRHYBibt_6glossa8semantic8patternsNtB2_15QuantifierFlags4from
FN:789,_RNvNtNtCs4cnvRHYBibt_6glossa8semantic8patterns12process_find
FN:256,_RNvNtNtCs4cnvRHYBibt_6glossa8semantic8patterns17parse_struct_args
FN:457,_RNvNtNtCs4cnvRHYBibt_6glossa8semantic8patterns18extract_collection
FN:530,_RNvNtNtCs4cnvRHYBibt_6glossa8semantic8patterns18process_adjectives
FN:596,_RNvNtNtCs4cnvRHYBibt_6glossa8semantic8patterns19process_participles
FN:360,_RNvNtNtCs4cnvRHYBibt_6glossa8semantic8patterns23detect_iterator_pattern
FN:852,_RNvNtNtCs4cnvRHYBibt_6glossa8semantic8patterns23finalize_iterator_chain
FN:866,_RNvNtNtCs4cnvRHYBibt_6glossa8semantic8patterns24extract_comparison_value
FN:941,_RNvNtNtCs4cnvRHYBibt_6glossa8semantic8patterns27create_comparison_predicate
FN:64,_RNvNtNtCs4cnvRHYBibt_6glossa8semantic8patterns27try_parse_trait_method_call
FN:752,_RNvNtNtCs4cnvRHYBibt_6glossa8semantic8patterns28process_explicit_quantifiers
FN:134,_RNvNtNtCs4cnvRHYBibt_6glossa8semantic8patterns30try_parse_struct_instantiation
FNDA:48,_RNCNvNtNtCsluBEq34Hdgp_6glossa8semantic8patterns18extract_collection0B7_
FNDA:23,_RNCNvNtNtCsluBEq34Hdgp_6glossa8semantic8patterns30try_parse_struct_instantiation0B7_
FNDA:162,_RNvMNtNtCsluBEq34Hdgp_6glossa8semantic8patternsNtB2_15QuantifierFlags4from
FNDA:6,_RNvNtNtCsluBEq34Hdgp_6glossa8semantic8patterns12process_find
FNDA:18,_RNvNtNtCsluBEq34Hdgp_6glossa8semantic8patterns17parse_struct_args
FNDA:291,_RNvNtNtCsluBEq34Hdgp_6glossa8semantic8patterns18extract_collection
FNDA:162,_RNvNtNtCsluBEq34Hdgp_6glossa8semantic8patterns18process_adjectives
FNDA:162,_RNvNtNtCsluBEq34Hdgp_6glossa8semantic8patterns19process_participles
FNDA:310,_RNvNtNtCsluBEq34Hdgp_6glossa8semantic8patterns23detect_iterator_pattern
FNDA:12,_RNvNtNtCsluBEq34Hdgp_6glossa8semantic8patterns23finalize_iterator_chain
FNDA:22,_RNvNtNtCsluBEq34Hdgp_6glossa8semantic8patterns24extract_comparison_value
FNDA:22,_RNvNtNtCsluBEq34Hdgp_6glossa8semantic8patterns27create_comparison_predicate
FNDA:706,_RNvNtNtCsluBEq34Hdgp_6glossa8semantic8patterns27try_parse_trait_method_call
FNDA:162,_RNvNtNtCsluBEq34Hdgp_6glossa8semantic8patterns28process_explicit_quantifiers
FNDA:734,_RNvNtNtCsluBEq34Hdgp_6glossa8semantic8patterns30try_parse_struct_instantiation
FNDA:0,_RNCNvNtNtCs4cnvRHYBibt_6glossa8semantic8patterns18extract_collection0B7_
FNDA:0,_RNCNvNtNtCs4cnvRHYBibt_6glossa8semantic8patterns30try_parse_struct_instantiation0B7_
FNDA:1,_RNvNtNtNtCs4cnvRHYBibt_6glossa8semantic8patterns14coverage_testss_32test_detect_iterator_pattern_any
FNDA:1,_RNvNtNtNtCs4cnvRHYBibt_6glossa8semantic8patterns14coverage_testss_33test_detect_iterator_pattern_find
FNDA:1,_RNvNtNtNtCs4cnvRHYBibt_6glossa8semantic8patterns14coverage_testss_35test_detect_iterator_pattern_filter
FNDA:1,_RNvNtNtNtCs4cnvRHYBibt_6glossa8semantic8patterns14coverage_testss_47test_try_parse_struct_instantiation_empty_terms
FNDA:1,_RNvNtNtNtCs4cnvRHYBibt_6glossa8semantic8patterns5testss_35test_extract_comparison_value_lemma
FNDA:1,_RNvNtNtNtCs4cnvRHYBibt_6glossa8semantic8patterns5testss_38test_extract_comparison_value_fallback
FNDA:1,_RNvNtNtNtCs4cnvRHYBibt_6glossa8semantic8patterns5testss_38test_extract_comparison_value_original
FNDA:1,_RNvNtNtNtCs4cnvRHYBibt_6glossa8semantic8patterns5testss_38test_extract_comparison_value_stripped
FNDA:10,_RNvMNtNtCs4cnvRHYBibt_6glossa8semantic8patternsNtB2_15QuantifierFlags4from
FNDA:1,_RNvNtNtCs4cnvRHYBibt_6glossa8semantic8patterns12process_find
FNDA:0,_RNvNtNtCs4cnvRHYBibt_6glossa8semantic8patterns17parse_struct_args
FNDA:34,_RNvNtNtCs4cnvRHYBibt_6glossa8semantic8patterns18extract_collection
FNDA:10,_RNvNtNtCs4cnvRHYBibt_6glossa8semantic8patterns18process_adjectives
FNDA:10,_RNvNtNtCs4cnvRHYBibt_6glossa8semantic8patterns19process_participles
FNDA:36,_RNvNtNtCs4cnvRHYBibt_6glossa8semantic8patterns23detect_iterator_pattern
FNDA:1,_RNvNtNtCs4cnvRHYBibt_6glossa8semantic8patterns23finalize_iterator_chain
FNDA:7,_RNvNtNtCs4cnvRHYBibt_6glossa8semantic8patterns24extract_comparison_value
FNDA:3,_RNvNtNtCs4cnvRHYBibt_6glossa8semantic8patterns27create_comparison_predicate
FNDA:1378,_RNvNtNtCs4cnvRHYBibt_6glossa8semantic8patterns27try_parse_trait_method_call
FNDA:10,_RNvNtNtCs4cnvRHYBibt_6glossa8semantic8patterns28process_explicit_quantifiers
FNDA:1379,_RNvNtNtCs4cnvRHYBibt_6glossa8semantic8patterns30try_parse_struct_instantiation
FNF:23
FNH:23
DA:64,2084
DA:65,2084
DA:66,2084
DA:67,2084
DA:69,2084
DA:71,2084
DA:72,2
DA:73,2082
DA:76,2082
DA:77,1966
DA:78,1859
DA:79,107
DA:82,107
DA:83,61
DA:84,61
DA:87,61
DA:89,1
DA:90,1
DA:93,1
DA:94,1
DA:95,1
DA:96,1
DA:97,1
DA:99,1
DA:100,1
DA:101,1
DA:102,1
DA:103,1
DA:104,1
DA:105,1
DA:106,1
DA:108,1
DA:109,0
DA:110,60
DA:111,46
DA:112,116
DA:113,0
DA:115,222
DA:116,2084
DA:134,2113
DA:135,2113
DA:136,2113
DA:137,2113
DA:139,2113
DA:140,0
DA:144,2113
DA:145,1
DA:146,2112
DA:148,2112
DA:149,2112
DA:150,1
DA:151,2111
DA:154,2111
DA:155,116
DA:158,1995
DA:159,493
DA:160,1502
DA:163,1502
DA:164,38
DA:166,1464
DA:167,1330
DA:169,134
DA:170,16
DA:172,118
DA:173,1
DA:178,117
DA:179,35
DA:180,82
DA:183,82
DA:185,82
DA:186,54
DA:187,28
DA:190,28
DA:191,28
DA:194,9
DA:195,28
DA:197,9
DA:198,9
DA:199,9
DA:200,9
DA:201,9
DA:202,9
DA:205,9
DA:207,9
DA:208,9
DA:209,9
DA:210,9
DA:211,9
DA:212,19
DA:215,19
DA:218,1
DA:222,18
DA:223,18
DA:224,18
DA:226,0
DA:229,23
DA:232,18
DA:233,0
DA:237,18
DA:238,18
DA:239,18
DA:240,18
DA:241,18
DA:242,18
DA:243,18
DA:244,18
DA:247,18
DA:249,18
DA:250,18
DA:251,18
DA:252,18
DA:253,18
DA:254,2113
DA:256,18
DA:257,18
DA:258,18
DA:259,18
DA:260,18
DA:261,18
DA:262,23
DA:263,23
DA:264,23
DA:266,0
DA:269,23
DA:270,18
DA:272,18
DA:274,0
DA:275,0
DA:276,0
DA:277,0
DA:278,17
DA:279,18
DA:282,17
DA:283,17
DA:284,17
DA:285,17
DA:288,1
DA:289,1
DA:290,1
DA:291,1
DA:292,1
DA:293,1
DA:294,1
DA:295,1
DA:298,2
DA:299,2
DA:300,2
DA:301,2
DA:302,2
DA:304,2
DA:306,1
DA:307,1
DA:308,1
DA:309,1
DA:310,1
DA:311,1
DA:312,1
DA:313,1
DA:315,1
DA:318,2
DA:319,2
DA:320,2
DA:321,2
DA:322,1
DA:323,1
DA:324,1
DA:325,1
DA:326,0
DA:328,23
DA:330,18
DA:331,18
DA:360,346
DA:361,346
DA:362,346
DA:363,346
DA:365,346
DA:366,346
DA:367,0
DA:371,346
DA:372,346
DA:373,346
DA:375,346
DA:376,21
DA:377,325
DA:380,325
DA:381,172
DA:382,153
DA:386,172
DA:390,172
DA:391,172
DA:392,172
DA:393,172
DA:394,172
DA:395,172
DA:396,172
DA:397,172
DA:400,172
DA:403,172
DA:404,11
DA:405,161
DA:408,172
DA:409,172
DA:410,8
DA:411,164
DA:414,172
DA:415,172
DA:416,8
DA:417,164
DA:420,164
DA:421,7
DA:427,7
DA:428,7
DA:429,157
DA:432,157
DA:433,4
DA:434,153
DA:438,153
DA:439,1
DA:440,152
DA:444,152
DA:445,13
DA:446,13
DA:448,139
DA:450,346
DA:457,325
DA:458,325
DA:460,15
DA:461,15
DA:462,48
DA:463,48
DA:464,48
DA:465,48
DA:466,48
DA:467,0
DA:468,0
DA:469,0
DA:470,0
DA:471,48
DA:472,15
DA:474,15
DA:475,15
DA:476,15
DA:477,15
DA:478,310
DA:480,157
DA:481,157
DA:482,157
DA:484,157
DA:485,157
DA:486,157
DA:487,157
DA:489,0
DA:492,153
DA:494,325
DA:503,172
DA:504,172
DA:505,172
DA:507,172
DA:508,160
DA:509,160
DA:510,160
DA:511,160
DA:514,181
DA:515,9
DA:516,9
DA:517,6
DA:518,6
DA:519,9
DA:520,0
DA:521,9
DA:524,172
DA:525,172
DA:530,172
DA:531,172
DA:532,172
DA:533,172
DA:534,172
DA:535,172
DA:538,172
DA:539,161
DA:540,11
DA:542,11
DA:544,22
DA:547,11
DA:548,11
DA:549,11
DA:550,11
DA:553,11
DA:556,11
DA:557,10
DA:559,1
DA:563,11
DA:566,11
DA:567,0
DA:568,11
DA:569,1
DA:571,10
DA:575,11
DA:576,11
DA:577,11
DA:578,11
DA:579,11
DA:580,11
DA:581,11
DA:582,1
DA:584,10
DA:587,11
DA:588,11
DA:589,0
DA:591,11
DA:592,172
DA:596,172
DA:597,172
DA:598,172
DA:599,172
DA:600,172
DA:601,172
DA:603,184
DA:604,12
DA:607,12
DA:609,4
DA:610,0
DA:611,4
DA:616,4
DA:617,3
DA:618,1
DA:619,0
DA:623,4
DA:624,0
DA:626,1
DA:627,3
DA:631,4
DA:632,4
DA:633,4
DA:634,4
DA:635,4
DA:636,4
DA:637,4
DA:638,4
DA:639,4
DA:640,4
DA:641,4
DA:642,4
DA:643,4
DA:644,4
DA:646,4
DA:647,4
DA:648,4
DA:649,4
DA:650,4
DA:651,4
DA:652,4
DA:653,4
DA:654,4
DA:655,4
DA:656,4
DA:658,4
DA:659,4
DA:660,4
DA:661,4
DA:663,4
DA:664,4
DA:665,4
DA:666,4
DA:667,4
DA:668,4
DA:669,4
DA:670,4
DA:671,4
DA:673,4
DA:674,4
DA:675,4
DA:676,0
DA:678,8
DA:681,12
DA:682,4
DA:683,8
DA:687,8
DA:688,4
DA:691,5
DA:693,4
DA:694,4
DA:695,4
DA:696,4
DA:697,4
DA:698,4
DA:699,4
DA:700,4
DA:701,4
DA:702,4
DA:703,4
DA:704,4
DA:705,4
DA:706,4
DA:709,1
DA:710,1
DA:711,1
DA:712,1
DA:715,5
DA:716,0
DA:719,1
DA:720,4
DA:723,5
DA:724,5
DA:725,5
DA:726,5
DA:727,5
DA:728,5
DA:729,5
DA:730,5
DA:731,5
DA:732,5
DA:733,5
DA:735,5
DA:736,5
DA:737,5
DA:738,5
DA:739,5
DA:740,5
DA:741,5
DA:742,5
DA:743,5
DA:744,5
DA:745,3
DA:747,172
DA:748,172
DA:752,172
DA:753,172
DA:754,172
DA:755,172
DA:756,172
DA:757,172
DA:758,172
DA:759,164
DA:760,8
DA:763,8
DA:764,0
DA:765,8
DA:768,8
DA:769,8
DA:771,8
DA:773,8
DA:774,8
DA:775,8
DA:776,8
DA:777,8
DA:778,8
DA:779,8
DA:780,8
DA:781,8
DA:782,8
DA:783,0
DA:785,0
DA:786,172
DA:789,7
DA:791,7
DA:793,7
DA:795,6
DA:796,0
DA:797,6
DA:800,6
DA:801,6
DA:803,6
DA:804,6
DA:805,6
DA:806,6
DA:807,6
DA:808,6
DA:809,6
DA:810,6
DA:811,6
DA:812,6
DA:813,6
DA:814,0
DA:816,1
DA:819,7
DA:820,1
DA:821,1
DA:822,1
DA:823,1
DA:824,1
DA:825,1
DA:826,1
DA:827,1
DA:828,1
DA:829,1
DA:830,1
DA:831,1
DA:832,1
DA:833,1
DA:834,1
DA:835,1
DA:836,1
DA:837,1
DA:838,1
DA:839,1
DA:840,1
DA:841,1
DA:842,1
DA:843,1
DA:844,1
DA:845,1
DA:846,1
DA:847,1
DA:848,6
DA:849,7
DA:852,13
DA:854,13
DA:855,13
DA:856,13
DA:857,13
DA:858,13
DA:859,13
DA:860,13
DA:861,13
DA:862,13
DA:863,13
DA:866,29
DA:867,29
DA:869,15
DA:870,15
DA:871,7
DA:872,7
DA:873,7
DA:874,7
DA:875,8
DA:878,8
DA:879,8
DA:881,7
DA:882,1
DA:884,0
DA:885,1
DA:887,0
DA:890,1
DA:894,8
DA:895,7
DA:896,7
DA:897,7
DA:898,7
DA:899,1
DA:902,1
DA:903,0
DA:904,0
DA:905,0
DA:906,0
DA:907,1
DA:911,1
DA:912,1
DA:914,0
DA:917,1
DA:918,1
DA:919,1
DA:920,1
DA:921,14
DA:923,7
DA:924,7
DA:925,0
DA:927,7
DA:928,7
DA:929,7
DA:930,7
DA:933,7
DA:934,7
DA:935,7
DA:936,7
DA:938,29
DA:941,25
DA:942,25
DA:943,25
DA:944,25
DA:945,25
DA:946,25
DA:947,25
DA:948,25
DA:949,25
DA:950,25
DA:951,25
DA:952,25
DA:953,25
DA:954,25
DA:955,25
DA:957,25
DA:958,25
DA:959,25
DA:960,25
DA:961,25
DA:962,25
DA:963,25
DA:964,25
DA:965,25
DA:966,25
DA:967,25
DA:968,25
DA:977,1
DA:978,1
DA:979,1
DA:982,1
DA:983,1
DA:985,1
DA:986,1
DA:987,1
DA:988,1
DA:989,1
DA:990,1
DA:991,1
DA:992,1
DA:993,1
DA:994,1
DA:996,1
DA:997,1
DA:998,1
DA:1000,0
DA:1002,1
DA:1005,1
DA:1006,1
DA:1007,1
DA:1010,1
DA:1011,1
DA:1012,1
DA:1013,1
DA:1014,1
DA:1015,1
DA:1016,1
DA:1017,1
DA:1018,1
DA:1019,1
DA:1021,1
DA:1022,1
DA:1023,1
DA:1025,0
DA:1027,1
DA:1030,1
DA:1031,1
DA:1033,1
DA:1035,1
DA:1036,1
DA:1037,1
DA:1038,1
DA:1039,1
DA:1040,1
DA:1041,1
DA:1042,1
DA:1043,1
DA:1044,1
DA:1046,1
DA:1047,1
DA:1048,1
DA:1050,0
DA:1054,0
DA:1056,1
DA:1059,1
DA:1060,1
DA:1063,1
DA:1064,1
DA:1065,1
DA:1066,1
DA:1067,1
DA:1068,1
DA:1069,1
DA:1070,1
DA:1071,1
DA:1072,1
DA:1074,1
DA:1075,1
DA:1076,1
DA:1078,0
DA:1082,0
DA:1084,1
DA:1092,1
DA:1094,1
DA:1095,1
DA:1097,1
DA:1098,1
DA:1099,1
DA:1100,1
DA:1101,1
DA:1102,1
DA:1103,1
DA:1104,1
DA:1105,1
DA:1106,1
DA:1107,1
DA:1108,1
DA:1114,1
DA:1115,1
DA:1116,1
DA:1117,1
DA:1118,1
DA:1119,1
DA:1120,1
DA:1121,1
DA:1122,1
DA:1125,1
DA:1126,1
DA:1129,1
DA:1130,1
DA:1131,1
DA:1132,1
DA:1133,1
DA:1134,1
DA:1135,1
DA:1136,1
DA:1137,1
DA:1140,1
DA:1141,1
DA:1142,1
DA:1143,1
DA:1144,1
DA:1145,1
DA:1146,1
DA:1147,1
DA:1148,1
DA:1149,1
DA:1151,1
DA:1152,1
DA:1153,1
DA:1154,1
DA:1156,1
DA:1158,1
DA:1159,1
DA:1160,1
DA:1164,0
DA:1166,1
DA:1169,1
DA:1171,1
DA:1172,1
DA:1174,1
DA:1175,1
DA:1176,1
DA:1177,1
DA:1178,1
DA:1179,1
DA:1180,1
DA:1181,1
DA:1182,1
DA:1183,1
DA:1184,1
DA:1185,1
DA:1188,1
DA:1189,1
DA:1192,1
DA:1193,1
DA:1194,1
DA:1195,1
DA:1196,1
DA:1197,1
DA:1198,1
DA:1199,1
DA:1200,1
DA:1203,1
DA:1204,1
DA:1205,1
DA:1206,1
DA:1207,1
DA:1208,1
DA:1209,1
DA:1210,1
DA:1211,1
DA:1212,1
DA:1214,1
DA:1215,1
DA:1216,1
DA:1217,1
DA:1219,1
DA:1221,1
DA:1222,1
DA:1223,1
DA:1225,0
DA:1227,1
DA:1230,1
DA:1232,1
DA:1233,1
DA:1235,1
DA:1236,1
DA:1237,1
DA:1238,1
DA:1239,1
DA:1240,1
DA:1241,1
DA:1242,1
DA:1243,1
DA:1244,1
DA:1245,1
DA:1246,1
DA:1249,1
DA:1250,1
DA:1251,1
DA:1252,1
DA:1253,1
DA:1254,1
DA:1255,1
DA:1256,1
DA:1257,1
DA:1260,1
DA:1261,1
DA:1262,1
DA:1263,1
DA:1264,1
DA:1265,1
DA:1266,1
DA:1267,1
DA:1268,1
DA:1271,1
DA:1272,1
DA:1273,1
DA:1274,1
DA:1275,1
DA:1276,1
DA:1277,1
DA:1278,1
DA:1279,1
DA:1280,1
DA:1282,1
DA:1283,1
DA:1284,1
DA:1285,1
DA:1287,1
DA:1290,1
DA:1291,1
DA:1293,1
DA:1296,1
DA:1298,1
DA:1300,1
DA:1302,0
DA:1305,0
DA:1307,1
DA:1310,1
DA:1311,1
DA:1312,1
DA:1313,1
DA:1314,1
DA:1315,1
DA:1316,1
DA:1317,1
DA:1318,1
DA:1319,1
DA:1320,1
DA:1321,1
DA:1322,1
DA:1323,1
DA:1325,1
DA:1326,1
DA:1327,1
DA:1328,1
BRF:0
BRH:0
LF:846
LH:786
end_of_record
SF:/app/src/semantic/resolver.rs
FN:58,_RNvXs_NtNtCsluBEq34Hdgp_6glossa8semantic8resolverNtB4_10ScopeGuardNtNtNtCs3XFJfFEDSOQ_4core3ops4drop4Drop4drop
FN:30,_RNvMNtNtCsluBEq34Hdgp_6glossa8semantic8resolverNtB2_10ScopeLevel3new
FN:291,_RNvMs2_NtNtCsluBEq34Hdgp_6glossa8semantic8resolverNtB5_5Scope10is_defined
FN:103,_RNvMs2_NtNtCsluBEq34Hdgp_6glossa8semantic8resolverNtB5_5Scope11enter_scope
FN:140,_RNvMs2_NtNtCsluBEq34Hdgp_6glossa8semantic8resolverNtB5_5Scope11is_function
FN:162,_RNvMs2_NtNtCsluBEq34Hdgp_6glossa8semantic8resolverNtB5_5Scope11lookup_type
FN:181,_RNvMs2_NtNtCsluBEq34Hdgp_6glossa8semantic8resolverNtB5_5Scope12lookup_trait
FN:115,_RNvMs2_NtNtCsluBEq34Hdgp_6glossa8semantic8resolverNtB5_5Scope13current_level
FN:257,_RNvMs2_NtNtCsluBEq34Hdgp_6glossa8semantic8resolverNtB5_5Scope13lookup_symbol
FN:275,_RNvMs2_NtNtCsluBEq34Hdgp_6glossa8semantic8resolverNtB5_5Scope14lookup_binding
FN:147,_RNvMs2_NtNtCsluBEq34Hdgp_6glossa8semantic8resolverNtB5_5Scope15lookup_function
FN:318,_RNvMs2_NtNtCsluBEq34Hdgp_6glossa8semantic8resolverNtB5_5Scope15unused_bindings
FN:210,_RNvMs2_NtNtCsluBEq34Hdgp_6glossa8semantic8resolverNtB5_5Scope16has_trait_method
FN:194,_RNvMs2_NtNtCsluBEq34Hdgp_6glossa8semantic8resolverNtB5_5Scope17lookup_trait_impl
FN:283,_RNvMs2_NtNtCsluBEq34Hdgp_6glossa8semantic8resolverNtB5_5Scope18is_defined_locally
FN:189,_RNvMs2_NtNtCsluBEq34Hdgp_6glossa8semantic8resolverNtB5_5Scope19register_trait_impl
FN:91,_RNvMs2_NtNtCsluBEq34Hdgp_6glossa8semantic8resolverNtB5_5Scope3new
FN:109,_RNvMs2_NtNtCsluBEq34Hdgp_6glossa8semantic8resolverNtB5_5Scope4exit
FN:98,_RNvMs2_NtNtCsluBEq34Hdgp_6glossa8semantic8resolverNtB5_5Scope5enter
FN:341,_RNvMs2_NtNtCsluBEq34Hdgp_6glossa8semantic8resolverNtB5_5Scope5types
FN:267,_RNvMs2_NtNtCsluBEq34Hdgp_6glossa8semantic8resolverNtB5_5Scope6lookup
FN:351,_RNvMs2_NtNtCsluBEq34Hdgp_6glossa8semantic8resolverNtB5_5Scope6traits
FN:298,_RNvMs2_NtNtCsluBEq34Hdgp_6glossa8semantic8resolverNtB5_5Scope8bindings
FN:331,_RNvMs2_NtNtCsluBEq34Hdgp_6glossa8semantic8resolverNtB5_5Scope9functions
FN:308,_RNvMs2_NtNtCsluBEq34Hdgp_6glossa8semantic8resolverNtB5_5Scope9mark_used
FN:65,_RNvXs0_NtNtCsluBEq34Hdgp_6glossa8semantic8resolverNtB5_10ScopeGuardNtNtNtCs3XFJfFEDSOQ_4core3ops5deref5Deref5deref
FN:71,_RNvXs1_NtNtCsluBEq34Hdgp_6glossa8semantic8resolverNtB5_10ScopeGuardNtNtNtCs3XFJfFEDSOQ_4core3ops5deref8DerefMut9deref_mut
FN:362,_RNvXs3_NtNtCsluBEq34Hdgp_6glossa8semantic8resolverNtB5_5ScopeNtNtCs3XFJfFEDSOQ_4core7default7Default7default
FN:243,_RINvMs2_NtNtCsluBEq34Hdgp_6glossa8semantic8resolverNtB6_5Scope10define_mutNtCsfVgtH48eSWy_8smol_str7SmolStrEBa_
FN:243,_RINvMs2_NtNtCsluBEq34Hdgp_6glossa8semantic8resolverNtB6_5Scope10define_mutNtNtCsgag4BwXrjBQ_5alloc6string6StringEBa_
FN:155,_RINvMs2_NtNtCsluBEq34Hdgp_6glossa8semantic8resolverNtB6_5Scope11define_typeNtCsfVgtH48eSWy_8smol_str7SmolStrEBa_
FN:170,_RINvMs2_NtNtCsluBEq34Hdgp_6glossa8semantic8resolverNtB6_5Scope12define_traitNtCsfVgtH48eSWy_8smol_str7SmolStrEBa_
FN:122,_RINvMs2_NtNtCsluBEq34Hdgp_6glossa8semantic8resolverNtB6_5Scope15define_functionNtCsfVgtH48eSWy_8smol_str7SmolStrEBa_
FN:229,_RINvMs2_NtNtCsluBEq34Hdgp_6glossa8semantic8resolverNtB6_5Scope6defineNtCsfVgtH48eSWy_8smol_str7SmolStrEBa_
FN:229,_RINvMs2_NtNtCsluBEq34Hdgp_6glossa8semantic8resolverNtB6_5Scope6defineNtNtCsgag4BwXrjBQ_5alloc6string6StringEBa_
FN:343,_RNCNCNvMs2_NtNtCsluBEq34Hdgp_6glossa8semantic8resolverNtB9_5Scope5types00Bd_
FN:353,_RNCNCNvMs2_NtNtCsluBEq34Hdgp_6glossa8semantic8resolverNtB9_5Scope6traits00Bd_
FN:300,_RNCNCNvMs2_NtNtCsluBEq34Hdgp_6glossa8semantic8resolverNtB9_5Scope8bindings00Bd_
FN:333,_RNCNCNvMs2_NtNtCsluBEq34Hdgp_6glossa8semantic8resolverNtB9_5Scope9functions00Bd_
FN:142,_RNCNvMs2_NtNtCsluBEq34Hdgp_6glossa8semantic8resolverNtB7_5Scope11is_function0Bb_
FN:321,_RNCNvMs2_NtNtCsluBEq34Hdgp_6glossa8semantic8resolverNtB7_5Scope15unused_bindings0Bb_
FN:326,_RNCNvMs2_NtNtCsluBEq34Hdgp_6glossa8semantic8resolverNtB7_5Scope15unused_bindingss0_0Bb_
FN:322,_RNCNvMs2_NtNtCsluBEq34Hdgp_6glossa8semantic8resolverNtB7_5Scope15unused_bindingss_0Bb_
FN:218,_RNCNvMs2_NtNtCsluBEq34Hdgp_6glossa8semantic8resolverNtB7_5Scope16has_trait_method0Bb_
FN:286,_RNCNvMs2_NtNtCsluBEq34Hdgp_6glossa8semantic8resolverNtB7_5Scope18is_defined_locally0Bb_
FN:342,_RNCNvMs2_NtNtCsluBEq34Hdgp_6glossa8semantic8resolverNtB7_5Scope5types0Bb_
FN:352,_RNCNvMs2_NtNtCsluBEq34Hdgp_6glossa8semantic8resolverNtB7_5Scope6traits0Bb_
FN:299,_RNCNvMs2_NtNtCsluBEq34Hdgp_6glossa8semantic8resolverNtB7_5Scope8bindings0Bb_
FN:332,_RNCNvMs2_NtNtCsluBEq34Hdgp_6glossa8semantic8resolverNtB7_5Scope9functions0Bb_
FN:286,_RNCNvMs2_NtNtCs4cnvRHYBibt_6glossa8semantic8resolverNtB7_5Scope18is_defined_locally0Bb_
FN:194,_RNvMs2_NtNtCs4cnvRHYBibt_6glossa8semantic8resolverNtB5_5Scope17lookup_trait_impl
FN:283,_RNvMs2_NtNtCs4cnvRHYBibt_6glossa8semantic8resolverNtB5_5Scope18is_defined_locally
FN:362,_RNvXs3_NtNtCs4cnvRHYBibt_6glossa8semantic8resolverNtB5_5ScopeNtNtCs3XFJfFEDSOQ_4core7default7Default7default
FN:30,_RNvMNtNtCs4cnvRHYBibt_6glossa8semantic8resolverNtB2_10ScopeLevel3new
FN:291,_RNvMs2_NtNtCs4cnvRHYBibt_6glossa8semantic8resolverNtB5_5Scope10is_defined
FN:103,_RNvMs2_NtNtCs4cnvRHYBibt_6glossa8semantic8resolverNtB5_5Scope11enter_scope
FN:140,_RNvMs2_NtNtCs4cnvRHYBibt_6glossa8semantic8resolverNtB5_5Scope11is_function
FN:162,_RNvMs2_NtNtCs4cnvRHYBibt_6glossa8semantic8resolverNtB5_5Scope11lookup_type
FN:181,_RNvMs2_NtNtCs4cnvRHYBibt_6glossa8semantic8resolverNtB5_5Scope12lookup_trait
FN:115,_RNvMs2_NtNtCs4cnvRHYBibt_6glossa8semantic8resolverNtB5_5Scope13current_level
FN:257,_RNvMs2_NtNtCs4cnvRHYBibt_6glossa8semantic8resolverNtB5_5Scope13lookup_symbol
FN:275,_RNvMs2_NtNtCs4cnvRHYBibt_6glossa8semantic8resolverNtB5_5Scope14lookup_binding
FN:147,_RNvMs2_NtNtCs4cnvRHYBibt_6glossa8semantic8resolverNtB5_5Scope15lookup_function
FN:318,_RNvMs2_NtNtCs4cnvRHYBibt_6glossa8semantic8resolverNtB5_5Scope15unused_bindings
FN:210,_RNvMs2_NtNtCs4cnvRHYBibt_6glossa8semantic8resolverNtB5_5Scope16has_trait_method
FN:189,_RNvMs2_NtNtCs4cnvRHYBibt_6glossa8semantic8resolverNtB5_5Scope19register_trait_impl
FN:91,_RNvMs2_NtNtCs4cnvRHYBibt_6glossa8semantic8resolverNtB5_5Scope3new
FN:109,_RNvMs2_NtNtCs4cnvRHYBibt_6glossa8semantic8resolverNtB5_5Scope4exit
FN:98,_RNvMs2_NtNtCs4cnvRHYBibt_6glossa8semantic8resolverNtB5_5Scope5enter
FN:341,_RNvMs2_NtNtCs4cnvRHYBibt_6glossa8semantic8resolverNtB5_5Scope5types
FN:267,_RNvMs2_NtNtCs4cnvRHYBibt_6glossa8semantic8resolverNtB5_5Scope6lookup
FN:351,_RNvMs2_NtNtCs4cnvRHYBibt_6glossa8semantic8resolverNtB5_5Scope6traits
FN:298,_RNvMs2_NtNtCs4cnvRHYBibt_6glossa8semantic8resolverNtB5_5Scope8bindings
FN:331,_RNvMs2_NtNtCs4cnvRHYBibt_6glossa8semantic8resolverNtB5_5Scope9functions
FN:308,_RNvMs2_NtNtCs4cnvRHYBibt_6glossa8semantic8resolverNtB5_5Scope9mark_used
FN:65,_RNvXs0_NtNtCs4cnvRHYBibt_6glossa8semantic8resolverNtB5_10ScopeGuardNtNtNtCs3XFJfFEDSOQ_4core3ops5deref5Deref5deref
FN:71,_RNvXs1_NtNtCs4cnvRHYBibt_6glossa8semantic8resolverNtB5_10ScopeGuardNtNtNtCs3XFJfFEDSOQ_4core3ops5deref8DerefMut9deref_mut
FN:589,_RNCNvNtNtNtCs4cnvRHYBibt_6glossa8semantic8resolver5testss_24test_scope_type_coverage0B9_
FN:556,_RNCNvNtNtNtCs4cnvRHYBibt_6glossa8semantic8resolver5testss_25test_scope_trait_coverage0B9_
FN:575,_RNCNvNtNtNtCs4cnvRHYBibt_6glossa8semantic8resolver5testss_28test_scope_function_coverage0B9_
FN:58,_RNvXs_NtNtCs4cnvRHYBibt_6glossa8semantic8resolverNtB4_10ScopeGuardNtNtNtCs3XFJfFEDSOQ_4core3ops4drop4Drop4drop
FN:459,_RNvNtNtNtCs4cnvRHYBibt_6glossa8semantic8resolver5testss_14test_mark_used
FN:437,_RNvNtNtNtCs4cnvRHYBibt_6glossa8semantic8resolver5testss_20test_enter_shadowing
FN:450,_RNvNtNtNtCs4cnvRHYBibt_6glossa8semantic8resolver5testss_20test_mutable_binding
FN:474,_RNvNtNtNtCs4cnvRHYBibt_6glossa8semantic8resolver5testss_20test_unused_bindings
FN:422,_RNvNtNtNtCs4cnvRHYBibt_6glossa8semantic8resolver5testss_21test_enter_exit_scope
FN:392,_RNvNtNtNtCs4cnvRHYBibt_6glossa8semantic8resolver5testss_24test_child_scope_shadows
FN:582,_RNvNtNtNtCs4cnvRHYBibt_6glossa8semantic8resolver5testss_24test_scope_type_coverage
FN:382,_RNvNtNtNtCs4cnvRHYBibt_6glossa8semantic8resolver5testss_25test_child_scope_inherits
FN:544,_RNvNtNtNtCs4cnvRHYBibt_6glossa8semantic8resolver5testss_25test_scope_trait_coverage
FN:525,_RNvNtNtNtCs4cnvRHYBibt_6glossa8semantic8resolver5testss_27test_shadowing_across_types
FN:372,_RNvNtNtNtCs4cnvRHYBibt_6glossa8semantic8resolver5testss_28test_scope_define_and_lookup
FN:563,_RNvNtNtNtCs4cnvRHYBibt_6glossa8semantic8resolver5testss_28test_scope_function_coverage
FN:497,_RNvNtNtNtCs4cnvRHYBibt_6glossa8semantic8resolver5testss_29test_lookup_binding_immutable
FN:519,_RNvNtNtNtCs4cnvRHYBibt_6glossa8semantic8resolver5testss_29test_lookup_binding_not_found
FN:508,_RNvNtNtNtCs4cnvRHYBibt_6glossa8semantic8resolver5testss_32test_lookup_binding_parent_scope
FN:403,_RNvNtNtNtCs4cnvRHYBibt_6glossa8semantic8resolver5testss_36test_scope_exit_underflow_protection
FN:596,_RNvNtNtNtCs4cnvRHYBibt_6glossa8semantic8resolver5testss_37test_scope_mixed_namespace_collisions
FN:486,_RNvNtNtNtCs4cnvRHYBibt_6glossa8semantic8resolver5testss_40test_lookup_binding_returns_full_binding
FN:243,_RINvMs2_NtNtCs4cnvRHYBibt_6glossa8semantic8resolverNtB6_5Scope10define_mutNtCsfVgtH48eSWy_8smol_str7SmolStrEBa_
FN:243,_RINvMs2_NtNtCs4cnvRHYBibt_6glossa8semantic8resolverNtB6_5Scope10define_mutNtNtCsgag4BwXrjBQ_5alloc6string6StringEBa_
FN:243,_RINvMs2_NtNtCs4cnvRHYBibt_6glossa8semantic8resolverNtB6_5Scope10define_mutReEBa_
FN:155,_RINvMs2_NtNtCs4cnvRHYBibt_6glossa8semantic8resolverNtB6_5Scope11define_typeNtCsfVgtH48eSWy_8smol_str7SmolStrEBa_
FN:155,_RINvMs2_NtNtCs4cnvRHYBibt_6glossa8semantic8resolverNtB6_5Scope11define_typeNtNtCsgag4BwXrjBQ_5alloc6string6StringEBa_
FN:155,_RINvMs2_NtNtCs4cnvRHYBibt_6glossa8semantic8resolverNtB6_5Scope11define_typeReEBa_
FN:170,_RINvMs2_NtNtCs4cnvRHYBibt_6glossa8semantic8resolverNtB6_5Scope12define_traitNtCsfVgtH48eSWy_8smol_str7SmolStrEBa_
FN:170,_RINvMs2_NtNtCs4cnvRHYBibt_6glossa8semantic8resolverNtB6_5Scope12define_traitNtNtCsgag4BwXrjBQ_5alloc6string6StringEBa_
FN:170,_RINvMs2_NtNtCs4cnvRHYBibt_6glossa8semantic8resolverNtB6_5Scope12define_traitReEBa_
FN:122,_RINvMs2_NtNtCs4cnvRHYBibt_6glossa8semantic8resolverNtB6_5Scope15define_functionNtCsfVgtH48eSWy_8smol_str7SmolStrEBa_
FN:122,_RINvMs2_NtNtCs4cnvRHYBibt_6glossa8semantic8resolverNtB6_5Scope15define_functionNtNtCsgag4BwXrjBQ_5alloc6string6StringEBa_
FN:122,_RINvMs2_NtNtCs4cnvRHYBibt_6glossa8semantic8resolverNtB6_5Scope15define_functionReEBa_
FN:229,_RINvMs2_NtNtCs4cnvRHYBibt_6glossa8semantic8resolverNtB6_5Scope6defineNtCsfVgtH48eSWy_8smol_str7SmolStrEBa_
FN:229,_RINvMs2_NtNtCs4cnvRHYBibt_6glossa8semantic8resolverNtB6_5Scope6defineNtNtCsgag4BwXrjBQ_5alloc6string6StringEBa_
FN:229,_RINvMs2_NtNtCs4cnvRHYBibt_6glossa8semantic8resolverNtB6_5Scope6defineReEBa_
FN:343,_RNCNCNvMs2_NtNtCs4cnvRHYBibt_6glossa8semantic8resolverNtB9_5Scope5types00Bd_
FN:353,_RNCNCNvMs2_NtNtCs4cnvRHYBibt_6glossa8semantic8resolverNtB9_5Scope6traits00Bd_
FN:300,_RNCNCNvMs2_NtNtCs4cnvRHYBibt_6glossa8semantic8resolverNtB9_5Scope8bindings00Bd_
FN:333,_RNCNCNvMs2_NtNtCs4cnvRHYBibt_6glossa8semantic8resolverNtB9_5Scope9functions00Bd_
FN:142,_RNCNvMs2_NtNtCs4cnvRHYBibt_6glossa8semantic8resolverNtB7_5Scope11is_function0Bb_
FN:321,_RNCNvMs2_NtNtCs4cnvRHYBibt_6glossa8semantic8resolverNtB7_5Scope15unused_bindings0Bb_
FN:326,_RNCNvMs2_NtNtCs4cnvRHYBibt_6glossa8semantic8resolverNtB7_5Scope15unused_bindingss0_0Bb_
FN:322,_RNCNvMs2_NtNtCs4cnvRHYBibt_6glossa8semantic8resolverNtB7_5Scope15unused_bindingss_0Bb_
FN:218,_RNCNvMs2_NtNtCs4cnvRHYBibt_6glossa8semantic8resolverNtB7_5Scope16has_trait_method0Bb_
FN:342,_RNCNvMs2_NtNtCs4cnvRHYBibt_6glossa8semantic8resolverNtB7_5Scope5types0Bb_
FN:352,_RNCNvMs2_NtNtCs4cnvRHYBibt_6glossa8semantic8resolverNtB7_5Scope6traits0Bb_
FN:299,_RNCNvMs2_NtNtCs4cnvRHYBibt_6glossa8semantic8resolverNtB7_5Scope8bindings0Bb_
FN:332,_RNCNvMs2_NtNtCs4cnvRHYBibt_6glossa8semantic8resolverNtB7_5Scope9functions0Bb_
FNDA:60,_RNvXs_NtNtCsluBEq34Hdgp_6glossa8semantic8resolverNtB4_10ScopeGuardNtNtNtCs3XFJfFEDSOQ_4core3ops4drop4Drop4drop
FNDA:584,_RNvMNtNtCsluBEq34Hdgp_6glossa8semantic8resolverNtB2_10ScopeLevel3new
FNDA:15,_RNvMs2_NtNtCsluBEq34Hdgp_6glossa8semantic8resolverNtB5_5Scope10is_defined
FNDA:60,_RNvMs2_NtNtCsluBEq34Hdgp_6glossa8semantic8resolverNtB5_5Scope11enter_scope
FNDA:66,_RNvMs2_NtNtCsluBEq34Hdgp_6glossa8semantic8resolverNtB5_5Scope11is_function
FNDA:41,_RNvMs2_NtNtCsluBEq34Hdgp_6glossa8semantic8resolverNtB5_5Scope11lookup_type
FNDA:48,_RNvMs2_NtNtCsluBEq34Hdgp_6glossa8semantic8resolverNtB5_5Scope12lookup_trait
FNDA:409,_RNvMs2_NtNtCsluBEq34Hdgp_6glossa8semantic8resolverNtB5_5Scope13current_level
FNDA:423,_RNvMs2_NtNtCsluBEq34Hdgp_6glossa8semantic8resolverNtB5_5Scope13lookup_symbol
FNDA:7,_RNvMs2_NtNtCsluBEq34Hdgp_6glossa8semantic8resolverNtB5_5Scope14lookup_binding
FNDA:3,_RNvMs2_NtNtCsluBEq34Hdgp_6glossa8semantic8resolverNtB5_5Scope15lookup_function
FNDA:0,_RNvMs2_NtNtCsluBEq34Hdgp_6glossa8semantic8resolverNtB5_5Scope15unused_bindings
FNDA:1,_RNvMs2_NtNtCsluBEq34Hdgp_6glossa8semantic8resolverNtB5_5Scope16has_trait_method
FNDA:0,_RNvMs2_NtNtCsluBEq34Hdgp_6glossa8semantic8resolverNtB5_5Scope17lookup_trait_impl
FNDA:0,_RNvMs2_NtNtCsluBEq34Hdgp_6glossa8semantic8resolverNtB5_5Scope18is_defined_locally
FNDA:17,_RNvMs2_NtNtCsluBEq34Hdgp_6glossa8semantic8resolverNtB5_5Scope19register_trait_impl
FNDA:524,_RNvMs2_NtNtCsluBEq34Hdgp_6glossa8semantic8resolverNtB5_5Scope3new
FNDA:60,_RNvMs2_NtNtCsluBEq34Hdgp_6glossa8semantic8resolverNtB5_5Scope4exit
FNDA:60,_RNvMs2_NtNtCsluBEq34Hdgp_6glossa8semantic8resolverNtB5_5Scope5enter
FNDA:0,_RNvMs2_NtNtCsluBEq34Hdgp_6glossa8semantic8resolverNtB5_5Scope5types
FNDA:243,_RNvMs2_NtNtCsluBEq34Hdgp_6glossa8semantic8resolverNtB5_5Scope6lookup
FNDA:0,_RNvMs2_NtNtCsluBEq34Hdgp_6glossa8semantic8resolverNtB5_5Scope6traits
FNDA:0,_RNvMs2_NtNtCsluBEq34Hdgp_6glossa8semantic8resolverNtB5_5Scope8bindings
FNDA:0,_RNvMs2_NtNtCsluBEq34Hdgp_6glossa8semantic8resolverNtB5_5Scope9functions
FNDA:4,_RNvMs2_NtNtCsluBEq34Hdgp_6glossa8semantic8resolverNtB5_5Scope9mark_used
FNDA:0,_RNvXs0_NtNtCsluBEq34Hdgp_6glossa8semantic8resolverNtB5_10ScopeGuardNtNtNtCs3XFJfFEDSOQ_4core3ops5deref5Deref5deref
FNDA:135,_RNvXs1_NtNtCsluBEq34Hdgp_6glossa8semantic8resolverNtB5_10ScopeGuardNtNtNtCs3XFJfFEDSOQ_4core3ops5deref8DerefMut9deref_mut
FNDA:1,_RNvXs3_NtNtCsluBEq34Hdgp_6glossa8semantic8resolverNtB5_5ScopeNtNtCs3XFJfFEDSOQ_4core7default7Default7default
FNDA:9,_RINvMs2_NtNtCsluBEq34Hdgp_6glossa8semantic8resolverNtB6_5Scope10define_mutNtCsfVgtH48eSWy_8smol_str7SmolStrEBa_
FNDA:6,_RINvMs2_NtNtCsluBEq34Hdgp_6glossa8semantic8resolverNtB6_5Scope10define_mutNtNtCsgag4BwXrjBQ_5alloc6string6StringEBa_
FNDA:73,_RINvMs2_NtNtCsluBEq34Hdgp_6glossa8semantic8resolverNtB6_5Scope11define_typeNtCsfVgtH48eSWy_8smol_str7SmolStrEBa_
FNDA:26,_RINvMs2_NtNtCsluBEq34Hdgp_6glossa8semantic8resolverNtB6_5Scope12define_traitNtCsfVgtH48eSWy_8smol_str7SmolStrEBa_
FNDA:17,_RINvMs2_NtNtCsluBEq34Hdgp_6glossa8semantic8resolverNtB6_5Scope15define_functionNtCsfVgtH48eSWy_8smol_str7SmolStrEBa_
FNDA:65,_RINvMs2_NtNtCsluBEq34Hdgp_6glossa8semantic8resolverNtB6_5Scope6defineNtCsfVgtH48eSWy_8smol_str7SmolStrEBa_
FNDA:196,_RINvMs2_NtNtCsluBEq34Hdgp_6glossa8semantic8resolverNtB6_5Scope6defineNtNtCsgag4BwXrjBQ_5alloc6string6StringEBa_
FNDA:0,_RNCNCNvMs2_NtNtCsluBEq34Hdgp_6glossa8semantic8resolverNtB9_5Scope5types00Bd_
FNDA:0,_RNCNCNvMs2_NtNtCsluBEq34Hdgp_6glossa8semantic8resolverNtB9_5Scope6traits00Bd_
FNDA:0,_RNCNCNvMs2_NtNtCsluBEq34Hdgp_6glossa8semantic8resolverNtB9_5Scope8bindings00Bd_
FNDA:0,_RNCNCNvMs2_NtNtCsluBEq34Hdgp_6glossa8semantic8resolverNtB9_5Scope9functions00Bd_
FNDA:10,_RNCNvMs2_NtNtCsluBEq34Hdgp_6glossa8semantic8resolverNtB7_5Scope11is_function0Bb_
FNDA:0,_RNCNvMs2_NtNtCsluBEq34Hdgp_6glossa8semantic8resolverNtB7_5Scope15unused_bindings0Bb_
FNDA:0,_RNCNvMs2_NtNtCsluBEq34Hdgp_6glossa8semantic8resolverNtB7_5Scope15unused_bindingss0_0Bb_
FNDA:0,_RNCNvMs2_NtNtCsluBEq34Hdgp_6glossa8semantic8resolverNtB7_5Scope15unused_bindingss_0Bb_
FNDA:1,_RNCNvMs2_NtNtCsluBEq34Hdgp_6glossa8semantic8resolverNtB7_5Scope16has_trait_method0Bb_
FNDA:0,_RNCNvMs2_NtNtCsluBEq34Hdgp_6glossa8semantic8resolverNtB7_5Scope18is_defined_locally0Bb_
FNDA:0,_RNCNvMs2_NtNtCsluBEq34Hdgp_6glossa8semantic8resolverNtB7_5Scope5types0Bb_
FNDA:0,_RNCNvMs2_NtNtCsluBEq34Hdgp_6glossa8semantic8resolverNtB7_5Scope6traits0Bb_
FNDA:0,_RNCNvMs2_NtNtCsluBEq34Hdgp_6glossa8semantic8resolverNtB7_5Scope8bindings0Bb_
FNDA:0,_RNCNvMs2_NtNtCsluBEq34Hdgp_6glossa8semantic8resolverNtB7_5Scope9functions0Bb_
FNDA:0,_RNCNvMs2_NtNtCs4cnvRHYBibt_6glossa8semantic8resolverNtB7_5Scope18is_defined_locally0Bb_
FNDA:0,_RNvMs2_NtNtCs4cnvRHYBibt_6glossa8semantic8resolverNtB5_5Scope17lookup_trait_impl
FNDA:0,_RNvMs2_NtNtCs4cnvRHYBibt_6glossa8semantic8resolverNtB5_5Scope18is_defined_locally
FNDA:0,_RNvXs3_NtNtCs4cnvRHYBibt_6glossa8semantic8resolverNtB5_5ScopeNtNtCs3XFJfFEDSOQ_4core7default7Default7default
FNDA:199,_RNvMNtNtCs4cnvRHYBibt_6glossa8semantic8resolverNtB2_10ScopeLevel3new
FNDA:26,_RNvMs2_NtNtCs4cnvRHYBibt_6glossa8semantic8resolverNtB5_5Scope10is_defined
FNDA:4,_RNvMs2_NtNtCs4cnvRHYBibt_6glossa8semantic8resolverNtB5_5Scope11enter_scope
FNDA:7,_RNvMs2_NtNtCs4cnvRHYBibt_6glossa8semantic8resolverNtB5_5Scope11is_function
FNDA:5,_RNvMs2_NtNtCs4cnvRHYBibt_6glossa8semantic8resolverNtB5_5Scope11lookup_type
FNDA:3,_RNvMs2_NtNtCs4cnvRHYBibt_6glossa8semantic8resolverNtB5_5Scope12lookup_trait
FNDA:1439,_RNvMs2_NtNtCs4cnvRHYBibt_6glossa8semantic8resolverNtB5_5Scope13current_level
FNDA:161,_RNvMs2_NtNtCs4cnvRHYBibt_6glossa8semantic8resolverNtB5_5Scope13lookup_symbol
FNDA:10,_RNvMs2_NtNtCs4cnvRHYBibt_6glossa8semantic8resolverNtB5_5Scope14lookup_binding
FNDA:2,_RNvMs2_NtNtCs4cnvRHYBibt_6glossa8semantic8resolverNtB5_5Scope15lookup_function
FNDA:1,_RNvMs2_NtNtCs4cnvRHYBibt_6glossa8semantic8resolverNtB5_5Scope15unused_bindings
FNDA:0,_RNvMs2_NtNtCs4cnvRHYBibt_6glossa8semantic8resolverNtB5_5Scope16has_trait_method
FNDA:1,_RNvMs2_NtNtCs4cnvRHYBibt_6glossa8semantic8resolverNtB5_5Scope19register_trait_impl
FNDA:193,_RNvMs2_NtNtCs4cnvRHYBibt_6glossa8semantic8resolverNtB5_5Scope3new
FNDA:9,_RNvMs2_NtNtCs4cnvRHYBibt_6glossa8semantic8resolverNtB5_5Scope4exit
FNDA:6,_RNvMs2_NtNtCs4cnvRHYBibt_6glossa8semantic8resolverNtB5_5Scope5enter
FNDA:23,_RNvMs2_NtNtCs4cnvRHYBibt_6glossa8semantic8resolverNtB5_5Scope5types
FNDA:108,_RNvMs2_NtNtCs4cnvRHYBibt_6glossa8semantic8resolverNtB5_5Scope6lookup
FNDA:15,_RNvMs2_NtNtCs4cnvRHYBibt_6glossa8semantic8resolverNtB5_5Scope6traits
FNDA:3,_RNvMs2_NtNtCs4cnvRHYBibt_6glossa8semantic8resolverNtB5_5Scope8bindings
FNDA:9,_RNvMs2_NtNtCs4cnvRHYBibt_6glossa8semantic8resolverNtB5_5Scope9functions
FNDA:3,_RNvMs2_NtNtCs4cnvRHYBibt_6glossa8semantic8resolverNtB5_5Scope9mark_used
FNDA:4,_RNvXs0_NtNtCs4cnvRHYBibt_6glossa8semantic8resolverNtB5_10ScopeGuardNtNtNtCs3XFJfFEDSOQ_4core3ops5deref5Deref5deref
FNDA:4,_RNvXs1_NtNtCs4cnvRHYBibt_6glossa8semantic8resolverNtB5_10ScopeGuardNtNtNtCs3XFJfFEDSOQ_4core3ops5deref8DerefMut9deref_mut
FNDA:1,_RNCNvNtNtNtCs4cnvRHYBibt_6glossa8semantic8resolver5testss_24test_scope_type_coverage0B9_
FNDA:1,_RNCNvNtNtNtCs4cnvRHYBibt_6glossa8semantic8resolver5testss_25test_scope_trait_coverage0B9_
FNDA:1,_RNCNvNtNtNtCs4cnvRHYBibt_6glossa8semantic8resolver5testss_28test_scope_function_coverage0B9_
FNDA:4,_RNvXs_NtNtCs4cnvRHYBibt_6glossa8semantic8resolverNtB4_10ScopeGuardNtNtNtCs3XFJfFEDSOQ_4core3ops4drop4Drop4drop
FNDA:1,_RNvNtNtNtCs4cnvRHYBibt_6glossa8semantic8resolver5testss_14test_mark_used
FNDA:1,_RNvNtNtNtCs4cnvRHYBibt_6glossa8semantic8resolver5testss_20test_enter_shadowing
FNDA:1,_RNvNtNtNtCs4cnvRHYBibt_6glossa8semantic8resolver5testss_20test_mutable_binding
FNDA:1,_RNvNtNtNtCs4cnvRHYBibt_6glossa8semantic8resolver5testss_20test_unused_bindings
FNDA:1,_RNvNtNtNtCs4cnvRHYBibt_6glossa8semantic8resolver5testss_21test_enter_exit_scope
FNDA:1,_RNvNtNtNtCs4cnvRHYBibt_6glossa8semantic8resolver5testss_24test_child_scope_shadows
FNDA:1,_RNvNtNtNtCs4cnvRHYBibt_6glossa8semantic8resolver5testss_24test_scope_type_coverage
FNDA:1,_RNvNtNtNtCs4cnvRHYBibt_6glossa8semantic8resolver5testss_25test_child_scope_inherits
FNDA:1,_RNvNtNtNtCs4cnvRHYBibt_6glossa8semantic8resolver5testss_25test_scope_trait_coverage
FNDA:1,_RNvNtNtNtCs4cnvRHYBibt_6glossa8semantic8resolver5testss_27test_shadowing_across_types
FNDA:1,_RNvNtNtNtCs4cnvRHYBibt_6glossa8semantic8resolver5testss_28test_scope_define_and_lookup
FNDA:1,_RNvNtNtNtCs4cnvRHYBibt_6glossa8semantic8resolver5testss_28test_scope_function_coverage
FNDA:1,_RNvNtNtNtCs4cnvRHYBibt_6glossa8semantic8resolver5testss_29test_lookup_binding_immutable
FNDA:1,_RNvNtNtNtCs4cnvRHYBibt_6glossa8semantic8resolver5testss_29test_lookup_binding_not_found
FNDA:1,_RNvNtNtNtCs4cnvRHYBibt_6glossa8semantic8resolver5testss_32test_lookup_binding_parent_scope
FNDA:1,_RNvNtNtNtCs4cnvRHYBibt_6glossa8semantic8resolver5testss_36test_scope_exit_underflow_protection
FNDA:1,_RNvNtNtNtCs4cnvRHYBibt_6glossa8semantic8resolver5testss_37test_scope_mixed_namespace_collisions
FNDA:1,_RNvNtNtNtCs4cnvRHYBibt_6glossa8semantic8resolver5testss_40test_lookup_binding_returns_full_binding
FNDA:0,_RINvMs2_NtNtCs4cnvRHYBibt_6glossa8semantic8resolverNtB6_5Scope10define_mutNtCsfVgtH48eSWy_8smol_str7SmolStrEBa_
FNDA:5,_RINvMs2_NtNtCs4cnvRHYBibt_6glossa8semantic8resolverNtB6_5Scope10define_mutNtNtCsgag4BwXrjBQ_5alloc6string6StringEBa_
FNDA:1,_RINvMs2_NtNtCs4cnvRHYBibt_6glossa8semantic8resolverNtB6_5Scope10define_mutReEBa_
FNDA:12,_RINvMs2_NtNtCs4cnvRHYBibt_6glossa8semantic8resolverNtB6_5Scope11define_typeNtCsfVgtH48eSWy_8smol_str7SmolStrEBa_
FNDA:2,_RINvMs2_NtNtCs4cnvRHYBibt_6glossa8semantic8resolverNtB6_5Scope11define_typeNtNtCsgag4BwXrjBQ_5alloc6string6StringEBa_
FNDA:3,_RINvMs2_NtNtCs4cnvRHYBibt_6glossa8semantic8resolverNtB6_5Scope11define_typeReEBa_
FNDA:1,_RINvMs2_NtNtCs4cnvRHYBibt_6glossa8semantic8resolverNtB6_5Scope12define_traitNtCsfVgtH48eSWy_8smol_str7SmolStrEBa_
FNDA:1,_RINvMs2_NtNtCs4cnvRHYBibt_6glossa8semantic8resolverNtB6_5Scope12define_traitNtNtCsgag4BwXrjBQ_5alloc6string6StringEBa_
FNDA:1,_RINvMs2_NtNtCs4cnvRHYBibt_6glossa8semantic8resolverNtB6_5Scope12define_traitReEBa_
FNDA:0,_RINvMs2_NtNtCs4cnvRHYBibt_6glossa8semantic8resolverNtB6_5Scope15define_functionNtCsfVgtH48eSWy_8smol_str7SmolStrEBa_
FNDA:2,_RINvMs2_NtNtCs4cnvRHYBibt_6glossa8semantic8resolverNtB6_5Scope15define_functionNtNtCsgag4BwXrjBQ_5alloc6string6StringEBa_
FNDA:5,_RINvMs2_NtNtCs4cnvRHYBibt_6glossa8semantic8resolverNtB6_5Scope15define_functionReEBa_
FNDA:1,_RINvMs2_NtNtCs4cnvRHYBibt_6glossa8semantic8resolverNtB6_5Scope6defineNtCsfVgtH48eSWy_8smol_str7SmolStrEBa_
FNDA:1370,_RINvMs2_NtNtCs4cnvRHYBibt_6glossa8semantic8resolverNtB6_5Scope6defineNtNtCsgag4BwXrjBQ_5alloc6string6StringEBa_
FNDA:34,_RINvMs2_NtNtCs4cnvRHYBibt_6glossa8semantic8resolverNtB6_5Scope6defineReEBa_
FNDA:27,_RNCNCNvMs2_NtNtCs4cnvRHYBibt_6glossa8semantic8resolverNtB9_5Scope5types00Bd_
FNDA:16,_RNCNCNvMs2_NtNtCs4cnvRHYBibt_6glossa8semantic8resolverNtB9_5Scope6traits00Bd_
FNDA:3,_RNCNCNvMs2_NtNtCs4cnvRHYBibt_6glossa8semantic8resolverNtB9_5Scope8bindings00Bd_
FNDA:7,_RNCNCNvMs2_NtNtCs4cnvRHYBibt_6glossa8semantic8resolverNtB9_5Scope9functions00Bd_
FNDA:5,_RNCNvMs2_NtNtCs4cnvRHYBibt_6glossa8semantic8resolverNtB7_5Scope11is_function0Bb_
FNDA:1,_RNCNvMs2_NtNtCs4cnvRHYBibt_6glossa8semantic8resolverNtB7_5Scope15unused_bindings0Bb_
FNDA:2,_RNCNvMs2_NtNtCs4cnvRHYBibt_6glossa8semantic8resolverNtB7_5Scope15unused_bindingss0_0Bb_
FNDA:2,_RNCNvMs2_NtNtCs4cnvRHYBibt_6glossa8semantic8resolverNtB7_5Scope15unused_bindingss_0Bb_
FNDA:0,_RNCNvMs2_NtNtCs4cnvRHYBibt_6glossa8semantic8resolverNtB7_5Scope16has_trait_method0Bb_
FNDA:23,_RNCNvMs2_NtNtCs4cnvRHYBibt_6glossa8semantic8resolverNtB7_5Scope5types0Bb_
FNDA:15,_RNCNvMs2_NtNtCs4cnvRHYBibt_6glossa8semantic8resolverNtB7_5Scope6traits0Bb_
FNDA:3,_RNCNvMs2_NtNtCs4cnvRHYBibt_6glossa8semantic8resolverNtB7_5Scope8bindings0Bb_
FNDA:9,_RNCNvMs2_NtNtCs4cnvRHYBibt_6glossa8semantic8resolverNtB7_5Scope9functions0Bb_
FNF:68
FNH:65
DA:30,783
DA:31,783
DA:32,783
DA:58,64
DA:59,64
DA:60,64
DA:65,4
DA:66,4
DA:67,4
DA:71,139
DA:72,139
DA:73,139
DA:91,717
DA:92,717
DA:93,717
DA:94,717
DA:95,717
DA:98,66
DA:99,66
DA:100,66
DA:103,64
DA:104,64
DA:105,64
DA:106,64
DA:109,69
DA:110,69
DA:111,66
DA:112,66
DA:113,69
DA:115,1848
DA:116,1848
DA:117,1848
DA:118,1848
DA:119,1848
DA:122,24
DA:123,24
DA:124,24
DA:125,24
DA:126,24
DA:127,24
DA:128,24
DA:129,24
DA:130,24
DA:131,24
DA:132,24
DA:133,24
DA:134,24
DA:135,24
DA:137,24
DA:140,73
DA:141,73
DA:142,73
DA:143,73
DA:144,73
DA:147,5
DA:148,5
DA:149,5
DA:150,0
DA:152,5
DA:155,90
DA:156,90
DA:157,90
DA:158,90
DA:159,90
DA:162,46
DA:163,46
DA:164,41
DA:165,5
DA:167,46
DA:170,29
DA:171,29
DA:172,29
DA:173,29
DA:174,29
DA:175,29
DA:176,29
DA:177,29
DA:178,29
DA:181,51
DA:182,51
DA:183,23
DA:184,28
DA:186,51
DA:189,18
DA:190,18
DA:191,18
DA:194,0
DA:195,0
DA:196,0
DA:197,0
DA:198,0
DA:199,0
DA:200,0
DA:201,0
DA:202,0
DA:203,0
DA:206,0
DA:207,0
DA:210,1
DA:211,1
DA:212,1
DA:213,1
DA:214,0
DA:215,1
DA:217,1
DA:218,1
DA:219,1
DA:220,1
DA:221,0
DA:222,0
DA:225,0
DA:226,1
DA:229,1666
DA:230,1666
DA:231,1666
DA:232,1666
DA:233,1666
DA:234,1666
DA:235,1666
DA:236,1666
DA:237,1666
DA:238,1666
DA:240,1666
DA:243,21
DA:244,21
DA:245,21
DA:246,21
DA:247,21
DA:248,21
DA:249,21
DA:250,21
DA:251,21
DA:252,21
DA:254,21
DA:257,584
DA:258,611
DA:259,611
DA:260,329
DA:261,282
DA:263,255
DA:264,584
DA:267,351
DA:268,351
DA:269,196
DA:270,155
DA:272,351
DA:275,17
DA:276,17
DA:277,15
DA:278,2
DA:280,17
DA:283,0
DA:284,0
DA:285,0
DA:286,0
DA:287,0
DA:288,0
DA:291,41
DA:294,41
DA:295,41
DA:298,3
DA:299,3
DA:300,3
DA:301,3
DA:302,0
DA:303,3
DA:304,3
DA:305,3
DA:308,7
DA:309,8
DA:310,8
DA:311,7
DA:312,7
DA:313,1
DA:315,7
DA:318,1
DA:319,1
DA:320,1
DA:321,1
DA:322,2
DA:323,2
DA:324,0
DA:325,2
DA:326,2
DA:327,1
DA:328,1
DA:331,9
DA:332,9
DA:333,9
DA:334,5
DA:335,2
DA:336,7
DA:337,9
DA:338,9
DA:341,23
DA:342,23
DA:343,27
DA:344,17
DA:345,10
DA:346,27
DA:347,23
DA:348,23
DA:351,15
DA:352,15
DA:353,16
DA:354,3
DA:355,13
DA:356,16
DA:357,15
DA:358,15
DA:362,1
DA:363,1
DA:364,1
DA:372,1
DA:373,1
DA:374,1
DA:376,1
DA:377,1
DA:378,1
DA:379,1
DA:382,1
DA:383,1
DA:384,1
DA:386,1
DA:387,1
DA:388,1
DA:389,1
DA:392,1
DA:393,1
DA:394,1
DA:396,1
DA:397,1
DA:399,1
DA:400,1
DA:403,1
DA:404,1
DA:406,1
DA:409,1
DA:410,1
DA:411,1
DA:414,1
DA:417,1
DA:418,1
DA:419,1
DA:422,1
DA:423,1
DA:424,1
DA:426,1
DA:427,1
DA:428,1
DA:429,1
DA:431,1
DA:432,1
DA:433,1
DA:434,1
DA:437,1
DA:438,1
DA:439,1
DA:441,1
DA:442,1
DA:443,1
DA:445,1
DA:446,1
DA:447,1
DA:450,1
DA:451,1
DA:452,1
DA:454,1
DA:455,1
DA:456,1
DA:459,1
DA:460,1
DA:461,1
DA:464,1
DA:465,1
DA:468,1
DA:469,1
DA:470,1
DA:471,1
DA:474,1
DA:475,1
DA:476,1
DA:477,1
DA:478,1
DA:480,1
DA:481,1
DA:482,1
DA:483,1
DA:486,1
DA:487,1
DA:488,1
DA:490,1
DA:491,1
DA:492,1
DA:493,1
DA:494,1
DA:497,1
DA:498,1
DA:499,1
DA:501,1
DA:502,1
DA:503,1
DA:504,1
DA:505,1
DA:508,1
DA:509,1
DA:510,1
DA:512,1
DA:513,1
DA:514,1
DA:515,1
DA:516,1
DA:519,1
DA:520,1
DA:521,1
DA:522,1
DA:525,1
DA:527,1
DA:528,1
DA:531,1
DA:534,1
DA:537,1
DA:540,1
DA:541,1
DA:544,1
DA:546,1
DA:547,1
DA:548,1
DA:549,1
DA:550,1
DA:551,1
DA:553,1
DA:555,1
DA:556,1
DA:559,1
DA:560,1
DA:563,1
DA:564,1
DA:565,1
DA:567,1
DA:568,1
DA:569,1
DA:570,1
DA:573,1
DA:574,1
DA:575,1
DA:578,1
DA:579,1
DA:582,1
DA:583,1
DA:584,1
DA:586,1
DA:588,1
DA:589,1
DA:592,1
DA:593,1
DA:596,1
DA:597,1
DA:598,1
DA:601,1
DA:604,1
DA:607,1
DA:610,1
DA:611,1
DA:612,1
BRF:0
BRH:0
LF:382
LH:356
end_of_record
SF:/app/src/semantic/types.rs
FN:141,_RNCNvXNtNtCsluBEq34Hdgp_6glossa8semantic5typesNtB4_10GlossaTypeNtNtCs3XFJfFEDSOQ_4core3fmt7Display3fmt0B8_
FN:170,_RNvMs_NtNtCsluBEq34Hdgp_6glossa8semantic5typesNtB4_10GlossaType13is_compatible
FN:152,_RNvMs_NtNtCsluBEq34Hdgp_6glossa8semantic5typesNtB4_10GlossaType8to_greek
FN:201,_RNvNtNtCsluBEq34Hdgp_6glossa8semantic5types22detect_collection_type
FN:129,_RNvXNtNtCsluBEq34Hdgp_6glossa8semantic5typesNtB2_10GlossaTypeNtNtCs3XFJfFEDSOQ_4core3fmt7Display3fmt
FN:141,_RNCNvXNtNtCs4cnvRHYBibt_6glossa8semantic5typesNtB4_10GlossaTypeNtNtCs3XFJfFEDSOQ_4core3fmt7Display3fmt0B8_
FN:217,_RNvNtNtNtCs4cnvRHYBibt_6glossa8semantic5types5testss_18test_type_to_greek
FN:237,_RNvNtNtNtCs4cnvRHYBibt_6glossa8semantic5types5testss_23test_display_formatting
FN:223,_RNvNtNtNtCs4cnvRHYBibt_6glossa8semantic5types5testss_23test_type_compatibility
FN:230,_RNvNtNtNtCs4cnvRHYBibt_6glossa8semantic5types5testss_27test_detect_collection_type
FN:170,_RNvMs_NtNtCs4cnvRHYBibt_6glossa8semantic5typesNtB4_10GlossaType13is_compatible
FN:152,_RNvMs_NtNtCs4cnvRHYBibt_6glossa8semantic5typesNtB4_10GlossaType8to_greek
FN:201,_RNvNtNtCs4cnvRHYBibt_6glossa8semantic5types22detect_collection_type
FN:129,_RNvXNtNtCs4cnvRHYBibt_6glossa8semantic5typesNtB2_10GlossaTypeNtNtCs3XFJfFEDSOQ_4core3fmt7Display3fmt
FNDA:0,_RNCNvXNtNtCsluBEq34Hdgp_6glossa8semantic5typesNtB4_10GlossaTypeNtNtCs3XFJfFEDSOQ_4core3fmt7Display3fmt0B8_
FNDA:5,_RNvMs_NtNtCsluBEq34Hdgp_6glossa8semantic5typesNtB4_10GlossaType13is_compatible
FNDA:0,_RNvMs_NtNtCsluBEq34Hdgp_6glossa8semantic5typesNtB4_10GlossaType8to_greek
FNDA:284,_RNvNtNtCsluBEq34Hdgp_6glossa8semantic5types22detect_collection_type
FNDA:0,_RNvXNtNtCsluBEq34Hdgp_6glossa8semantic5typesNtB2_10GlossaTypeNtNtCs3XFJfFEDSOQ_4core3fmt7Display3fmt
FNDA:3,_RNCNvXNtNtCs4cnvRHYBibt_6glossa8semantic5typesNtB4_10GlossaTypeNtNtCs3XFJfFEDSOQ_4core3fmt7Display3fmt0B8_
FNDA:1,_RNvNtNtNtCs4cnvRHYBibt_6glossa8semantic5types5testss_18test_type_to_greek
FNDA:1,_RNvNtNtNtCs4cnvRHYBibt_6glossa8semantic5types5testss_23test_display_formatting
FNDA:1,_RNvNtNtNtCs4cnvRHYBibt_6glossa8semantic5types5testss_23test_type_compatibility
FNDA:1,_RNvNtNtNtCs4cnvRHYBibt_6glossa8semantic5types5testss_27test_detect_collection_type
FNDA:3,_RNvMs_NtNtCs4cnvRHYBibt_6glossa8semantic5typesNtB4_10GlossaType13is_compatible
FNDA:2,_RNvMs_NtNtCs4cnvRHYBibt_6glossa8semantic5typesNtB4_10GlossaType8to_greek
FNDA:3,_RNvNtNtCs4cnvRHYBibt_6glossa8semantic5types22detect_collection_type
FNDA:51,_RNvXNtNtCs4cnvRHYBibt_6glossa8semantic5typesNtB2_10GlossaTypeNtNtCs3XFJfFEDSOQ_4core3fmt7Display3fmt
FNF:9
FNH:9
DA:129,51
DA:130,51
DA:131,13
DA:132,8
DA:133,3
DA:134,2
DA:135,1
DA:136,2
DA:137,2
DA:138,2
DA:139,12
DA:140,2
DA:141,3
DA:142,2
DA:144,2
DA:145,2
DA:147,51
DA:152,2
DA:153,2
DA:154,1
DA:155,1
DA:156,0
DA:157,0
DA:158,0
DA:159,0
DA:160,0
DA:161,0
DA:162,0
DA:163,0
DA:164,0
DA:165,0
DA:167,2
DA:170,8
DA:171,8
DA:172,4
DA:173,0
DA:174,0
DA:175,0
DA:176,0
DA:178,1
DA:179,1
DA:180,1
DA:182,2
DA:184,8
DA:201,287
DA:202,287
DA:203,287
DA:204,281
DA:205,5
DA:206,5
DA:207,5
DA:208,276
DA:210,287
DA:217,1
DA:218,1
DA:219,1
DA:220,1
DA:223,1
DA:224,1
DA:225,1
DA:226,1
DA:227,1
DA:230,1
DA:231,1
DA:232,1
DA:233,1
DA:234,1
DA:237,1
DA:238,1
DA:239,1
DA:240,1
DA:241,1
DA:242,1
DA:245,1
DA:246,1
DA:249,1
DA:250,1
DA:251,1
DA:252,1
DA:253,1
DA:254,1
DA:255,1
DA:259,1
DA:260,1
DA:261,1
DA:262,1
DA:266,1
DA:267,1
DA:268,1
DA:269,1
DA:270,1
DA:271,1
DA:272,1
DA:273,1
DA:277,1
DA:278,1
DA:279,1
DA:280,1
DA:281,1
DA:282,1
DA:283,1
DA:287,1
DA:288,1
DA:289,1
BRF:0
BRH:0
LF:105
LH:90
end_of_record
SF:/app/src/semantic/validation.rs
FN:94,_RNvNtNtCsluBEq34Hdgp_6glossa8semantic10validation16check_expr_depth
FN:12,_RNvNtNtCsluBEq34Hdgp_6glossa8semantic10validation16validate_program
FN:19,_RNvNtNtCsluBEq34Hdgp_6glossa8semantic10validation21check_statement_depth
FN:94,_RNvNtNtCs4cnvRHYBibt_6glossa8semantic10validation16check_expr_depth
FN:12,_RNvNtNtCs4cnvRHYBibt_6glossa8semantic10validation16validate_program
FN:19,_RNvNtNtCs4cnvRHYBibt_6glossa8semantic10validation21check_statement_depth
FNDA:1262,_RNvNtNtCsluBEq34Hdgp_6glossa8semantic10validation16check_expr_depth
FNDA:456,_RNvNtNtCsluBEq34Hdgp_6glossa8semantic10validation16validate_program
FNDA:735,_RNvNtNtCsluBEq34Hdgp_6glossa8semantic10validation21check_statement_depth
FNDA:1382,_RNvNtNtCs4cnvRHYBibt_6glossa8semantic10validation16check_expr_depth
FNDA:98,_RNvNtNtCs4cnvRHYBibt_6glossa8semantic10validation16validate_program
FNDA:1386,_RNvNtNtCs4cnvRHYBibt_6glossa8semantic10validation21check_statement_depth
FNF:3
FNH:3
DA:12,554
DA:13,2611
DA:14,2057
DA:16,554
DA:17,554
DA:19,2121
DA:20,2121
DA:21,0
DA:22,0
DA:23,0
DA:24,0
DA:25,2121
DA:27,2121
DA:28,1557
DA:29,1562
DA:31,301
DA:32,111
DA:33,4
DA:34,820
DA:35,404
DA:39,8
DA:40,8
DA:41,8
DA:43,8
DA:44,16
DA:45,8
DA:47,8
DA:48,6
DA:49,3
DA:51,5
DA:53,3
DA:54,3
DA:55,7
DA:56,4
DA:59,8
DA:60,8
DA:61,16
DA:62,8
DA:65,3
DA:66,3
DA:67,9
DA:68,6
DA:69,12
DA:70,6
DA:74,17
DA:75,8
DA:76,60
DA:77,35
DA:80,14
DA:81,14
DA:82,14
DA:83,0
DA:89,82
DA:91,2121
DA:92,2121
DA:94,2644
DA:95,2644
DA:96,0
DA:97,0
DA:98,0
DA:99,0
DA:100,2644
DA:102,2644
DA:103,3
DA:104,3
DA:105,6
DA:106,3
DA:109,76
DA:110,76
DA:111,76
DA:113,3
DA:114,5
DA:115,5
DA:116,5
DA:118,54
DA:119,210
DA:120,156
DA:123,26
DA:124,13
DA:125,12
DA:126,8
DA:127,70
DA:128,6
DA:129,6
DA:130,6
DA:132,102
DA:133,0
DA:134,102
DA:135,160
DA:136,58
DA:139,18
DA:140,41
DA:141,23
DA:144,32
DA:145,2
DA:146,5
DA:147,5
DA:148,5
DA:155,2265
DA:157,2644
DA:158,2644
BRF:0
BRH:0
LF:101
LH:91
end_of_record
SF:/app/src/text.rs
FN:92,_RNvMNtCsluBEq34Hdgp_6glossa4textNtB2_22GreekLowercaseIterator3new
FN:96,_RNvMNtCsluBEq34Hdgp_6glossa4textNtB2_22GreekLowercaseIterator14new_with_state
FN:168,_RNvNtCsluBEq34Hdgp_6glossa4text12is_safe_charB3_
FN:46,_RNvNtCsluBEq34Hdgp_6glossa4text15normalize_greek
FN:179,_RNvNtCsluBEq34Hdgp_6glossa4text18is_greek_diacritic
FN:111,_RNvXs_NtCsluBEq34Hdgp_6glossa4textNtB4_22GreekLowercaseIteratorNtNtNtNtCs3XFJfFEDSOQ_4core4iter6traits8iterator8Iterator4next
FN:61,_RNCNvNtCsluBEq34Hdgp_6glossa4text15normalize_greek0B5_
FN:92,_RNvMNtCs4cnvRHYBibt_6glossa4textNtB2_22GreekLowercaseIterator3new
FN:96,_RNvMNtCs4cnvRHYBibt_6glossa4textNtB2_22GreekLowercaseIterator14new_with_state
FN:168,_RNvNtCs4cnvRHYBibt_6glossa4text12is_safe_charB3_
FN:46,_RNvNtCs4cnvRHYBibt_6glossa4text15normalize_greek
FN:179,_RNvNtCs4cnvRHYBibt_6glossa4text18is_greek_diacritic
FN:111,_RNvXs_NtCs4cnvRHYBibt_6glossa4textNtB4_22GreekLowercaseIteratorNtNtNtNtCs3XFJfFEDSOQ_4core4iter6traits8iterator8Iterator4next
FN:215,_RNvNtNtCs4cnvRHYBibt_6glossa4text5testss_19test_normalize_esto
FN:210,_RNvNtNtCs4cnvRHYBibt_6glossa4text5testss_19test_normalize_lege
FN:205,_RNvNtNtCs4cnvRHYBibt_6glossa4text5testss_21test_normalize_chaire
FN:265,_RNvNtNtCs4cnvRHYBibt_6glossa4text5testss_21test_normalize_meizon
FN:200,_RNvNtNtCs4cnvRHYBibt_6glossa4text5testss_22test_normalize_athenai
FN:195,_RNvNtNtCs4cnvRHYBibt_6glossa4text5testss_24test_normalize_anthropos
FN:234,_RNvNtNtCs4cnvRHYBibt_6glossa4text5testss_25test_normalize_circumflex
FN:247,_RNvNtNtCs4cnvRHYBibt_6glossa4text5testss_25test_normalize_mixed_text
FN:271,_RNvNtNtCs4cnvRHYBibt_6glossa4text5testss_26test_normalize_or_particle
FN:283,_RNvNtNtCs4cnvRHYBibt_6glossa4text5testss_26test_normalize_sigma_cases
FN:227,_RNvNtNtCs4cnvRHYBibt_6glossa4text5testss_29test_normalize_iota_subscript
FN:253,_RNvNtNtCs4cnvRHYBibt_6glossa4text5testss_30test_normalize_genitive_ending
FN:220,_RNvNtNtCs4cnvRHYBibt_6glossa4text5testss_30test_normalize_rough_breathing
FN:259,_RNvNtNtCs4cnvRHYBibt_6glossa4text5testss_31test_normalize_case_insensitive
FN:277,_RNvNtNtCs4cnvRHYBibt_6glossa4text5testss_31test_normalize_subjunctive_eimi
FN:295,_RNvNtNtCs4cnvRHYBibt_6glossa4text5testss_36test_normalize_diacritics_with_sigma
FN:240,_RNvNtNtCs4cnvRHYBibt_6glossa4text5testss_37test_normalize_preserves_base_letters
FN:61,_RNCNvNtCs4cnvRHYBibt_6glossa4text15normalize_greek0B5_
FNDA:0,_RNvMNtCsluBEq34Hdgp_6glossa4textNtB2_22GreekLowercaseIterator3new
FNDA:1009237,_RNvMNtCsluBEq34Hdgp_6glossa4textNtB2_22GreekLowercaseIterator14new_with_state
FNDA:1071248,_RNvNtCsluBEq34Hdgp_6glossa4text12is_safe_charB3_
FNDA:1020612,_RNvNtCsluBEq34Hdgp_6glossa4text15normalize_greek
FNDA:18328496,_RNvNtCsluBEq34Hdgp_6glossa4text18is_greek_diacritic
FNDA:9075504,_RNvXs_NtCsluBEq34Hdgp_6glossa4textNtB4_22GreekLowercaseIteratorNtNtNtNtCs3XFJfFEDSOQ_4core4iter6traits8iterator8Iterator4next
FNDA:10077388,_RNCNvNtCsluBEq34Hdgp_6glossa4text15normalize_greek0B5_
FNDA:0,_RNvMNtCs4cnvRHYBibt_6glossa4textNtB2_22GreekLowercaseIterator3new
FNDA:5068,_RNvMNtCs4cnvRHYBibt_6glossa4textNtB2_22GreekLowercaseIterator14new_with_state
FNDA:48686,_RNvNtCs4cnvRHYBibt_6glossa4text12is_safe_charB3_
FNDA:15550,_RNvNtCs4cnvRHYBibt_6glossa4text15normalize_greek
FNDA:88716,_RNvNtCs4cnvRHYBibt_6glossa4text18is_greek_diacritic
FNDA:24031,_RNvXs_NtCs4cnvRHYBibt_6glossa4textNtB4_22GreekLowercaseIteratorNtNtNtNtCs3XFJfFEDSOQ_4core4iter6traits8iterator8Iterator4next
FNDA:1,_RNvNtNtCs4cnvRHYBibt_6glossa4text5testss_19test_normalize_esto
FNDA:1,_RNvNtNtCs4cnvRHYBibt_6glossa4text5testss_19test_normalize_lege
FNDA:1,_RNvNtNtCs4cnvRHYBibt_6glossa4text5testss_21test_normalize_chaire
FNDA:1,_RNvNtNtCs4cnvRHYBibt_6glossa4text5testss_21test_normalize_meizon
FNDA:1,_RNvNtNtCs4cnvRHYBibt_6glossa4text5testss_22test_normalize_athenai
FNDA:1,_RNvNtNtCs4cnvRHYBibt_6glossa4text5testss_24test_normalize_anthropos
FNDA:1,_RNvNtNtCs4cnvRHYBibt_6glossa4text5testss_25test_normalize_circumflex
FNDA:1,_RNvNtNtCs4cnvRHYBibt_6glossa4text5testss_25test_normalize_mixed_text
FNDA:1,_RNvNtNtCs4cnvRHYBibt_6glossa4text5testss_26test_normalize_or_particle
FNDA:1,_RNvNtNtCs4cnvRHYBibt_6glossa4text5testss_26test_normalize_sigma_cases
FNDA:1,_RNvNtNtCs4cnvRHYBibt_6glossa4text5testss_29test_normalize_iota_subscript
FNDA:1,_RNvNtNtCs4cnvRHYBibt_6glossa4text5testss_30test_normalize_genitive_ending
FNDA:1,_RNvNtNtCs4cnvRHYBibt_6glossa4text5testss_30test_normalize_rough_breathing
FNDA:1,_RNvNtNtCs4cnvRHYBibt_6glossa4text5testss_31test_normalize_case_insensitive
FNDA:1,_RNvNtNtCs4cnvRHYBibt_6glossa4text5testss_31test_normalize_subjunctive_eimi
FNDA:1,_RNvNtNtCs4cnvRHYBibt_6glossa4text5testss_36test_normalize_diacritics_with_sigma
FNDA:1,_RNvNtNtCs4cnvRHYBibt_6glossa4text5testss_37test_normalize_preserves_base_letters
FNDA:25963,_RNCNvNtCs4cnvRHYBibt_6glossa4text15normalize_greek0B5_
FNF:24
FNH:23
DA:46,1036162
DA:47,1036162
DA:51,1120363
DA:52,1120363
DA:55,1014305
DA:56,1014305
DA:58,1014305
DA:59,1014305
DA:60,1014305
DA:61,10103351
DA:63,1014305
DA:64,1014305
DA:65,106058
DA:68,106058
DA:69,106058
DA:70,0
DA:75,21857
DA:76,1036162
DA:92,0
DA:93,0
DA:94,0
DA:96,1014305
DA:97,1014305
DA:98,1014305
DA:99,1014305
DA:100,1014305
DA:101,1014305
DA:102,1014305
DA:103,1014305
DA:104,1014305
DA:105,1014305
DA:111,9099535
DA:113,9099535
DA:114,0
DA:115,9099535
DA:118,9099535
DA:119,8085230
DA:121,8085230
DA:122,20014
DA:123,20004
DA:126,20004
DA:127,20005
DA:128,20001
DA:129,1
DA:130,20000
DA:132,20000
DA:133,19999
DA:134,19999
DA:135,20000
DA:138,20004
DA:139,5
DA:140,19999
DA:141,19999
DA:142,19999
DA:143,10
DA:144,10
DA:145,10
DA:146,8065216
DA:150,8085230
DA:151,8085227
DA:152,3
DA:154,8085230
DA:155,8085230
DA:156,9099535
DA:168,1119934
DA:169,1119934
DA:170,45569
DA:174,1074365
DA:176,1119934
DA:179,18417212
DA:180,16398982
DA:181,18417212
DA:182,18352472
DA:185,17342546
DA:186,16336259
DA:188,18417212
DA:195,1
DA:196,1
DA:197,1
DA:200,1
DA:201,1
DA:202,1
DA:205,1
DA:206,1
DA:207,1
DA:210,1
DA:211,1
DA:212,1
DA:215,1
DA:216,1
DA:217,1
DA:220,1
DA:222,1
DA:223,1
DA:224,1
DA:227,1
DA:229,1
DA:230,1
DA:231,1
DA:234,1
DA:235,1
DA:236,1
DA:237,1
DA:240,1
DA:242,1
DA:243,1
DA:244,1
DA:247,1
DA:249,1
DA:250,1
DA:253,1
DA:254,1
DA:255,1
DA:256,1
DA:259,1
DA:260,1
DA:261,1
DA:262,1
DA:265,1
DA:267,1
DA:268,1
DA:271,1
DA:273,1
DA:274,1
DA:277,1
DA:279,1
DA:280,1
DA:283,1
DA:285,1
DA:286,1
DA:287,1
DA:288,1
DA:289,1
DA:290,1
DA:291,1
DA:292,1
DA:295,1
DA:300,1
DA:301,1
BRF:0
BRH:0
LF:140
LH:135
end_of_record
SF:/app/src/tools/cache.rs
FN:82,_RNCNvMs_NtNtCsluBEq34Hdgp_6glossa5tools5cacheNtB6_5Cache3key0Ba_
FN:47,_RNCNvMs_NtNtCsluBEq34Hdgp_6glossa5tools5cacheNtB6_5Cache3new0Ba_
FN:130,_RNCNvMs_NtNtCsluBEq34Hdgp_6glossa5tools5cacheNtB6_5Cache8is_valid0Ba_
FN:134,_RNCNvMs_NtNtCsluBEq34Hdgp_6glossa5tools5cacheNtB6_5Cache8is_valids_0Ba_
FN:79,_RNvMs_NtNtCsluBEq34Hdgp_6glossa5tools5cacheNtB4_5Cache3key
FN:44,_RNvMs_NtNtCsluBEq34Hdgp_6glossa5tools5cacheNtB4_5Cache3new
FN:57,_RNvMs_NtNtCsluBEq34Hdgp_6glossa5tools5cacheNtB4_5Cache4init
FN:128,_RNvMs_NtNtCsluBEq34Hdgp_6glossa5tools5cacheNtB4_5Cache8is_valid
FN:101,_RNvMs_NtNtCsluBEq34Hdgp_6glossa5tools5cacheNtB4_5Cache9get_paths
FN:34,_RNvXNtNtCsluBEq34Hdgp_6glossa5tools5cacheNtB2_5CacheNtNtCs3XFJfFEDSOQ_4core7default7Default7default
FN:34,_RNvXNtNtCs4cnvRHYBibt_6glossa5tools5cacheNtB2_5CacheNtNtCs3XFJfFEDSOQ_4core7default7Default7default
FN:79,_RNvMs_NtNtCs4cnvRHYBibt_6glossa5tools5cacheNtB4_5Cache3key
FN:44,_RNvMs_NtNtCs4cnvRHYBibt_6glossa5tools5cacheNtB4_5Cache3new
FN:57,_RNvMs_NtNtCs4cnvRHYBibt_6glossa5tools5cacheNtB4_5Cache4init
FN:128,_RNvMs_NtNtCs4cnvRHYBibt_6glossa5tools5cacheNtB4_5Cache8is_valid
FN:101,_RNvMs_NtNtCs4cnvRHYBibt_6glossa5tools5cacheNtB4_5Cache9get_paths
FN:82,_RNCNvMs_NtNtCs4cnvRHYBibt_6glossa5tools5cacheNtB6_5Cache3key0Ba_
FN:47,_RNCNvMs_NtNtCs4cnvRHYBibt_6glossa5tools5cacheNtB6_5Cache3new0Ba_
FN:130,_RNCNvMs_NtNtCs4cnvRHYBibt_6glossa5tools5cacheNtB6_5Cache8is_valid0Ba_
FN:134,_RNCNvMs_NtNtCs4cnvRHYBibt_6glossa5tools5cacheNtB6_5Cache8is_valids_0Ba_
FNDA:0,_RNCNvMs_NtNtCsluBEq34Hdgp_6glossa5tools5cacheNtB6_5Cache3key0Ba_
FNDA:0,_RNCNvMs_NtNtCsluBEq34Hdgp_6glossa5tools5cacheNtB6_5Cache3new0Ba_
FNDA:4,_RNCNvMs_NtNtCsluBEq34Hdgp_6glossa5tools5cacheNtB6_5Cache8is_valid0Ba_
FNDA:0,_RNCNvMs_NtNtCsluBEq34Hdgp_6glossa5tools5cacheNtB6_5Cache8is_valids_0Ba_
FNDA:11,_RNvMs_NtNtCsluBEq34Hdgp_6glossa5tools5cacheNtB4_5Cache3key
FNDA:8,_RNvMs_NtNtCsluBEq34Hdgp_6glossa5tools5cacheNtB4_5Cache3new
FNDA:4,_RNvMs_NtNtCsluBEq34Hdgp_6glossa5tools5cacheNtB4_5Cache4init
FNDA:4,_RNvMs_NtNtCsluBEq34Hdgp_6glossa5tools5cacheNtB4_5Cache8is_valid
FNDA:4,_RNvMs_NtNtCsluBEq34Hdgp_6glossa5tools5cacheNtB4_5Cache9get_paths
FNDA:0,_RNvXNtNtCsluBEq34Hdgp_6glossa5tools5cacheNtB2_5CacheNtNtCs3XFJfFEDSOQ_4core7default7Default7default
FNDA:0,_RNvXNtNtCs4cnvRHYBibt_6glossa5tools5cacheNtB2_5CacheNtNtCs3XFJfFEDSOQ_4core7default7Default7default
FNDA:5,_RNvMs_NtNtCs4cnvRHYBibt_6glossa5tools5cacheNtB4_5Cache3key
FNDA:5,_RNvMs_NtNtCs4cnvRHYBibt_6glossa5tools5cacheNtB4_5Cache3new
FNDA:4,_RNvMs_NtNtCs4cnvRHYBibt_6glossa5tools5cacheNtB4_5Cache4init
FNDA:4,_RNvMs_NtNtCs4cnvRHYBibt_6glossa5tools5cacheNtB4_5Cache8is_valid
FNDA:5,_RNvMs_NtNtCs4cnvRHYBibt_6glossa5tools5cacheNtB4_5Cache9get_paths
FNDA:0,_RNCNvMs_NtNtCs4cnvRHYBibt_6glossa5tools5cacheNtB6_5Cache3key0Ba_
FNDA:0,_RNCNvMs_NtNtCs4cnvRHYBibt_6glossa5tools5cacheNtB6_5Cache3new0Ba_
FNDA:4,_RNCNvMs_NtNtCs4cnvRHYBibt_6glossa5tools5cacheNtB6_5Cache8is_valid0Ba_
FNDA:1,_RNCNvMs_NtNtCs4cnvRHYBibt_6glossa5tools5cacheNtB6_5Cache8is_valids_0Ba_
FNF:10
FNH:7
DA:34,0
DA:35,0
DA:36,0
DA:44,13
DA:45,13
DA:46,13
DA:47,13
DA:48,13
DA:49,13
DA:50,13
DA:51,13
DA:57,8
DA:58,8
DA:59,8
DA:79,16
DA:82,16
DA:87,16
DA:89,16
DA:90,16
DA:91,16
DA:93,16
DA:94,16
DA:101,9
DA:102,9
DA:103,9
DA:104,9
DA:105,9
DA:107,9
DA:109,9
DA:110,9
DA:128,8
DA:129,8
DA:130,8
DA:131,8
DA:133,8
DA:134,8
DA:135,8
DA:137,8
DA:138,8
BRF:0
BRH:0
LF:43
LH:38
end_of_record
SF:/app/src/tools/cartographer.rs
FN:114,_RNCNvNtNtCsluBEq34Hdgp_6glossa5tools12cartographer12generate_map0B7_
FN:148,_RNCNvNtNtCsluBEq34Hdgp_6glossa5tools12cartographer12generate_maps0_0B7_
FN:153,_RNCNvNtNtCsluBEq34Hdgp_6glossa5tools12cartographer12generate_maps1_0B7_
FN:171,_RNCNvNtNtCsluBEq34Hdgp_6glossa5tools12cartographer12generate_maps2_0B7_
FN:138,_RNCNvNtNtCsluBEq34Hdgp_6glossa5tools12cartographer12generate_maps_0B7_
FN:52,_RNCNvNtNtCsluBEq34Hdgp_6glossa5tools12cartographer7run_map0B7_
FN:53,_RNCNvNtNtCsluBEq34Hdgp_6glossa5tools12cartographer7run_maps_0B7_
FN:114,_RNCNvNtNtCs4cnvRHYBibt_6glossa5tools12cartographer12generate_map0B7_
FN:148,_RNCNvNtNtCs4cnvRHYBibt_6glossa5tools12cartographer12generate_maps0_0B7_
FN:153,_RNCNvNtNtCs4cnvRHYBibt_6glossa5tools12cartographer12generate_maps1_0B7_
FN:171,_RNCNvNtNtCs4cnvRHYBibt_6glossa5tools12cartographer12generate_maps2_0B7_
FN:138,_RNCNvNtNtCs4cnvRHYBibt_6glossa5tools12cartographer12generate_maps_0B7_
FN:52,_RNCNvNtNtCs4cnvRHYBibt_6glossa5tools12cartographer7run_map0B7_
FN:53,_RNCNvNtNtCs4cnvRHYBibt_6glossa5tools12cartographer7run_maps_0B7_
FN:107,_RNvNtNtCs4cnvRHYBibt_6glossa5tools12cartographer12generate_map
FN:209,_RNvNtNtCs4cnvRHYBibt_6glossa5tools12cartographer20extract_dependencies
FN:48,_RNvNtNtCs4cnvRHYBibt_6glossa5tools12cartographer7run_map
FN:454,_RNvNtNtNtCs4cnvRHYBibt_6glossa5tools12cartographer5testss_20test_run_map_success
FN:479,_RNvNtNtNtCs4cnvRHYBibt_6glossa5tools12cartographer5testss_26test_run_map_empty_diagram
FN:364,_RNvNtNtNtCs4cnvRHYBibt_6glossa5tools12cartographer5testss_27test_cartographer_filtering
FN:470,_RNvNtNtNtCs4cnvRHYBibt_6glossa5tools12cartographer5testss_27test_run_map_file_not_found
FN:278,_RNvNtNtNtCs4cnvRHYBibt_6glossa5tools12cartographer5testss_28test_cartographer_trait_impl
FN:239,_RNvNtNtNtCs4cnvRHYBibt_6glossa5tools12cartographer5testss_30test_cartographer_basic_struct
FN:257,_RNvNtNtNtCs4cnvRHYBibt_6glossa5tools12cartographer5testss_31test_cartographer_relationships
FN:416,_RNvNtNtNtCs4cnvRHYBibt_6glossa5tools12cartographer5testss_33test_cartographer_complex_methods
FN:303,_RNvNtNtNtCs4cnvRHYBibt_6glossa5tools12cartographer5testss_38test_cartographer_complex_dependencies
FN:107,_RNvNtNtCsluBEq34Hdgp_6glossa5tools12cartographer12generate_map
FN:209,_RNvNtNtCsluBEq34Hdgp_6glossa5tools12cartographer20extract_dependencies
FN:48,_RNvNtNtCsluBEq34Hdgp_6glossa5tools12cartographer7run_map
FNDA:0,_RNCNvNtNtCsluBEq34Hdgp_6glossa5tools12cartographer12generate_map0B7_
FNDA:0,_RNCNvNtNtCsluBEq34Hdgp_6glossa5tools12cartographer12generate_maps0_0B7_
FNDA:0,_RNCNvNtNtCsluBEq34Hdgp_6glossa5tools12cartographer12generate_maps1_0B7_
FNDA:0,_RNCNvNtNtCsluBEq34Hdgp_6glossa5tools12cartographer12generate_maps2_0B7_
FNDA:0,_RNCNvNtNtCsluBEq34Hdgp_6glossa5tools12cartographer12generate_maps_0B7_
FNDA:0,_RNCNvNtNtCsluBEq34Hdgp_6glossa5tools12cartographer7run_map0B7_
FNDA:0,_RNCNvNtNtCsluBEq34Hdgp_6glossa5tools12cartographer7run_maps_0B7_
FNDA:2,_RNCNvNtNtCs4cnvRHYBibt_6glossa5tools12cartographer12generate_map0B7_
FNDA:3,_RNCNvNtNtCs4cnvRHYBibt_6glossa5tools12cartographer12generate_maps0_0B7_
FNDA:1,_RNCNvNtNtCs4cnvRHYBibt_6glossa5tools12cartographer12generate_maps1_0B7_
FNDA:8,_RNCNvNtNtCs4cnvRHYBibt_6glossa5tools12cartographer12generate_maps2_0B7_
FNDA:0,_RNCNvNtNtCs4cnvRHYBibt_6glossa5tools12cartographer12generate_maps_0B7_
FNDA:0,_RNCNvNtNtCs4cnvRHYBibt_6glossa5tools12cartographer7run_map0B7_
FNDA:0,_RNCNvNtNtCs4cnvRHYBibt_6glossa5tools12cartographer7run_maps_0B7_
FNDA:8,_RNvNtNtCs4cnvRHYBibt_6glossa5tools12cartographer12generate_map
FNDA:20,_RNvNtNtCs4cnvRHYBibt_6glossa5tools12cartographer20extract_dependencies
FNDA:3,_RNvNtNtCs4cnvRHYBibt_6glossa5tools12cartographer7run_map
FNDA:1,_RNvNtNtNtCs4cnvRHYBibt_6glossa5tools12cartographer5testss_20test_run_map_success
FNDA:1,_RNvNtNtNtCs4cnvRHYBibt_6glossa5tools12cartographer5testss_26test_run_map_empty_diagram
FNDA:1,_RNvNtNtNtCs4cnvRHYBibt_6glossa5tools12cartographer5testss_27test_cartographer_filtering
FNDA:1,_RNvNtNtNtCs4cnvRHYBibt_6glossa5tools12cartographer5testss_27test_run_map_file_not_found
FNDA:1,_RNvNtNtNtCs4cnvRHYBibt_6glossa5tools12cartographer5testss_28test_cartographer_trait_impl
FNDA:1,_RNvNtNtNtCs4cnvRHYBibt_6glossa5tools12cartographer5testss_30test_cartographer_basic_struct
FNDA:1,_RNvNtNtNtCs4cnvRHYBibt_6glossa5tools12cartographer5testss_31test_cartographer_relationships
FNDA:1,_RNvNtNtNtCs4cnvRHYBibt_6glossa5tools12cartographer5testss_33test_cartographer_complex_methods
FNDA:1,_RNvNtNtNtCs4cnvRHYBibt_6glossa5tools12cartographer5testss_38test_cartographer_complex_dependencies
FNDA:0,_RNvNtNtCsluBEq34Hdgp_6glossa5tools12cartographer12generate_map
FNDA:0,_RNvNtNtCsluBEq34Hdgp_6glossa5tools12cartographer20extract_dependencies
FNDA:0,_RNvNtNtCsluBEq34Hdgp_6glossa5tools12cartographer7run_map
FNF:19
FNH:16
DA:48,3
DA:49,3
DA:51,3
DA:52,2
DA:53,2
DA:55,2
DA:57,2
DA:59,2
DA:60,2
DA:61,2
DA:62,2
DA:64,2
DA:65,2
DA:67,2
DA:68,1
DA:69,1
DA:70,1
DA:71,1
DA:72,1
DA:73,1
DA:74,1
DA:75,1
DA:76,1
DA:77,1
DA:78,1
DA:79,1
DA:80,1
DA:81,1
DA:82,1
DA:83,1
DA:84,1
DA:85,1
DA:86,1
DA:87,1
DA:88,1
DA:89,1
DA:90,1
DA:91,1
DA:92,1
DA:93,1
DA:94,1
DA:95,1
DA:96,1
DA:97,1
DA:98,1
DA:99,1
DA:100,1
DA:101,1
DA:103,2
DA:104,3
DA:107,8
DA:108,8
DA:109,8
DA:113,8
DA:114,8
DA:116,16
DA:117,8
DA:118,8
DA:119,20
DA:121,12
DA:124,12
DA:125,11
DA:126,10
DA:127,10
DA:128,10
DA:129,10
DA:132,8
DA:133,0
DA:137,8
DA:138,8
DA:140,10
DA:141,2
DA:142,2
DA:143,2
DA:144,4
DA:145,2
DA:146,2
DA:147,2
DA:148,3
DA:149,2
DA:150,2
DA:151,2
DA:152,2
DA:153,2
DA:154,2
DA:155,2
DA:156,2
DA:157,2
DA:158,2
DA:159,2
DA:160,2
DA:162,2
DA:168,8
DA:169,8
DA:170,8
DA:171,8
DA:172,8
DA:173,8
DA:175,0
DA:177,8
DA:178,8
DA:180,8
DA:181,8
DA:183,11
DA:184,3
DA:185,2
DA:186,2
DA:191,16
DA:193,1
DA:194,1
DA:196,8
DA:197,1
DA:198,1
DA:199,1
DA:200,1
DA:201,1
DA:202,7
DA:205,8
DA:206,8
DA:209,20
DA:210,20
DA:211,11
DA:212,1
DA:213,2
DA:215,1
DA:216,2
DA:217,2
DA:218,2
DA:220,1
DA:221,1
DA:222,2
DA:223,1
DA:224,1
DA:225,1
DA:226,1
DA:228,4
DA:230,20
DA:239,1
DA:240,1
DA:241,1
DA:242,1
DA:243,1
DA:244,1
DA:245,1
DA:246,1
DA:247,1
DA:248,1
DA:251,1
DA:252,1
DA:253,1
DA:254,1
DA:257,1
DA:258,1
DA:259,1
DA:260,1
DA:261,1
DA:262,1
DA:263,1
DA:264,1
DA:265,1
DA:266,1
DA:267,1
DA:268,1
DA:269,1
DA:271,1
DA:272,1
DA:274,1
DA:275,1
DA:278,1
DA:279,1
DA:280,1
DA:281,1
DA:282,1
DA:283,1
DA:284,1
DA:285,1
DA:286,1
DA:287,1
DA:288,1
DA:289,1
DA:290,1
DA:291,1
DA:292,1
DA:294,1
DA:295,1
DA:296,1
DA:297,1
DA:298,0
DA:300,1
DA:303,1
DA:308,1
DA:311,1
DA:312,1
DA:313,1
DA:314,1
DA:315,1
DA:316,1
DA:319,1
DA:320,1
DA:321,1
DA:322,1
DA:323,1
DA:324,1
DA:325,1
DA:326,1
DA:327,1
DA:328,1
DA:329,1
DA:330,1
DA:331,1
DA:332,1
DA:333,1
DA:334,1
DA:335,1
DA:336,1
DA:337,1
DA:338,1
DA:339,1
DA:340,1
DA:341,1
DA:342,1
DA:344,1
DA:345,1
DA:346,1
DA:347,1
DA:349,1
DA:352,1
DA:354,1
DA:358,1
DA:359,1
DA:360,1
DA:361,1
DA:364,1
DA:369,1
DA:374,1
DA:375,1
DA:376,1
DA:377,1
DA:378,1
DA:381,1
DA:382,1
DA:383,1
DA:384,1
DA:385,1
DA:386,1
DA:387,1
DA:388,1
DA:389,1
DA:390,1
DA:391,1
DA:392,1
DA:393,1
DA:394,1
DA:395,1
DA:397,1
DA:399,1
DA:400,1
DA:401,1
DA:402,1
DA:404,1
DA:406,1
DA:409,1
DA:412,1
DA:413,1
DA:416,1
DA:419,1
DA:422,1
DA:423,1
DA:424,1
DA:425,1
DA:426,1
DA:427,1
DA:428,1
DA:429,1
DA:430,1
DA:432,1
DA:433,1
DA:434,1
DA:435,1
DA:437,1
DA:439,1
DA:440,1
DA:441,1
DA:442,1
DA:444,1
DA:446,1
DA:447,1
DA:448,1
DA:449,1
DA:450,1
DA:451,1
DA:454,1
DA:456,1
DA:457,1
DA:460,1
DA:461,1
DA:465,1
DA:466,1
DA:467,1
DA:470,1
DA:472,1
DA:473,1
DA:474,1
DA:475,1
DA:476,1
DA:479,1
DA:480,1
DA:481,1
DA:484,1
DA:485,1
DA:489,1
DA:490,1
DA:491,1
BRF:0
BRH:0
LF:320
LH:314
end_of_record
SF:/app/src/tools/dictionary.rs
FN:56,_RNvNtNtCs4cnvRHYBibt_6glossa5tools10dictionary11lookup_word
FN:228,_RNvNtNtNtCs4cnvRHYBibt_6glossa5tools10dictionary5testss_16test_lookup_verb
FN:217,_RNvNtNtNtCs4cnvRHYBibt_6glossa5tools10dictionary5testss_22test_lookup_known_word
FN:223,_RNvNtNtNtCs4cnvRHYBibt_6glossa5tools10dictionary5testss_24test_lookup_unknown_word
FN:233,_RNvNtNtNtCs4cnvRHYBibt_6glossa5tools10dictionary5testss_35test_lookup_word_without_rust_equiv
FN:56,_RNvNtNtCsluBEq34Hdgp_6glossa5tools10dictionary11lookup_word
FNDA:4,_RNvNtNtCs4cnvRHYBibt_6glossa5tools10dictionary11lookup_word
FNDA:1,_RNvNtNtNtCs4cnvRHYBibt_6glossa5tools10dictionary5testss_16test_lookup_verb
FNDA:1,_RNvNtNtNtCs4cnvRHYBibt_6glossa5tools10dictionary5testss_22test_lookup_known_word
FNDA:1,_RNvNtNtNtCs4cnvRHYBibt_6glossa5tools10dictionary5testss_24test_lookup_unknown_word
FNDA:1,_RNvNtNtNtCs4cnvRHYBibt_6glossa5tools10dictionary5testss_35test_lookup_word_without_rust_equiv
FNDA:0,_RNvNtNtCsluBEq34Hdgp_6glossa5tools10dictionary11lookup_word
FNF:5
FNH:5
DA:56,4
DA:57,4
DA:60,4
DA:61,4
DA:62,4
DA:63,4
DA:64,3
DA:65,3
DA:66,4
DA:69,4
DA:70,2
DA:72,2
DA:73,2
DA:74,2
DA:75,2
DA:76,2
DA:77,2
DA:80,2
DA:81,2
DA:82,2
DA:83,2
DA:84,2
DA:87,2
DA:88,2
DA:89,2
DA:92,2
DA:93,2
DA:94,2
DA:98,2
DA:99,2
DA:100,2
DA:101,2
DA:102,2
DA:103,1
DA:105,1
DA:107,2
DA:111,2
DA:112,1
DA:113,1
DA:114,2
DA:115,2
DA:116,2
DA:117,2
DA:118,0
DA:119,2
DA:120,2
DA:121,2
DA:122,2
DA:123,2
DA:124,1
DA:125,1
DA:126,2
DA:127,1
DA:128,1
DA:129,2
DA:130,1
DA:131,1
DA:133,2
DA:134,2
DA:135,2
DA:136,2
DA:137,2
DA:138,2
DA:139,2
DA:142,4
DA:144,4
DA:145,0
DA:146,0
DA:147,4
DA:149,4
DA:150,4
DA:151,4
DA:152,4
DA:153,4
DA:156,4
DA:157,4
DA:158,4
DA:159,4
DA:160,4
DA:161,4
DA:162,4
DA:163,4
DA:166,20
DA:167,16
DA:168,16
DA:169,12
DA:170,12
DA:171,16
DA:172,16
DA:173,16
DA:174,16
DA:175,11
DA:176,11
DA:177,16
DA:178,16
DA:179,16
DA:180,16
DA:181,4
DA:182,12
DA:183,16
DA:184,4
DA:185,12
DA:186,16
DA:187,4
DA:188,12
DA:190,16
DA:191,10
DA:192,6
DA:193,6
DA:195,0
DA:198,16
DA:199,16
DA:200,16
DA:201,16
DA:202,16
DA:206,4
DA:207,4
DA:209,4
DA:210,4
DA:217,1
DA:219,1
DA:220,1
DA:223,1
DA:224,1
DA:225,1
DA:228,1
DA:229,1
DA:230,1
DA:233,1
DA:235,1
DA:236,1
BRF:0
BRH:0
LF:131
LH:127
end_of_record
SF:/app/src/tools/highlight.rs
FN:131,_RNCNvMNtNtCsluBEq34Hdgp_6glossa5tools9highlightNtB4_11Highlighter14highlight_expr0B8_
FN:60,_RNCNvNtNtCsluBEq34Hdgp_6glossa5tools9highlight9highlight0B7_
FN:127,_RNvMNtNtCsluBEq34Hdgp_6glossa5tools9highlightNtB2_11Highlighter14highlight_expr
FN:225,_RNvMNtNtCsluBEq34Hdgp_6glossa5tools9highlightNtB2_11Highlighter14highlight_word
FN:276,_RNvMNtNtCsluBEq34Hdgp_6glossa5tools9highlightNtB2_11Highlighter15highlight_binop
FN:117,_RNvMNtNtCsluBEq34Hdgp_6glossa5tools9highlightNtB2_11Highlighter16highlight_clause
FN:77,_RNvMNtNtCsluBEq34Hdgp_6glossa5tools9highlightNtB2_11Highlighter17highlight_program
FN:298,_RNvMNtNtCsluBEq34Hdgp_6glossa5tools9highlightNtB2_11Highlighter18highlight_type_def
FN:87,_RNvMNtNtCsluBEq34Hdgp_6glossa5tools9highlightNtB2_11Highlighter19highlight_statement
FN:333,_RNvMNtNtCsluBEq34Hdgp_6glossa5tools9highlightNtB2_11Highlighter19highlight_test_decl
FN:309,_RNvMNtNtCsluBEq34Hdgp_6glossa5tools9highlightNtB2_11Highlighter19highlight_trait_def
FN:320,_RNvMNtNtCsluBEq34Hdgp_6glossa5tools9highlightNtB2_11Highlighter20highlight_trait_impl
FN:70,_RNvMNtNtCsluBEq34Hdgp_6glossa5tools9highlightNtB2_11Highlighter3new
FN:55,_RNvNtNtCsluBEq34Hdgp_6glossa5tools9highlight9highlight
FN:127,_RNvMNtNtCs4cnvRHYBibt_6glossa5tools9highlightNtB2_11Highlighter14highlight_expr
FN:225,_RNvMNtNtCs4cnvRHYBibt_6glossa5tools9highlightNtB2_11Highlighter14highlight_word
FN:276,_RNvMNtNtCs4cnvRHYBibt_6glossa5tools9highlightNtB2_11Highlighter15highlight_binop
FN:117,_RNvMNtNtCs4cnvRHYBibt_6glossa5tools9highlightNtB2_11Highlighter16highlight_clause
FN:77,_RNvMNtNtCs4cnvRHYBibt_6glossa5tools9highlightNtB2_11Highlighter17highlight_program
FN:298,_RNvMNtNtCs4cnvRHYBibt_6glossa5tools9highlightNtB2_11Highlighter18highlight_type_def
FN:87,_RNvMNtNtCs4cnvRHYBibt_6glossa5tools9highlightNtB2_11Highlighter19highlight_statement
FN:333,_RNvMNtNtCs4cnvRHYBibt_6glossa5tools9highlightNtB2_11Highlighter19highlight_test_decl
FN:309,_RNvMNtNtCs4cnvRHYBibt_6glossa5tools9highlightNtB2_11Highlighter19highlight_trait_def
FN:320,_RNvMNtNtCs4cnvRHYBibt_6glossa5tools9highlightNtB2_11Highlighter20highlight_trait_impl
FN:70,_RNvMNtNtCs4cnvRHYBibt_6glossa5tools9highlightNtB2_11Highlighter3new
FN:55,_RNvNtNtCs4cnvRHYBibt_6glossa5tools9highlight9highlight
FN:131,_RNCNvMNtNtCs4cnvRHYBibt_6glossa5tools9highlightNtB4_11Highlighter14highlight_expr0B8_
FN:60,_RNCNvNtNtCs4cnvRHYBibt_6glossa5tools9highlight9highlight0B7_
FN:453,_RNvNtNtNtCs4cnvRHYBibt_6glossa5tools9highlight5testss_20test_highlight_binop
FN:481,_RNvNtNtNtCs4cnvRHYBibt_6glossa5tools9highlight5testss_20test_highlight_block
FN:833,_RNvNtNtNtCs4cnvRHYBibt_6glossa5tools9highlight5testss_20test_highlight_error
FN:547,_RNvNtNtNtCs4cnvRHYBibt_6glossa5tools9highlight5testss_20test_highlight_query
FN:820,_RNvNtNtNtCs4cnvRHYBibt_6glossa5tools9highlight5testss_21test_highlight_dative
FN:493,_RNvNtNtNtCs4cnvRHYBibt_6glossa5tools9highlight5testss_21test_highlight_phrase
FN:638,_RNvNtNtNtCs4cnvRHYBibt_6glossa5tools9highlight5testss_21test_manual_ast_nodes
FN:442,_RNvNtNtNtCs4cnvRHYBibt_6glossa5tools9highlight5testss_22test_highlight_binding
FN:463,_RNvNtNtNtCs4cnvRHYBibt_6glossa5tools9highlight5testss_23test_highlight_unary_op
FN:556,_RNvNtNtNtCs4cnvRHYBibt_6glossa5tools9highlight5testss_24test_highlight_propagate
FN:565,_RNvNtNtNtCs4cnvRHYBibt_6glossa5tools9highlight5testss_24test_highlight_unary_neg
FN:761,_RNvNtNtNtCs4cnvRHYBibt_6glossa5tools9highlight5testss_25test_highlight_all_binops
FN:507,_RNvNtNtNtCs4cnvRHYBibt_6glossa5tools9highlight5testss_25test_highlight_participle
FN:598,_RNvNtNtNtCs4cnvRHYBibt_6glossa5tools9highlight5testss_25test_highlight_trait_impl
FN:517,_RNvNtNtNtCs4cnvRHYBibt_6glossa5tools9highlight5testss_26test_highlight_definitions
FN:407,_RNvNtNtNtCs4cnvRHYBibt_6glossa5tools9highlight5testss_27test_highlight_index_access
FN:703,_RNvNtNtNtCs4cnvRHYBibt_6glossa5tools9highlight5testss_27test_highlight_pos_variants
FN:396,_RNvNtNtNtCs4cnvRHYBibt_6glossa5tools9highlight5testss_28test_highlight_array_literal
FN:431,_RNvNtNtNtCs4cnvRHYBibt_6glossa5tools9highlight5testss_28test_highlight_function_call
FN:587,_RNvNtNtNtCs4cnvRHYBibt_6glossa5tools9highlight5testss_28test_highlight_nested_phrase
FN:630,_RNvNtNtNtCs4cnvRHYBibt_6glossa5tools9highlight5testss_29test_highlight_complex_nested
FN:378,_RNvNtNtNtCs4cnvRHYBibt_6glossa5tools9highlight5testss_29test_highlight_number_literal
FN:369,_RNvNtNtNtCs4cnvRHYBibt_6glossa5tools9highlight5testss_29test_highlight_string_literal
FN:618,_RNvNtNtNtCs4cnvRHYBibt_6glossa5tools9highlight5testss_30test_highlight_article_context
FN:387,_RNvNtNtNtCs4cnvRHYBibt_6glossa5tools9highlight5testss_30test_highlight_boolean_literal
FN:418,_RNvNtNtNtCs4cnvRHYBibt_6glossa5tools9highlight5testss_30test_highlight_property_access
FN:357,_RNvNtNtNtCs4cnvRHYBibt_6glossa5tools9highlight5testss_30test_highlight_simple_sentence
FN:578,_RNvNtNtNtCs4cnvRHYBibt_6glossa5tools9highlight5testss_31test_highlight_clause_separator
FN:841,_RNvNtNtNtCs4cnvRHYBibt_6glossa5tools9highlight5testss_31test_highlight_string_injection
FN:536,_RNvNtNtNtCs4cnvRHYBibt_6glossa5tools9highlight5testss_31test_highlight_test_declaration
FN:609,_RNvNtNtNtCs4cnvRHYBibt_6glossa5tools9highlight5testss_34test_highlight_multiple_statements
FN:736,_RNvNtNtNtCs4cnvRHYBibt_6glossa5tools9highlight5testss_37test_highlight_definitions_formatting
FN:793,_RNvNtNtNtCs4cnvRHYBibt_6glossa5tools9highlight5testss_37test_highlight_vocative_and_adjective
FNDA:0,_RNCNvMNtNtCsluBEq34Hdgp_6glossa5tools9highlightNtB4_11Highlighter14highlight_expr0B8_
FNDA:0,_RNCNvNtNtCsluBEq34Hdgp_6glossa5tools9highlight9highlight0B7_
FNDA:0,_RNvMNtNtCsluBEq34Hdgp_6glossa5tools9highlightNtB2_11Highlighter14highlight_expr
FNDA:0,_RNvMNtNtCsluBEq34Hdgp_6glossa5tools9highlightNtB2_11Highlighter14highlight_word
FNDA:0,_RNvMNtNtCsluBEq34Hdgp_6glossa5tools9highlightNtB2_11Highlighter15highlight_binop
FNDA:0,_RNvMNtNtCsluBEq34Hdgp_6glossa5tools9highlightNtB2_11Highlighter16highlight_clause
FNDA:9,_RNvMNtNtCsluBEq34Hdgp_6glossa5tools9highlightNtB2_11Highlighter17highlight_program
FNDA:0,_RNvMNtNtCsluBEq34Hdgp_6glossa5tools9highlightNtB2_11Highlighter18highlight_type_def
FNDA:0,_RNvMNtNtCsluBEq34Hdgp_6glossa5tools9highlightNtB2_11Highlighter19highlight_statement
FNDA:0,_RNvMNtNtCsluBEq34Hdgp_6glossa5tools9highlightNtB2_11Highlighter19highlight_test_decl
FNDA:0,_RNvMNtNtCsluBEq34Hdgp_6glossa5tools9highlightNtB2_11Highlighter19highlight_trait_def
FNDA:0,_RNvMNtNtCsluBEq34Hdgp_6glossa5tools9highlightNtB2_11Highlighter20highlight_trait_impl
FNDA:9,_RNvMNtNtCsluBEq34Hdgp_6glossa5tools9highlightNtB2_11Highlighter3new
FNDA:256,_RNvNtNtCsluBEq34Hdgp_6glossa5tools9highlight9highlight
FNDA:183,_RNvMNtNtCs4cnvRHYBibt_6glossa5tools9highlightNtB2_11Highlighter14highlight_expr
FNDA:73,_RNvMNtNtCs4cnvRHYBibt_6glossa5tools9highlightNtB2_11Highlighter14highlight_word
FNDA:14,_RNvMNtNtCs4cnvRHYBibt_6glossa5tools9highlightNtB2_11Highlighter15highlight_binop
FNDA:36,_RNvMNtNtCs4cnvRHYBibt_6glossa5tools9highlightNtB2_11Highlighter16highlight_clause
FNDA:34,_RNvMNtNtCs4cnvRHYBibt_6glossa5tools9highlightNtB2_11Highlighter17highlight_program
FNDA:2,_RNvMNtNtCs4cnvRHYBibt_6glossa5tools9highlightNtB2_11Highlighter18highlight_type_def
FNDA:40,_RNvMNtNtCs4cnvRHYBibt_6glossa5tools9highlightNtB2_11Highlighter19highlight_statement
FNDA:1,_RNvMNtNtCs4cnvRHYBibt_6glossa5tools9highlightNtB2_11Highlighter19highlight_test_decl
FNDA:2,_RNvMNtNtCs4cnvRHYBibt_6glossa5tools9highlightNtB2_11Highlighter19highlight_trait_def
FNDA:0,_RNvMNtNtCs4cnvRHYBibt_6glossa5tools9highlightNtB2_11Highlighter20highlight_trait_impl
FNDA:37,_RNvMNtNtCs4cnvRHYBibt_6glossa5tools9highlightNtB2_11Highlighter3new
FNDA:36,_RNvNtNtCs4cnvRHYBibt_6glossa5tools9highlight9highlight
FNDA:35,_RNCNvMNtNtCs4cnvRHYBibt_6glossa5tools9highlightNtB4_11Highlighter14highlight_expr0B8_
FNDA:0,_RNCNvNtNtCs4cnvRHYBibt_6glossa5tools9highlight9highlight0B7_
FNDA:1,_RNvNtNtNtCs4cnvRHYBibt_6glossa5tools9highlight5testss_20test_highlight_binop
FNDA:1,_RNvNtNtNtCs4cnvRHYBibt_6glossa5tools9highlight5testss_20test_highlight_block
FNDA:1,_RNvNtNtNtCs4cnvRHYBibt_6glossa5tools9highlight5testss_20test_highlight_error
FNDA:1,_RNvNtNtNtCs4cnvRHYBibt_6glossa5tools9highlight5testss_20test_highlight_query
FNDA:1,_RNvNtNtNtCs4cnvRHYBibt_6glossa5tools9highlight5testss_21test_highlight_dative
FNDA:1,_RNvNtNtNtCs4cnvRHYBibt_6glossa5tools9highlight5testss_21test_highlight_phrase
FNDA:1,_RNvNtNtNtCs4cnvRHYBibt_6glossa5tools9highlight5testss_21test_manual_ast_nodes
FNDA:1,_RNvNtNtNtCs4cnvRHYBibt_6glossa5tools9highlight5testss_22test_highlight_binding
FNDA:1,_RNvNtNtNtCs4cnvRHYBibt_6glossa5tools9highlight5testss_23test_highlight_unary_op
FNDA:1,_RNvNtNtNtCs4cnvRHYBibt_6glossa5tools9highlight5testss_24test_highlight_propagate
FNDA:1,_RNvNtNtNtCs4cnvRHYBibt_6glossa5tools9highlight5testss_24test_highlight_unary_neg
FNDA:1,_RNvNtNtNtCs4cnvRHYBibt_6glossa5tools9highlight5testss_25test_highlight_all_binops
FNDA:1,_RNvNtNtNtCs4cnvRHYBibt_6glossa5tools9highlight5testss_25test_highlight_participle
FNDA:1,_RNvNtNtNtCs4cnvRHYBibt_6glossa5tools9highlight5testss_25test_highlight_trait_impl
FNDA:1,_RNvNtNtNtCs4cnvRHYBibt_6glossa5tools9highlight5testss_26test_highlight_definitions
FNDA:1,_RNvNtNtNtCs4cnvRHYBibt_6glossa5tools9highlight5testss_27test_highlight_index_access
FNDA:1,_RNvNtNtNtCs4cnvRHYBibt_6glossa5tools9highlight5testss_27test_highlight_pos_variants
FNDA:1,_RNvNtNtNtCs4cnvRHYBibt_6glossa5tools9highlight5testss_28test_highlight_array_literal
FNDA:1,_RNvNtNtNtCs4cnvRHYBibt_6glossa5tools9highlight5testss_28test_highlight_function_call
FNDA:1,_RNvNtNtNtCs4cnvRHYBibt_6glossa5tools9highlight5testss_28test_highlight_nested_phrase
FNDA:1,_RNvNtNtNtCs4cnvRHYBibt_6glossa5tools9highlight5testss_29test_highlight_complex_nested
FNDA:1,_RNvNtNtNtCs4cnvRHYBibt_6glossa5tools9highlight5testss_29test_highlight_number_literal
FNDA:1,_RNvNtNtNtCs4cnvRHYBibt_6glossa5tools9highlight5testss_29test_highlight_string_literal
FNDA:1,_RNvNtNtNtCs4cnvRHYBibt_6glossa5tools9highlight5testss_30test_highlight_article_context
FNDA:1,_RNvNtNtNtCs4cnvRHYBibt_6glossa5tools9highlight5testss_30test_highlight_boolean_literal
FNDA:1,_RNvNtNtNtCs4cnvRHYBibt_6glossa5tools9highlight5testss_30test_highlight_property_access
FNDA:1,_RNvNtNtNtCs4cnvRHYBibt_6glossa5tools9highlight5testss_30test_highlight_simple_sentence
FNDA:1,_RNvNtNtNtCs4cnvRHYBibt_6glossa5tools9highlight5testss_31test_highlight_clause_separator
FNDA:1,_RNvNtNtNtCs4cnvRHYBibt_6glossa5tools9highlight5testss_31test_highlight_string_injection
FNDA:1,_RNvNtNtNtCs4cnvRHYBibt_6glossa5tools9highlight5testss_31test_highlight_test_declaration
FNDA:1,_RNvNtNtNtCs4cnvRHYBibt_6glossa5tools9highlight5testss_34test_highlight_multiple_statements
FNDA:1,_RNvNtNtNtCs4cnvRHYBibt_6glossa5tools9highlight5testss_37test_highlight_definitions_formatting
FNDA:1,_RNvNtNtNtCs4cnvRHYBibt_6glossa5tools9highlight5testss_37test_highlight_vocative_and_adjective
FNF:47
FNH:45
DA:55,292
DA:56,292
DA:57,43
DA:58,43
DA:59,43
DA:60,43
DA:61,43
DA:62,292
DA:70,46
DA:71,46
DA:72,46
DA:73,46
DA:74,46
DA:75,46
DA:77,43
DA:78,43
DA:79,35
DA:80,1
DA:81,34
DA:82,35
DA:84,43
DA:85,43
DA:87,40
DA:88,40
DA:90,35
DA:91,35
DA:92,35
DA:94,36
DA:95,36
DA:96,1
DA:97,35
DA:98,36
DA:101,35
DA:102,1
DA:103,34
DA:104,1
DA:105,33
DA:106,33
DA:107,33
DA:109,2
DA:110,2
DA:111,0
DA:112,1
DA:114,40
DA:115,40
DA:117,36
DA:118,36
DA:119,36
DA:120,0
DA:121,36
DA:122,36
DA:124,36
DA:125,36
DA:127,183
DA:128,183
DA:129,7
DA:131,35
DA:132,7
DA:134,46
DA:135,46
DA:137,4
DA:138,4
DA:139,4
DA:141,67
DA:142,32
DA:143,86
DA:144,86
DA:145,54
DA:146,54
DA:147,86
DA:150,1
DA:151,1
DA:152,1
DA:153,1
DA:155,1
DA:157,1
DA:159,2
DA:160,1
DA:161,1
DA:164,1
DA:165,1
DA:166,1
DA:167,1
DA:168,1
DA:169,1
DA:171,14
DA:172,14
DA:173,14
DA:174,14
DA:175,14
DA:176,14
DA:178,3
DA:179,3
DA:181,1
DA:182,1
DA:185,1
DA:186,1
DA:187,1
DA:190,1
DA:191,1
DA:195,4
DA:196,4
DA:197,4
DA:198,4
DA:199,0
DA:200,4
DA:201,4
DA:203,4
DA:205,2
DA:206,2
DA:207,5
DA:208,5
DA:209,3
DA:210,3
DA:211,5
DA:213,2
DA:215,1
DA:216,1
DA:217,1
DA:218,1
DA:219,1
DA:222,183
DA:223,183
DA:225,73
DA:227,73
DA:228,7
DA:229,7
DA:230,7
DA:231,66
DA:234,66
DA:235,66
DA:237,66
DA:238,4
DA:239,4
DA:240,62
DA:243,62
DA:244,62
DA:247,62
DA:248,28
DA:249,34
DA:250,34
DA:251,34
DA:252,34
DA:255,62
DA:256,28
DA:257,24
DA:258,20
DA:259,0
DA:260,1
DA:261,2
DA:262,1
DA:263,0
DA:265,0
DA:266,1
DA:267,2
DA:268,3
DA:269,4
DA:272,62
DA:273,62
DA:274,73
DA:276,14
DA:277,14
DA:278,2
DA:279,1
DA:280,1
DA:281,1
DA:282,1
DA:283,1
DA:284,1
DA:285,1
DA:286,1
DA:287,1
DA:288,1
DA:289,1
DA:290,1
DA:292,14
DA:293,14
DA:294,14
DA:298,2
DA:299,2
DA:300,2
DA:301,2
DA:302,2
DA:303,2
DA:304,2
DA:305,0
DA:306,2
DA:307,2
DA:309,2
DA:310,2
DA:311,2
DA:312,2
DA:313,2
DA:314,2
DA:315,2
DA:316,0
DA:317,2
DA:318,2
DA:320,0
DA:321,0
DA:322,0
DA:323,0
DA:324,0
DA:325,0
DA:326,0
DA:327,0
DA:329,0
DA:330,0
DA:331,0
DA:333,1
DA:334,1
DA:335,1
DA:336,1
DA:337,1
DA:338,1
DA:339,0
DA:341,2
DA:342,1
DA:343,1
DA:344,1
DA:347,1
DA:348,1
DA:349,1
DA:357,1
DA:358,1
DA:359,1
DA:360,1
DA:364,1
DA:365,1
DA:366,1
DA:369,1
DA:370,1
DA:371,1
DA:372,1
DA:374,1
DA:375,1
DA:378,1
DA:379,1
DA:380,1
DA:381,1
DA:383,1
DA:384,1
DA:387,1
DA:388,1
DA:389,1
DA:390,1
DA:392,1
DA:393,1
DA:396,1
DA:397,1
DA:398,1
DA:399,1
DA:400,1
DA:401,1
DA:402,1
DA:403,1
DA:404,1
DA:407,1
DA:408,1
DA:409,1
DA:410,1
DA:411,1
DA:412,1
DA:413,1
DA:414,1
DA:415,1
DA:418,1
DA:419,1
DA:420,1
DA:421,1
DA:422,1
DA:426,1
DA:427,1
DA:428,1
DA:431,1
DA:432,1
DA:433,1
DA:434,1
DA:435,1
DA:437,1
DA:438,1
DA:439,1
DA:442,1
DA:443,1
DA:444,1
DA:445,1
DA:446,1
DA:447,1
DA:448,1
DA:449,1
DA:450,1
DA:453,1
DA:454,1
DA:455,1
DA:456,1
DA:457,1
DA:459,1
DA:460,1
DA:463,1
DA:465,1
DA:466,1
DA:467,1
DA:468,1
DA:469,1
DA:470,1
DA:473,1
DA:474,1
DA:475,1
DA:476,1
DA:477,1
DA:478,1
DA:481,1
DA:483,1
DA:484,1
DA:485,1
DA:486,1
DA:487,1
DA:488,1
DA:489,1
DA:490,1
DA:493,1
DA:497,1
DA:498,1
DA:499,1
DA:500,1
DA:501,1
DA:502,1
DA:503,1
DA:504,1
DA:507,1
DA:508,1
DA:509,1
DA:510,1
DA:511,1
DA:513,1
DA:514,1
DA:517,1
DA:519,1
DA:520,1
DA:521,1
DA:522,1
DA:523,1
DA:524,1
DA:527,1
DA:528,1
DA:529,1
DA:530,1
DA:531,1
DA:532,1
DA:533,1
DA:536,1
DA:537,1
DA:538,1
DA:539,1
DA:540,1
DA:541,1
DA:542,1
DA:543,1
DA:544,1
DA:547,1
DA:548,1
DA:549,1
DA:550,1
DA:551,1
DA:552,1
DA:553,1
DA:556,1
DA:557,1
DA:558,1
DA:559,1
DA:560,1
DA:561,1
DA:562,1
DA:565,1
DA:567,1
DA:568,1
DA:571,1
DA:572,0
DA:573,0
DA:574,1
DA:575,1
DA:578,1
DA:579,1
DA:580,1
DA:581,1
DA:582,1
DA:583,1
DA:584,1
DA:587,1
DA:589,1
DA:590,1
DA:591,1
DA:592,1
DA:593,1
DA:594,1
DA:595,1
DA:598,1
DA:599,1
DA:600,1
DA:601,1
DA:602,1
DA:603,1
DA:604,1
DA:605,1
DA:606,1
DA:609,1
DA:610,1
DA:611,1
DA:612,1
DA:613,1
DA:614,1
DA:615,1
DA:618,1
DA:619,1
DA:620,1
DA:621,1
DA:622,1
DA:626,1
DA:627,1
DA:630,1
DA:632,1
DA:633,1
DA:634,1
DA:635,1
DA:638,1
DA:641,1
DA:644,1
DA:645,1
DA:646,1
DA:647,1
DA:648,1
DA:649,1
DA:650,1
DA:651,1
DA:654,1
DA:655,1
DA:656,1
DA:657,1
DA:658,1
DA:659,1
DA:660,1
DA:661,1
DA:664,1
DA:665,1
DA:666,1
DA:667,1
DA:668,1
DA:669,1
DA:670,1
DA:671,1
DA:674,1
DA:675,1
DA:676,1
DA:677,1
DA:678,1
DA:679,1
DA:680,1
DA:681,1
DA:684,1
DA:685,1
DA:686,1
DA:687,1
DA:688,1
DA:689,1
DA:690,1
DA:693,1
DA:694,1
DA:695,1
DA:696,1
DA:697,1
DA:698,1
DA:699,1
DA:700,1
DA:703,1
DA:705,1
DA:708,1
DA:709,1
DA:713,1
DA:714,1
DA:717,1
DA:718,1
DA:719,1
DA:720,1
DA:723,1
DA:724,1
DA:725,1
DA:726,1
DA:729,1
DA:730,1
DA:731,1
DA:732,1
DA:733,1
DA:736,1
DA:739,1
DA:740,1
DA:742,1
DA:743,1
DA:746,1
DA:747,1
DA:748,1
DA:751,1
DA:752,1
DA:756,1
DA:757,1
DA:758,1
DA:761,1
DA:762,1
DA:763,1
DA:764,1
DA:765,1
DA:766,1
DA:767,1
DA:768,1
DA:769,1
DA:770,1
DA:771,1
DA:772,1
DA:773,1
DA:774,1
DA:775,1
DA:776,1
DA:777,1
DA:779,14
DA:780,13
DA:781,13
DA:782,13
DA:783,13
DA:784,13
DA:785,13
DA:786,13
DA:788,13
DA:790,1
DA:793,1
DA:795,1
DA:796,1
DA:797,1
DA:798,1
DA:799,1
DA:802,1
DA:810,1
DA:811,1
DA:812,1
DA:813,1
DA:814,1
DA:816,1
DA:817,1
DA:820,1
DA:823,1
DA:824,1
DA:825,1
DA:826,1
DA:827,1
DA:829,1
DA:830,1
DA:833,1
DA:835,1
DA:836,1
DA:837,1
DA:838,1
DA:841,1
DA:843,1
DA:844,1
DA:847,1
DA:848,1
DA:849,0
DA:853,1
DA:854,1
DA:855,0
DA:857,1
BRF:0
BRH:0
LF:571
LH:546
end_of_record
SF:/app/src/tools/interpreter.rs
FN:229,_RNvMs0_NtNtCsluBEq34Hdgp_6glossa5tools11interpreterNtB5_11Interpreter10assign_var
FN:222,_RNvMs0_NtNtCsluBEq34Hdgp_6glossa5tools11interpreterNtB5_11Interpreter10define_var
FN:131,_RNvMs0_NtNtCsluBEq34Hdgp_6glossa5tools11interpreterNtB5_11Interpreter10get_output
FN:240,_RNvMs0_NtNtCsluBEq34Hdgp_6glossa5tools11interpreterNtB5_11Interpreter10lookup_var
FN:183,_RNvMs0_NtNtCsluBEq34Hdgp_6glossa5tools11interpreterNtB5_11Interpreter11eval_bin_op
FN:214,_RNvMs0_NtNtCsluBEq34Hdgp_6glossa5tools11interpreterNtB5_11Interpreter13eval_unary_op
FN:135,_RNvMs0_NtNtCsluBEq34Hdgp_6glossa5tools11interpreterNtB5_11Interpreter14eval_statement
FN:115,_RNvMs0_NtNtCsluBEq34Hdgp_6glossa5tools11interpreterNtB5_11Interpreter3new
FN:123,_RNvMs0_NtNtCsluBEq34Hdgp_6glossa5tools11interpreterNtB5_11Interpreter3run
FN:164,_RNvMs0_NtNtCsluBEq34Hdgp_6glossa5tools11interpreterNtB5_11Interpreter9eval_expr
FN:34,_RNvXNtNtCsluBEq34Hdgp_6glossa5tools11interpreterNtB2_5ValueNtNtCs3XFJfFEDSOQ_4core3fmt7Display3fmt
FN:96,_RNvXs_NtNtCsluBEq34Hdgp_6glossa5tools11interpreterNtB4_11InterpreterNtNtCs3XFJfFEDSOQ_4core7default7Default7default
FN:96,_RNvXs_NtNtCs4cnvRHYBibt_6glossa5tools11interpreterNtB4_11InterpreterNtNtCs3XFJfFEDSOQ_4core7default7Default7default
FN:256,_RNvNtNtNtCs4cnvRHYBibt_6glossa5tools11interpreter5tests8run_code
FN:290,_RNvNtNtNtCs4cnvRHYBibt_6glossa5tools11interpreter5testss_18test_boolean_logic
FN:265,_RNvNtNtNtCs4cnvRHYBibt_6glossa5tools11interpreter5testss_18test_eval_literals
FN:271,_RNvNtNtNtCs4cnvRHYBibt_6glossa5tools11interpreter5testss_20test_eval_arithmetic
FN:296,_RNvNtNtNtCs4cnvRHYBibt_6glossa5tools11interpreter5testss_21test_division_by_zero
FN:277,_RNvNtNtNtCs4cnvRHYBibt_6glossa5tools11interpreter5testss_21test_variable_binding
FN:283,_RNvNtNtNtCs4cnvRHYBibt_6glossa5tools11interpreter5testss_24test_variable_assignment
FN:229,_RNvMs0_NtNtCs4cnvRHYBibt_6glossa5tools11interpreterNtB5_11Interpreter10assign_var
FN:222,_RNvMs0_NtNtCs4cnvRHYBibt_6glossa5tools11interpreterNtB5_11Interpreter10define_var
FN:131,_RNvMs0_NtNtCs4cnvRHYBibt_6glossa5tools11interpreterNtB5_11Interpreter10get_output
FN:240,_RNvMs0_NtNtCs4cnvRHYBibt_6glossa5tools11interpreterNtB5_11Interpreter10lookup_var
FN:183,_RNvMs0_NtNtCs4cnvRHYBibt_6glossa5tools11interpreterNtB5_11Interpreter11eval_bin_op
FN:214,_RNvMs0_NtNtCs4cnvRHYBibt_6glossa5tools11interpreterNtB5_11Interpreter13eval_unary_op
FN:135,_RNvMs0_NtNtCs4cnvRHYBibt_6glossa5tools11interpreterNtB5_11Interpreter14eval_statement
FN:115,_RNvMs0_NtNtCs4cnvRHYBibt_6glossa5tools11interpreterNtB5_11Interpreter3new
FN:123,_RNvMs0_NtNtCs4cnvRHYBibt_6glossa5tools11interpreterNtB5_11Interpreter3run
FN:164,_RNvMs0_NtNtCs4cnvRHYBibt_6glossa5tools11interpreterNtB5_11Interpreter9eval_expr
FN:34,_RNvXNtNtCs4cnvRHYBibt_6glossa5tools11interpreterNtB2_5ValueNtNtCs3XFJfFEDSOQ_4core3fmt7Display3fmt
FNDA:0,_RNvMs0_NtNtCsluBEq34Hdgp_6glossa5tools11interpreterNtB5_11Interpreter10assign_var
FNDA:0,_RNvMs0_NtNtCsluBEq34Hdgp_6glossa5tools11interpreterNtB5_11Interpreter10define_var
FNDA:1,_RNvMs0_NtNtCsluBEq34Hdgp_6glossa5tools11interpreterNtB5_11Interpreter10get_output
FNDA:0,_RNvMs0_NtNtCsluBEq34Hdgp_6glossa5tools11interpreterNtB5_11Interpreter10lookup_var
FNDA:0,_RNvMs0_NtNtCsluBEq34Hdgp_6glossa5tools11interpreterNtB5_11Interpreter11eval_bin_op
FNDA:0,_RNvMs0_NtNtCsluBEq34Hdgp_6glossa5tools11interpreterNtB5_11Interpreter13eval_unary_op
FNDA:0,_RNvMs0_NtNtCsluBEq34Hdgp_6glossa5tools11interpreterNtB5_11Interpreter14eval_statement
FNDA:1,_RNvMs0_NtNtCsluBEq34Hdgp_6glossa5tools11interpreterNtB5_11Interpreter3new
FNDA:0,_RNvMs0_NtNtCsluBEq34Hdgp_6glossa5tools11interpreterNtB5_11Interpreter3run
FNDA:0,_RNvMs0_NtNtCsluBEq34Hdgp_6glossa5tools11interpreterNtB5_11Interpreter9eval_expr
FNDA:0,_RNvXNtNtCsluBEq34Hdgp_6glossa5tools11interpreterNtB2_5ValueNtNtCs3XFJfFEDSOQ_4core3fmt7Display3fmt
FNDA:0,_RNvXs_NtNtCsluBEq34Hdgp_6glossa5tools11interpreterNtB4_11InterpreterNtNtCs3XFJfFEDSOQ_4core7default7Default7default
FNDA:0,_RNvXs_NtNtCs4cnvRHYBibt_6glossa5tools11interpreterNtB4_11InterpreterNtNtCs3XFJfFEDSOQ_4core7default7Default7default
FNDA:5,_RNvNtNtNtCs4cnvRHYBibt_6glossa5tools11interpreter5tests8run_code
FNDA:1,_RNvNtNtNtCs4cnvRHYBibt_6glossa5tools11interpreter5testss_18test_boolean_logic
FNDA:1,_RNvNtNtNtCs4cnvRHYBibt_6glossa5tools11interpreter5testss_18test_eval_literals
FNDA:1,_RNvNtNtNtCs4cnvRHYBibt_6glossa5tools11interpreter5testss_20test_eval_arithmetic
FNDA:1,_RNvNtNtNtCs4cnvRHYBibt_6glossa5tools11interpreter5testss_21test_division_by_zero
FNDA:1,_RNvNtNtNtCs4cnvRHYBibt_6glossa5tools11interpreter5testss_21test_variable_binding
FNDA:1,_RNvNtNtNtCs4cnvRHYBibt_6glossa5tools11interpreter5testss_24test_variable_assignment
FNDA:1,_RNvMs0_NtNtCs4cnvRHYBibt_6glossa5tools11interpreterNtB5_11Interpreter10assign_var
FNDA:2,_RNvMs0_NtNtCs4cnvRHYBibt_6glossa5tools11interpreterNtB5_11Interpreter10define_var
FNDA:5,_RNvMs0_NtNtCs4cnvRHYBibt_6glossa5tools11interpreterNtB5_11Interpreter10get_output
FNDA:2,_RNvMs0_NtNtCs4cnvRHYBibt_6glossa5tools11interpreterNtB5_11Interpreter10lookup_var
FNDA:2,_RNvMs0_NtNtCs4cnvRHYBibt_6glossa5tools11interpreterNtB5_11Interpreter11eval_bin_op
FNDA:0,_RNvMs0_NtNtCs4cnvRHYBibt_6glossa5tools11interpreterNtB5_11Interpreter13eval_unary_op
FNDA:9,_RNvMs0_NtNtCs4cnvRHYBibt_6glossa5tools11interpreterNtB5_11Interpreter14eval_statement
FNDA:6,_RNvMs0_NtNtCs4cnvRHYBibt_6glossa5tools11interpreterNtB5_11Interpreter3new
FNDA:6,_RNvMs0_NtNtCs4cnvRHYBibt_6glossa5tools11interpreterNtB5_11Interpreter3run
FNDA:13,_RNvMs0_NtNtCs4cnvRHYBibt_6glossa5tools11interpreterNtB5_11Interpreter9eval_expr
FNDA:5,_RNvXNtNtCs4cnvRHYBibt_6glossa5tools11interpreterNtB2_5ValueNtNtCs3XFJfFEDSOQ_4core3fmt7Display3fmt
FNF:19
FNH:17
DA:34,5
DA:35,5
DA:36,3
DA:37,1
DA:38,1
DA:39,0
DA:41,5
DA:96,0
DA:97,0
DA:98,0
DA:115,7
DA:116,7
DA:117,7
DA:118,7
DA:119,7
DA:120,7
DA:123,6
DA:124,14
DA:125,9
DA:127,5
DA:128,6
DA:131,6
DA:132,6
DA:133,6
DA:135,9
DA:136,9
DA:137,2
DA:138,2
DA:139,2
DA:141,1
DA:142,1
DA:143,1
DA:145,6
DA:146,6
DA:147,11
DA:148,6
DA:150,5
DA:151,5
DA:152,5
DA:154,0
DA:155,0
DA:156,0
DA:159,0
DA:161,8
DA:162,9
DA:164,13
DA:165,13
DA:166,7
DA:167,1
DA:168,1
DA:169,2
DA:170,2
DA:171,2
DA:172,2
DA:173,2
DA:175,0
DA:176,0
DA:177,0
DA:179,0
DA:181,13
DA:183,2
DA:184,2
DA:186,1
DA:187,0
DA:188,0
DA:189,1
DA:190,1
DA:191,1
DA:192,0
DA:193,0
DA:197,0
DA:198,0
DA:199,0
DA:200,0
DA:203,0
DA:204,0
DA:206,0
DA:207,0
DA:208,0
DA:209,0
DA:210,0
DA:212,2
DA:214,0
DA:215,0
DA:216,0
DA:217,0
DA:218,0
DA:220,0
DA:222,2
DA:224,2
DA:225,2
DA:226,2
DA:227,2
DA:229,1
DA:231,1
DA:232,1
DA:233,1
DA:234,1
DA:235,0
DA:237,0
DA:238,1
DA:240,2
DA:241,2
DA:242,2
DA:243,2
DA:244,0
DA:246,0
DA:247,2
DA:256,5
DA:257,5
DA:258,5
DA:259,5
DA:260,5
DA:261,5
DA:262,5
DA:265,1
DA:266,1
DA:267,1
DA:268,1
DA:271,1
DA:272,1
DA:273,1
DA:274,1
DA:277,1
DA:278,1
DA:279,1
DA:280,1
DA:283,1
DA:285,1
DA:286,1
DA:287,1
DA:290,1
DA:291,1
DA:292,1
DA:293,1
DA:296,1
DA:297,1
DA:298,1
DA:299,1
DA:300,1
DA:301,1
DA:302,1
DA:303,1
BRF:0
BRH:0
LF:143
LH:106
end_of_record
SF:/app/src/tools/mentor.rs
FN:168,_RINvNtNtCsluBEq34Hdgp_6glossa5tools6mentor12print_bannerNtNtNtCsHIej2QEFI5_3std2io5stdio6StdoutEB6_
FN:176,_RINvNtNtCsluBEq34Hdgp_6glossa5tools6mentor12print_lessonNtNtNtCsHIej2QEFI5_3std2io5stdio6StdoutEB6_
FN:92,_RINvNtNtCsluBEq34Hdgp_6glossa5tools6mentor16run_mentor_innerNtNtNtCsHIej2QEFI5_3std2io5stdio9StdinLockNtBY_6StdoutEB6_
FN:62,_RNCNCNCNvNtNtCsluBEq34Hdgp_6glossa5tools6mentor7LESSONSs_000Bb_
FN:43,_RNCNCNvNtNtCsluBEq34Hdgp_6glossa5tools6mentor7LESSONS00B9_
FN:48,_RNCNCNvNtNtCsluBEq34Hdgp_6glossa5tools6mentor7LESSONS0s_0B9_
FN:77,_RNCNCNvNtNtCsluBEq34Hdgp_6glossa5tools6mentor7LESSONSs0_00B9_
FN:58,_RNCNCNvNtNtCsluBEq34Hdgp_6glossa5tools6mentor7LESSONSs_00B9_
FN:164,_RNCNvNtNtCsluBEq34Hdgp_6glossa5tools6mentor18process_submission0B7_
FN:165,_RNCNvNtNtCsluBEq34Hdgp_6glossa5tools6mentor18process_submissions_0B7_
FN:38,_RNCNvNtNtCsluBEq34Hdgp_6glossa5tools6mentor7LESSONS0B7_
FN:73,_RNCNvNtNtCsluBEq34Hdgp_6glossa5tools6mentor7LESSONSs0_0B7_
FN:56,_RNCNvNtNtCsluBEq34Hdgp_6glossa5tools6mentor7LESSONSs_0B7_
FN:86,_RNvNtNtCsluBEq34Hdgp_6glossa5tools6mentor10run_mentor
FN:163,_RNvNtNtCsluBEq34Hdgp_6glossa5tools6mentor18process_submission
FN:86,_RNvNtNtCs4cnvRHYBibt_6glossa5tools6mentor10run_mentor
FN:288,_RNvNtNtNtCs4cnvRHYBibt_6glossa5tools6mentor5testss_15test_mentor_eof
FN:322,_RNvNtNtNtCs4cnvRHYBibt_6glossa5tools6mentor5testss_23test_mentor_empty_input
FN:277,_RNvNtNtNtCs4cnvRHYBibt_6glossa5tools6mentor5testss_24test_mentor_quit_command
FN:265,_RNvNtNtNtCs4cnvRHYBibt_6glossa5tools6mentor5testss_24test_mentor_skip_command
FN:298,_RNvNtNtNtCs4cnvRHYBibt_6glossa5tools6mentor5testss_24test_mentor_syntax_error
FN:211,_RNvNtNtNtCs4cnvRHYBibt_6glossa5tools6mentor5testss_26test_lesson_1_verification
FN:227,_RNvNtNtNtCs4cnvRHYBibt_6glossa5tools6mentor5testss_26test_lesson_2_verification
FN:253,_RNvNtNtNtCs4cnvRHYBibt_6glossa5tools6mentor5testss_26test_lesson_3_verification
FN:239,_RNvNtNtNtCs4cnvRHYBibt_6glossa5tools6mentor5testss_26test_run_mentor_inner_flow
FN:310,_RNvNtNtNtCs4cnvRHYBibt_6glossa5tools6mentor5testss_28test_mentor_semantic_failure
FN:163,_RNvNtNtCs4cnvRHYBibt_6glossa5tools6mentor18process_submission
FN:168,_RINvNtNtCs4cnvRHYBibt_6glossa5tools6mentor12print_bannerINtNtCsgag4BwXrjBQ_5alloc3vec3VechEEB6_
FN:176,_RINvNtNtCs4cnvRHYBibt_6glossa5tools6mentor12print_lessonINtNtCsgag4BwXrjBQ_5alloc3vec3VechEEB6_
FN:92,_RINvNtNtCs4cnvRHYBibt_6glossa5tools6mentor16run_mentor_innerINtNtNtCsHIej2QEFI5_3std2io6cursor6CursorReEINtNtCsgag4BwXrjBQ_5alloc3vec3VechEEB6_
FN:62,_RNCNCNCNvNtNtCs4cnvRHYBibt_6glossa5tools6mentor7LESSONSs_000Bb_
FN:43,_RNCNCNvNtNtCs4cnvRHYBibt_6glossa5tools6mentor7LESSONS00B9_
FN:48,_RNCNCNvNtNtCs4cnvRHYBibt_6glossa5tools6mentor7LESSONS0s_0B9_
FN:77,_RNCNCNvNtNtCs4cnvRHYBibt_6glossa5tools6mentor7LESSONSs0_00B9_
FN:58,_RNCNCNvNtNtCs4cnvRHYBibt_6glossa5tools6mentor7LESSONSs_00B9_
FN:164,_RNCNvNtNtCs4cnvRHYBibt_6glossa5tools6mentor18process_submission0B7_
FN:165,_RNCNvNtNtCs4cnvRHYBibt_6glossa5tools6mentor18process_submissions_0B7_
FN:38,_RNCNvNtNtCs4cnvRHYBibt_6glossa5tools6mentor7LESSONS0B7_
FN:73,_RNCNvNtNtCs4cnvRHYBibt_6glossa5tools6mentor7LESSONSs0_0B7_
FN:56,_RNCNvNtNtCs4cnvRHYBibt_6glossa5tools6mentor7LESSONSs_0B7_
FNDA:0,_RINvNtNtCsluBEq34Hdgp_6glossa5tools6mentor12print_bannerNtNtNtCsHIej2QEFI5_3std2io5stdio6StdoutEB6_
FNDA:0,_RINvNtNtCsluBEq34Hdgp_6glossa5tools6mentor12print_lessonNtNtNtCsHIej2QEFI5_3std2io5stdio6StdoutEB6_
FNDA:0,_RINvNtNtCsluBEq34Hdgp_6glossa5tools6mentor16run_mentor_innerNtNtNtCsHIej2QEFI5_3std2io5stdio9StdinLockNtBY_6StdoutEB6_
FNDA:0,_RNCNCNCNvNtNtCsluBEq34Hdgp_6glossa5tools6mentor7LESSONSs_000Bb_
FNDA:0,_RNCNCNvNtNtCsluBEq34Hdgp_6glossa5tools6mentor7LESSONS00B9_
FNDA:0,_RNCNCNvNtNtCsluBEq34Hdgp_6glossa5tools6mentor7LESSONS0s_0B9_
FNDA:0,_RNCNCNvNtNtCsluBEq34Hdgp_6glossa5tools6mentor7LESSONSs0_00B9_
FNDA:0,_RNCNCNvNtNtCsluBEq34Hdgp_6glossa5tools6mentor7LESSONSs_00B9_
FNDA:0,_RNCNvNtNtCsluBEq34Hdgp_6glossa5tools6mentor18process_submission0B7_
FNDA:0,_RNCNvNtNtCsluBEq34Hdgp_6glossa5tools6mentor18process_submissions_0B7_
FNDA:0,_RNCNvNtNtCsluBEq34Hdgp_6glossa5tools6mentor7LESSONS0B7_
FNDA:0,_RNCNvNtNtCsluBEq34Hdgp_6glossa5tools6mentor7LESSONSs0_0B7_
FNDA:0,_RNCNvNtNtCsluBEq34Hdgp_6glossa5tools6mentor7LESSONSs_0B7_
FNDA:0,_RNvNtNtCsluBEq34Hdgp_6glossa5tools6mentor10run_mentor
FNDA:0,_RNvNtNtCsluBEq34Hdgp_6glossa5tools6mentor18process_submission
FNDA:0,_RNvNtNtCs4cnvRHYBibt_6glossa5tools6mentor10run_mentor
FNDA:1,_RNvNtNtNtCs4cnvRHYBibt_6glossa5tools6mentor5testss_15test_mentor_eof
FNDA:1,_RNvNtNtNtCs4cnvRHYBibt_6glossa5tools6mentor5testss_23test_mentor_empty_input
FNDA:1,_RNvNtNtNtCs4cnvRHYBibt_6glossa5tools6mentor5testss_24test_mentor_quit_command
FNDA:1,_RNvNtNtNtCs4cnvRHYBibt_6glossa5tools6mentor5testss_24test_mentor_skip_command
FNDA:1,_RNvNtNtNtCs4cnvRHYBibt_6glossa5tools6mentor5testss_24test_mentor_syntax_error
FNDA:1,_RNvNtNtNtCs4cnvRHYBibt_6glossa5tools6mentor5testss_26test_lesson_1_verification
FNDA:1,_RNvNtNtNtCs4cnvRHYBibt_6glossa5tools6mentor5testss_26test_lesson_2_verification
FNDA:1,_RNvNtNtNtCs4cnvRHYBibt_6glossa5tools6mentor5testss_26test_lesson_3_verification
FNDA:1,_RNvNtNtNtCs4cnvRHYBibt_6glossa5tools6mentor5testss_26test_run_mentor_inner_flow
FNDA:1,_RNvNtNtNtCs4cnvRHYBibt_6glossa5tools6mentor5testss_28test_mentor_semantic_failure
FNDA:10,_RNvNtNtCs4cnvRHYBibt_6glossa5tools6mentor18process_submission
FNDA:7,_RINvNtNtCs4cnvRHYBibt_6glossa5tools6mentor12print_bannerINtNtCsgag4BwXrjBQ_5alloc3vec3VechEEB6_
FNDA:9,_RINvNtNtCs4cnvRHYBibt_6glossa5tools6mentor12print_lessonINtNtCsgag4BwXrjBQ_5alloc3vec3VechEEB6_
FNDA:7,_RINvNtNtCs4cnvRHYBibt_6glossa5tools6mentor16run_mentor_innerINtNtNtCsHIej2QEFI5_3std2io6cursor6CursorReEINtNtCsgag4BwXrjBQ_5alloc3vec3VechEEB6_
FNDA:1,_RNCNCNCNvNtNtCs4cnvRHYBibt_6glossa5tools6mentor7LESSONSs_000Bb_
FNDA:3,_RNCNCNvNtNtCs4cnvRHYBibt_6glossa5tools6mentor7LESSONS00B9_
FNDA:0,_RNCNCNvNtNtCs4cnvRHYBibt_6glossa5tools6mentor7LESSONS0s_0B9_
FNDA:2,_RNCNCNvNtNtCs4cnvRHYBibt_6glossa5tools6mentor7LESSONSs0_00B9_
FNDA:2,_RNCNCNvNtNtCs4cnvRHYBibt_6glossa5tools6mentor7LESSONSs_00B9_
FNDA:1,_RNCNvNtNtCs4cnvRHYBibt_6glossa5tools6mentor18process_submission0B7_
FNDA:0,_RNCNvNtNtCs4cnvRHYBibt_6glossa5tools6mentor18process_submissions_0B7_
FNDA:5,_RNCNvNtNtCs4cnvRHYBibt_6glossa5tools6mentor7LESSONS0B7_
FNDA:2,_RNCNvNtNtCs4cnvRHYBibt_6glossa5tools6mentor7LESSONSs0_0B7_
FNDA:2,_RNCNvNtNtCs4cnvRHYBibt_6glossa5tools6mentor7LESSONSs_0B7_
FNF:25
FNH:22
DA:38,5
DA:40,5
DA:41,5
DA:42,5
DA:43,5
DA:44,5
DA:45,3
DA:46,3
DA:47,3
DA:48,3
DA:49,3
DA:50,5
DA:56,2
DA:58,2
DA:59,2
DA:60,1
DA:61,1
DA:62,1
DA:64,1
DA:66,2
DA:67,2
DA:73,2
DA:74,2
DA:75,2
DA:76,2
DA:77,2
DA:78,2
DA:86,0
DA:87,0
DA:88,0
DA:89,0
DA:90,0
DA:92,7
DA:93,7
DA:95,9
DA:96,9
DA:100,12
DA:101,12
DA:103,12
DA:104,12
DA:106,12
DA:107,1
DA:108,11
DA:110,11
DA:111,11
DA:112,1
DA:113,10
DA:115,10
DA:116,6
DA:117,4
DA:119,4
DA:120,1
DA:121,1
DA:122,3
DA:125,3
DA:126,2
DA:127,2
DA:128,1
DA:129,1
DA:130,1
DA:131,1
DA:132,1
DA:133,1
DA:135,1
DA:136,1
DA:137,1
DA:138,1
DA:140,1
DA:141,1
DA:144,1
DA:145,1
DA:151,0
DA:152,0
DA:153,0
DA:154,0
DA:155,0
DA:156,0
DA:157,0
DA:159,0
DA:160,0
DA:161,7
DA:163,10
DA:164,10
DA:165,9
DA:166,10
DA:168,7
DA:169,7
DA:170,7
DA:171,7
DA:172,7
DA:173,7
DA:174,7
DA:176,9
DA:177,9
DA:178,9
DA:179,9
DA:180,9
DA:181,9
DA:182,9
DA:185,9
DA:186,9
DA:187,9
DA:190,9
DA:191,9
DA:192,9
DA:193,9
DA:194,9
DA:197,9
DA:198,9
DA:199,9
DA:200,9
DA:202,9
DA:203,9
DA:204,9
DA:211,1
DA:212,1
DA:214,1
DA:215,1
DA:218,1
DA:219,1
DA:222,1
DA:223,1
DA:224,1
DA:227,1
DA:228,1
DA:230,1
DA:231,1
DA:234,1
DA:235,1
DA:236,1
DA:239,1
DA:241,1
DA:242,1
DA:243,1
DA:245,1
DA:247,1
DA:248,1
DA:249,1
DA:250,1
DA:253,1
DA:254,1
DA:256,1
DA:257,1
DA:260,1
DA:261,1
DA:262,1
DA:265,1
DA:266,1
DA:267,1
DA:268,1
DA:270,1
DA:272,1
DA:273,1
DA:274,1
DA:277,1
DA:278,1
DA:279,1
DA:280,1
DA:282,1
DA:285,1
DA:288,1
DA:289,1
DA:290,1
DA:291,1
DA:293,1
DA:295,1
DA:298,1
DA:299,1
DA:300,1
DA:301,1
DA:303,1
DA:305,1
DA:306,1
DA:307,1
DA:310,1
DA:311,1
DA:312,1
DA:313,1
DA:315,1
DA:317,1
DA:318,1
DA:319,1
DA:322,1
DA:323,1
DA:324,1
DA:325,1
DA:327,1
DA:329,1
BRF:0
BRH:0
LF:195
LH:179
end_of_record
SF:/app/src/tools/mosaic.rs
FN:64,_RINvNtNtCsluBEq34Hdgp_6glossa5tools6mosaic16run_mosaic_innerINtNtCsgag4BwXrjBQ_5alloc3vec3VechEEB6_
FN:162,_RNCNvNtNtCsluBEq34Hdgp_6glossa5tools6mosaic7add_row0B7_
FN:228,_RNCNvNtNtCsluBEq34Hdgp_6glossa5tools6mosaic7add_rows0_0B7_
FN:211,_RNCNvNtNtCsluBEq34Hdgp_6glossa5tools6mosaic7add_rows_0B7_
FN:40,_RNvNtNtCsluBEq34Hdgp_6glossa5tools6mosaic10run_mosaic
FN:280,_RNvNtNtCsluBEq34Hdgp_6glossa5tools6mosaic15fmt_constituent
FN:135,_RNvNtNtCsluBEq34Hdgp_6glossa5tools6mosaic7add_row
FN:311,_RNvNtNtNtCs4cnvRHYBibt_6glossa5tools6mosaic5testss_15test_run_mosaic
FN:289,_RNvNtNtNtCs4cnvRHYBibt_6glossa5tools6mosaic5testss_18test_mosaic_output
FN:301,_RNvNtNtNtCs4cnvRHYBibt_6glossa5tools6mosaic5testss_23test_mosaic_non_regular
FN:40,_RNvNtNtCs4cnvRHYBibt_6glossa5tools6mosaic10run_mosaic
FN:280,_RNvNtNtCs4cnvRHYBibt_6glossa5tools6mosaic15fmt_constituent
FN:135,_RNvNtNtCs4cnvRHYBibt_6glossa5tools6mosaic7add_row
FN:64,_RINvNtNtCs4cnvRHYBibt_6glossa5tools6mosaic16run_mosaic_innerINtNtCsgag4BwXrjBQ_5alloc3vec3VechEEB6_
FN:162,_RNCNvNtNtCs4cnvRHYBibt_6glossa5tools6mosaic7add_row0B7_
FN:228,_RNCNvNtNtCs4cnvRHYBibt_6glossa5tools6mosaic7add_rows0_0B7_
FN:211,_RNCNvNtNtCs4cnvRHYBibt_6glossa5tools6mosaic7add_rows_0B7_
FNDA:2,_RINvNtNtCsluBEq34Hdgp_6glossa5tools6mosaic16run_mosaic_innerINtNtCsgag4BwXrjBQ_5alloc3vec3VechEEB6_
FNDA:7,_RNCNvNtNtCsluBEq34Hdgp_6glossa5tools6mosaic7add_row0B7_
FNDA:2,_RNCNvNtNtCsluBEq34Hdgp_6glossa5tools6mosaic7add_rows0_0B7_
FNDA:0,_RNCNvNtNtCsluBEq34Hdgp_6glossa5tools6mosaic7add_rows_0B7_
FNDA:0,_RNvNtNtCsluBEq34Hdgp_6glossa5tools6mosaic10run_mosaic
FNDA:2,_RNvNtNtCsluBEq34Hdgp_6glossa5tools6mosaic15fmt_constituent
FNDA:10,_RNvNtNtCsluBEq34Hdgp_6glossa5tools6mosaic7add_row
FNDA:1,_RNvNtNtNtCs4cnvRHYBibt_6glossa5tools6mosaic5testss_15test_run_mosaic
FNDA:1,_RNvNtNtNtCs4cnvRHYBibt_6glossa5tools6mosaic5testss_18test_mosaic_output
FNDA:1,_RNvNtNtNtCs4cnvRHYBibt_6glossa5tools6mosaic5testss_23test_mosaic_non_regular
FNDA:1,_RNvNtNtCs4cnvRHYBibt_6glossa5tools6mosaic10run_mosaic
FNDA:2,_RNvNtNtCs4cnvRHYBibt_6glossa5tools6mosaic15fmt_constituent
FNDA:3,_RNvNtNtCs4cnvRHYBibt_6glossa5tools6mosaic7add_row
FNDA:4,_RINvNtNtCs4cnvRHYBibt_6glossa5tools6mosaic16run_mosaic_innerINtNtCsgag4BwXrjBQ_5alloc3vec3VechEEB6_
FNDA:3,_RNCNvNtNtCs4cnvRHYBibt_6glossa5tools6mosaic7add_row0B7_
FNDA:0,_RNCNvNtNtCs4cnvRHYBibt_6glossa5tools6mosaic7add_rows0_0B7_
FNDA:2,_RNCNvNtNtCs4cnvRHYBibt_6glossa5tools6mosaic7add_rows_0B7_
FNF:10
FNH:10
DA:40,1
DA:41,1
DA:43,1
DA:46,1
DA:47,1
DA:48,1
DA:50,1
DA:52,1
DA:53,1
DA:54,1
DA:55,1
DA:56,1
DA:58,1
DA:59,1
DA:64,6
DA:65,6
DA:67,6
DA:68,6
DA:69,6
DA:70,6
DA:71,6
DA:72,6
DA:73,6
DA:74,6
DA:75,6
DA:76,6
DA:77,6
DA:78,6
DA:79,6
DA:80,6
DA:81,6
DA:82,6
DA:83,6
DA:84,6
DA:85,6
DA:86,6
DA:87,6
DA:90,14
DA:93,14
DA:94,13
DA:95,13
DA:96,13
DA:97,13
DA:98,0
DA:99,0
DA:100,0
DA:101,0
DA:102,0
DA:103,0
DA:104,0
DA:105,0
DA:106,0
DA:107,0
DA:111,1
DA:112,1
DA:113,0
DA:114,0
DA:115,0
DA:116,0
DA:118,1
DA:119,1
DA:120,1
DA:121,1
DA:122,1
DA:123,1
DA:124,1
DA:125,1
DA:126,1
DA:131,6
DA:132,6
DA:133,6
DA:135,13
DA:136,13
DA:137,13
DA:138,13
DA:139,13
DA:140,13
DA:143,13
DA:144,13
DA:145,13
DA:146,13
DA:147,13
DA:148,13
DA:149,13
DA:150,0
DA:151,0
DA:153,0
DA:156,13
DA:159,13
DA:160,13
DA:161,13
DA:162,13
DA:163,13
DA:164,13
DA:165,13
DA:166,13
DA:167,13
DA:168,13
DA:169,13
DA:172,13
DA:175,13
DA:176,2
DA:177,11
DA:180,13
DA:181,0
DA:182,13
DA:185,13
DA:186,0
DA:187,0
DA:188,0
DA:189,0
DA:190,0
DA:191,0
DA:192,0
DA:193,13
DA:196,13
DA:197,0
DA:198,0
DA:199,0
DA:200,0
DA:201,0
DA:202,0
DA:203,0
DA:204,13
DA:207,13
DA:208,2
DA:209,2
DA:210,2
DA:211,2
DA:212,2
DA:213,2
DA:214,2
DA:215,11
DA:218,13
DA:219,1
DA:220,12
DA:221,13
DA:222,1
DA:223,12
DA:224,13
DA:225,2
DA:226,2
DA:227,2
DA:228,2
DA:229,2
DA:230,2
DA:231,2
DA:232,11
DA:233,13
DA:234,1
DA:235,12
DA:236,13
DA:237,1
DA:238,12
DA:239,13
DA:240,1
DA:241,12
DA:244,13
DA:245,1
DA:246,12
DA:249,13
DA:250,13
DA:251,1
DA:252,12
DA:253,13
DA:254,1
DA:255,12
DA:256,13
DA:257,1
DA:258,12
DA:259,13
DA:260,1
DA:261,12
DA:262,13
DA:263,1
DA:264,12
DA:266,13
DA:267,3
DA:268,10
DA:270,13
DA:271,13
DA:272,13
DA:273,13
DA:274,13
DA:275,13
DA:276,13
DA:278,13
DA:280,4
DA:281,4
DA:282,4
DA:289,1
DA:290,1
DA:291,1
DA:292,1
DA:293,1
DA:295,1
DA:296,1
DA:297,1
DA:298,1
DA:301,1
DA:302,1
DA:303,1
DA:304,1
DA:305,1
DA:307,1
DA:308,1
DA:311,1
DA:313,1
DA:314,1
DA:315,1
DA:316,1
DA:317,1
DA:318,1
DA:319,1
DA:321,1
DA:322,1
DA:323,1
BRF:0
BRH:0
LF:220
LH:181
end_of_record
SF:/app/src/tools/narrator.rs
FN:226,_RNCNvNtNtCsluBEq34Hdgp_6glossa5tools8narrator13add_statement0B7_
FN:254,_RNCNvNtNtCsluBEq34Hdgp_6glossa5tools8narrator13add_statements_0B7_
FN:379,_RNCNvNtNtCsluBEq34Hdgp_6glossa5tools8narrator9tell_expr0B7_
FN:68,_RNvNtNtCsluBEq34Hdgp_6glossa5tools8narrator13add_statement
FN:64,_RNvNtNtCsluBEq34Hdgp_6glossa5tools8narrator6indent
FN:297,_RNvNtNtCsluBEq34Hdgp_6glossa5tools8narrator9tell_expr
FN:31,_RNvNtNtCsluBEq34Hdgp_6glossa5tools8narrator9tell_tale
FN:407,_RNvNtNtCsluBEq34Hdgp_6glossa5tools8narrator9tell_type
FN:68,_RNvNtNtCs4cnvRHYBibt_6glossa5tools8narrator13add_statement
FN:64,_RNvNtNtCs4cnvRHYBibt_6glossa5tools8narrator6indent
FN:297,_RNvNtNtCs4cnvRHYBibt_6glossa5tools8narrator9tell_expr
FN:31,_RNvNtNtCs4cnvRHYBibt_6glossa5tools8narrator9tell_tale
FN:407,_RNvNtNtCs4cnvRHYBibt_6glossa5tools8narrator9tell_type
FN:434,_RNvNtNtNtCs4cnvRHYBibt_6glossa5tools8narrator5testss_15test_bard_basic
FN:446,_RNvNtNtNtCs4cnvRHYBibt_6glossa5tools8narrator5testss_15test_bard_print
FN:226,_RNCNvNtNtCs4cnvRHYBibt_6glossa5tools8narrator13add_statement0B7_
FN:254,_RNCNvNtNtCs4cnvRHYBibt_6glossa5tools8narrator13add_statements_0B7_
FN:379,_RNCNvNtNtCs4cnvRHYBibt_6glossa5tools8narrator9tell_expr0B7_
FNDA:1,_RNCNvNtNtCsluBEq34Hdgp_6glossa5tools8narrator13add_statement0B7_
FNDA:1,_RNCNvNtNtCsluBEq34Hdgp_6glossa5tools8narrator13add_statements_0B7_
FNDA:1,_RNCNvNtNtCsluBEq34Hdgp_6glossa5tools8narrator9tell_expr0B7_
FNDA:55,_RNvNtNtCsluBEq34Hdgp_6glossa5tools8narrator13add_statement
FNDA:56,_RNvNtNtCsluBEq34Hdgp_6glossa5tools8narrator6indent
FNDA:64,_RNvNtNtCsluBEq34Hdgp_6glossa5tools8narrator9tell_expr
FNDA:48,_RNvNtNtCsluBEq34Hdgp_6glossa5tools8narrator9tell_tale
FNDA:21,_RNvNtNtCsluBEq34Hdgp_6glossa5tools8narrator9tell_type
FNDA:3,_RNvNtNtCs4cnvRHYBibt_6glossa5tools8narrator13add_statement
FNDA:3,_RNvNtNtCs4cnvRHYBibt_6glossa5tools8narrator6indent
FNDA:3,_RNvNtNtCs4cnvRHYBibt_6glossa5tools8narrator9tell_expr
FNDA:3,_RNvNtNtCs4cnvRHYBibt_6glossa5tools8narrator9tell_tale
FNDA:0,_RNvNtNtCs4cnvRHYBibt_6glossa5tools8narrator9tell_type
FNDA:1,_RNvNtNtNtCs4cnvRHYBibt_6glossa5tools8narrator5testss_15test_bard_basic
FNDA:1,_RNvNtNtNtCs4cnvRHYBibt_6glossa5tools8narrator5testss_15test_bard_print
FNDA:0,_RNCNvNtNtCs4cnvRHYBibt_6glossa5tools8narrator13add_statement0B7_
FNDA:0,_RNCNvNtNtCs4cnvRHYBibt_6glossa5tools8narrator13add_statements_0B7_
FNDA:0,_RNCNvNtNtCs4cnvRHYBibt_6glossa5tools8narrator9tell_expr0B7_
FNF:10
FNH:10
DA:31,51
DA:32,51
DA:33,51
DA:34,51
DA:35,51
DA:36,51
DA:37,51
DA:38,51
DA:39,51
DA:40,51
DA:41,51
DA:42,51
DA:43,51
DA:44,51
DA:45,51
DA:48,106
DA:49,55
DA:50,55
DA:53,51
DA:54,51
DA:55,51
DA:56,51
DA:57,51
DA:58,51
DA:61,51
DA:62,51
DA:64,59
DA:65,59
DA:66,59
DA:68,58
DA:69,58
DA:71,58
DA:73,6
DA:74,6
DA:75,6
DA:77,6
DA:78,6
DA:79,6
DA:80,6
DA:81,6
DA:82,6
DA:85,1
DA:86,1
DA:87,1
DA:88,1
DA:89,1
DA:90,1
DA:91,1
DA:92,1
DA:93,5
DA:94,5
DA:95,5
DA:96,5
DA:97,5
DA:98,5
DA:99,5
DA:100,5
DA:101,5
DA:102,24
DA:103,24
DA:104,24
DA:105,24
DA:106,24
DA:107,24
DA:108,24
DA:109,24
DA:110,24
DA:111,1
DA:112,1
DA:113,1
DA:114,1
DA:115,1
DA:116,1
DA:117,1
DA:118,1
DA:119,1
DA:121,0
DA:122,0
DA:123,0
DA:125,0
DA:126,0
DA:127,0
DA:128,0
DA:129,0
DA:132,0
DA:133,0
DA:134,0
DA:136,0
DA:137,0
DA:138,0
DA:139,0
DA:140,0
DA:142,0
DA:143,0
DA:144,0
DA:145,0
DA:147,1
DA:148,1
DA:149,1
DA:150,1
DA:151,1
DA:152,1
DA:154,2
DA:155,1
DA:156,1
DA:159,1
DA:160,1
DA:161,1
DA:163,1
DA:164,1
DA:165,1
DA:166,1
DA:167,1
DA:169,2
DA:170,1
DA:171,1
DA:173,1
DA:174,1
DA:175,1
DA:176,1
DA:177,1
DA:178,1
DA:180,2
DA:181,1
DA:182,1
DA:183,1
DA:184,1
DA:185,1
DA:187,2
DA:188,1
DA:189,1
DA:192,1
DA:193,1
DA:194,1
DA:195,1
DA:196,1
DA:197,1
DA:198,1
DA:199,1
DA:200,1
DA:201,1
DA:202,1
DA:203,1
DA:204,1
DA:205,1
DA:206,2
DA:207,2
DA:208,1
DA:210,1
DA:212,2
DA:213,2
DA:214,2
DA:215,2
DA:219,10
DA:220,10
DA:221,10
DA:222,10
DA:224,10
DA:225,10
DA:226,10
DA:227,1
DA:228,1
DA:229,1
DA:230,10
DA:231,10
DA:232,10
DA:233,10
DA:234,10
DA:236,10
DA:237,10
DA:239,10
DA:242,10
DA:243,10
DA:244,10
DA:245,10
DA:247,10
DA:248,0
DA:249,0
DA:251,1
DA:252,1
DA:253,1
DA:254,1
DA:255,1
DA:256,1
DA:257,1
DA:258,1
DA:259,1
DA:260,1
DA:263,1
DA:264,1
DA:265,1
DA:266,1
DA:267,1
DA:268,1
DA:269,1
DA:270,1
DA:272,1
DA:273,1
DA:275,1
DA:276,1
DA:277,1
DA:278,1
DA:279,1
DA:280,1
DA:281,1
DA:282,1
DA:283,1
DA:284,1
DA:285,1
DA:286,1
DA:287,1
DA:288,1
DA:290,1
DA:291,0
DA:292,0
DA:295,58
DA:297,67
DA:298,67
DA:299,5
DA:300,21
DA:301,3
DA:302,12
DA:303,1
DA:304,1
DA:306,1
DA:307,1
DA:308,1
DA:310,1
DA:311,1
DA:313,1
DA:314,1
DA:317,2
DA:318,2
DA:319,2
DA:321,2
DA:322,2
DA:324,1
DA:325,1
DA:326,1
DA:328,1
DA:329,3
DA:330,1
DA:331,1
DA:332,1
DA:333,1
DA:334,1
DA:335,1
DA:337,1
DA:338,1
DA:339,1
DA:342,1
DA:343,1
DA:344,1
DA:346,1
DA:347,1
DA:348,1
DA:349,1
DA:351,1
DA:355,1
DA:356,1
DA:357,1
DA:358,1
DA:360,1
DA:361,1
DA:362,1
DA:363,1
DA:366,1
DA:370,1
DA:371,1
DA:372,1
DA:374,1
DA:376,1
DA:377,1
DA:378,1
DA:379,1
DA:380,1
DA:381,1
DA:384,3
DA:385,3
DA:386,3
DA:388,3
DA:389,1
DA:390,1
DA:391,1
DA:393,3
DA:395,1
DA:396,1
DA:398,1
DA:399,1
DA:401,1
DA:402,1
DA:405,67
DA:407,21
DA:408,21
DA:409,8
DA:410,2
DA:411,2
DA:412,1
DA:413,1
DA:414,1
DA:415,1
DA:416,1
DA:417,1
DA:418,1
DA:419,1
DA:420,1
DA:422,1
DA:423,1
DA:425,21
DA:434,1
DA:435,1
DA:436,1
DA:437,1
DA:438,1
DA:441,1
DA:442,1
DA:443,1
DA:446,1
DA:447,1
DA:448,1
DA:449,1
DA:450,1
DA:452,1
DA:453,1
DA:454,1
BRF:0
BRH:0
LF:328
LH:304
end_of_record
SF:/app/src/tools/repl.rs
FN:142,_RINvNtNtCsluBEq34Hdgp_6glossa5tools4repl10print_helpNtNtNtCsHIej2QEFI5_3std2io5stdio6StdoutEB6_
FN:68,_RINvNtNtCsluBEq34Hdgp_6glossa5tools4repl14run_repl_innerNtNtNtCsHIej2QEFI5_3std2io5stdio9StdinLockNtBU_6StdoutEB6_
FN:174,_RINvNtNtCsluBEq34Hdgp_6glossa5tools4repl9print_envNtNtNtCsHIej2QEFI5_3std2io5stdio6StdoutEB6_
FN:178,_RNCINvNtNtCsluBEq34Hdgp_6glossa5tools4repl9print_envNtNtNtCsHIej2QEFI5_3std2io5stdio6StdoutE0B8_
FN:289,_RNvMs_NtNtCsluBEq34Hdgp_6glossa5tools4replNtB4_11ReplContext3new
FN:297,_RNvMs_NtNtCsluBEq34Hdgp_6glossa5tools4replNtB4_11ReplContext7execute
FN:130,_RNvNtNtCsluBEq34Hdgp_6glossa5tools4repl12print_banner
FN:60,_RNvNtNtCsluBEq34Hdgp_6glossa5tools4repl8run_repl
FN:249,_RNvXNtNtCsluBEq34Hdgp_6glossa5tools4replNtB2_10ReplOutputNtNtCs3XFJfFEDSOQ_4core3fmt7Display3fmt
FN:289,_RNvMs_NtNtCs4cnvRHYBibt_6glossa5tools4replNtB4_11ReplContext3new
FN:297,_RNvMs_NtNtCs4cnvRHYBibt_6glossa5tools4replNtB4_11ReplContext7execute
FN:130,_RNvNtNtCs4cnvRHYBibt_6glossa5tools4repl12print_banner
FN:249,_RNvXNtNtCs4cnvRHYBibt_6glossa5tools4replNtB2_10ReplOutputNtNtCs3XFJfFEDSOQ_4core3fmt7Display3fmt
FN:60,_RNvNtNtCs4cnvRHYBibt_6glossa5tools4repl8run_repl
FN:474,_RNvNtNtNtCs4cnvRHYBibt_6glossa5tools4repl5testss_20test_print_env_empty
FN:430,_RNvNtNtNtCs4cnvRHYBibt_6glossa5tools4repl5testss_22test_repl_env_coverage
FN:410,_RNvNtNtNtCs4cnvRHYBibt_6glossa5tools4repl5testss_22test_repl_source_limit
FN:391,_RNvNtNtNtCs4cnvRHYBibt_6glossa5tools4repl5testss_23test_repl_binding_limit
FN:605,_RNvNtNtNtCs4cnvRHYBibt_6glossa5tools4repl5testss_23test_run_repl_inner_eof
FN:459,_RNvNtNtNtCs4cnvRHYBibt_6glossa5tools4repl5testss_24test_print_help_coverage
FN:526,_RNvNtNtNtCs4cnvRHYBibt_6glossa5tools4repl5testss_24test_repl_output_display
FN:591,_RNvNtNtNtCs4cnvRHYBibt_6glossa5tools4repl5testss_24test_run_repl_inner_help
FN:468,_RNvNtNtNtCs4cnvRHYBibt_6glossa5tools4repl5testss_26test_print_banner_coverage
FN:495,_RNvNtNtNtCs4cnvRHYBibt_6glossa5tools4repl5testss_26test_repl_execute_variants
FN:563,_RNvNtNtNtCs4cnvRHYBibt_6glossa5tools4repl5testss_28test_run_repl_inner_workflow
FN:618,_RNvNtNtNtCs4cnvRHYBibt_6glossa5tools4repl5testss_32test_run_repl_inner_error_output
FN:142,_RINvNtNtCs4cnvRHYBibt_6glossa5tools4repl10print_helpINtNtCsgag4BwXrjBQ_5alloc3vec3VechEEB6_
FN:68,_RINvNtNtCs4cnvRHYBibt_6glossa5tools4repl14run_repl_innerINtNtNtCsHIej2QEFI5_3std2io6cursor6CursorReEINtNtCsgag4BwXrjBQ_5alloc3vec3VechEEB6_
FN:174,_RINvNtNtCs4cnvRHYBibt_6glossa5tools4repl9print_envINtNtCsgag4BwXrjBQ_5alloc3vec3VechEEB6_
FN:178,_RNCINvNtNtCs4cnvRHYBibt_6glossa5tools4repl9print_envINtNtCsgag4BwXrjBQ_5alloc3vec3VechEE0B8_
FNDA:0,_RINvNtNtCsluBEq34Hdgp_6glossa5tools4repl10print_helpNtNtNtCsHIej2QEFI5_3std2io5stdio6StdoutEB6_
FNDA:0,_RINvNtNtCsluBEq34Hdgp_6glossa5tools4repl14run_repl_innerNtNtNtCsHIej2QEFI5_3std2io5stdio9StdinLockNtBU_6StdoutEB6_
FNDA:0,_RINvNtNtCsluBEq34Hdgp_6glossa5tools4repl9print_envNtNtNtCsHIej2QEFI5_3std2io5stdio6StdoutEB6_
FNDA:0,_RNCINvNtNtCsluBEq34Hdgp_6glossa5tools4repl9print_envNtNtNtCsHIej2QEFI5_3std2io5stdio6StdoutE0B8_
FNDA:0,_RNvMs_NtNtCsluBEq34Hdgp_6glossa5tools4replNtB4_11ReplContext3new
FNDA:0,_RNvMs_NtNtCsluBEq34Hdgp_6glossa5tools4replNtB4_11ReplContext7execute
FNDA:0,_RNvNtNtCsluBEq34Hdgp_6glossa5tools4repl12print_banner
FNDA:0,_RNvNtNtCsluBEq34Hdgp_6glossa5tools4repl8run_repl
FNDA:0,_RNvXNtNtCsluBEq34Hdgp_6glossa5tools4replNtB2_10ReplOutputNtNtCs3XFJfFEDSOQ_4core3fmt7Display3fmt
FNDA:11,_RNvMs_NtNtCs4cnvRHYBibt_6glossa5tools4replNtB4_11ReplContext3new
FNDA:60,_RNvMs_NtNtCs4cnvRHYBibt_6glossa5tools4replNtB4_11ReplContext7execute
FNDA:1,_RNvNtNtCs4cnvRHYBibt_6glossa5tools4repl12print_banner
FNDA:5,_RNvXNtNtCs4cnvRHYBibt_6glossa5tools4replNtB2_10ReplOutputNtNtCs3XFJfFEDSOQ_4core3fmt7Display3fmt
FNDA:0,_RNvNtNtCs4cnvRHYBibt_6glossa5tools4repl8run_repl
FNDA:1,_RNvNtNtNtCs4cnvRHYBibt_6glossa5tools4repl5testss_20test_print_env_empty
FNDA:1,_RNvNtNtNtCs4cnvRHYBibt_6glossa5tools4repl5testss_22test_repl_env_coverage
FNDA:1,_RNvNtNtNtCs4cnvRHYBibt_6glossa5tools4repl5testss_22test_repl_source_limit
FNDA:1,_RNvNtNtNtCs4cnvRHYBibt_6glossa5tools4repl5testss_23test_repl_binding_limit
FNDA:1,_RNvNtNtNtCs4cnvRHYBibt_6glossa5tools4repl5testss_23test_run_repl_inner_eof
FNDA:1,_RNvNtNtNtCs4cnvRHYBibt_6glossa5tools4repl5testss_24test_print_help_coverage
FNDA:1,_RNvNtNtNtCs4cnvRHYBibt_6glossa5tools4repl5testss_24test_repl_output_display
FNDA:1,_RNvNtNtNtCs4cnvRHYBibt_6glossa5tools4repl5testss_24test_run_repl_inner_help
FNDA:1,_RNvNtNtNtCs4cnvRHYBibt_6glossa5tools4repl5testss_26test_print_banner_coverage
FNDA:1,_RNvNtNtNtCs4cnvRHYBibt_6glossa5tools4repl5testss_26test_repl_execute_variants
FNDA:1,_RNvNtNtNtCs4cnvRHYBibt_6glossa5tools4repl5testss_28test_run_repl_inner_workflow
FNDA:1,_RNvNtNtNtCs4cnvRHYBibt_6glossa5tools4repl5testss_32test_run_repl_inner_error_output
FNDA:2,_RINvNtNtCs4cnvRHYBibt_6glossa5tools4repl10print_helpINtNtCsgag4BwXrjBQ_5alloc3vec3VechEEB6_
FNDA:4,_RINvNtNtCs4cnvRHYBibt_6glossa5tools4repl14run_repl_innerINtNtNtCsHIej2QEFI5_3std2io6cursor6CursorReEINtNtCsgag4BwXrjBQ_5alloc3vec3VechEEB6_
FNDA:7,_RINvNtNtCs4cnvRHYBibt_6glossa5tools4repl9print_envINtNtCsgag4BwXrjBQ_5alloc3vec3VechEEB6_
FNDA:1,_RNCINvNtNtCs4cnvRHYBibt_6glossa5tools4repl9print_envINtNtCsgag4BwXrjBQ_5alloc3vec3VechEE0B8_
FNF:21
FNH:20
DA:60,0
DA:61,0
DA:62,0
DA:63,0
DA:64,0
DA:65,0
DA:68,4
DA:69,4
DA:73,10
DA:74,10
DA:76,10
DA:77,10
DA:80,10
DA:81,1
DA:82,1
DA:83,9
DA:85,9
DA:87,9
DA:88,0
DA:89,9
DA:92,9
DA:93,9
DA:94,3
DA:95,3
DA:97,6
DA:98,1
DA:99,1
DA:101,5
DA:102,1
DA:103,1
DA:104,1
DA:106,4
DA:107,2
DA:108,2
DA:110,2
DA:113,2
DA:114,1
DA:116,1
DA:118,1
DA:122,1
DA:127,4
DA:128,4
DA:130,1
DA:132,1
DA:133,1
DA:134,1
DA:135,1
DA:136,1
DA:137,1
DA:138,1
DA:139,1
DA:140,1
DA:142,2
DA:143,2
DA:144,2
DA:145,2
DA:146,2
DA:147,2
DA:148,2
DA:149,2
DA:150,2
DA:153,2
DA:155,2
DA:157,2
DA:158,2
DA:160,2
DA:162,2
DA:164,2
DA:167,2
DA:168,2
DA:169,2
DA:170,2
DA:171,2
DA:172,2
DA:174,7
DA:175,7
DA:177,3
DA:178,3
DA:180,3
DA:181,1
DA:182,1
DA:183,1
DA:184,1
DA:185,1
DA:187,1
DA:188,1
DA:189,2
DA:191,2
DA:192,2
DA:193,2
DA:194,2
DA:195,2
DA:196,2
DA:197,2
DA:200,5
DA:201,3
DA:202,1
DA:204,2
DA:207,3
DA:208,3
DA:209,1
DA:211,2
DA:214,3
DA:215,3
DA:216,3
DA:217,3
DA:220,2
DA:222,4
DA:223,4
DA:224,4
DA:225,4
DA:226,4
DA:228,4
DA:230,6
DA:231,7
DA:249,5
DA:250,5
DA:252,3
DA:253,3
DA:254,3
DA:256,3
DA:257,3
DA:258,3
DA:259,3
DA:260,3
DA:262,3
DA:263,1
DA:265,2
DA:267,0
DA:268,3
DA:270,1
DA:271,1
DA:272,1
DA:273,1
DA:274,0
DA:275,1
DA:277,1
DA:279,5
DA:289,11
DA:290,11
DA:291,11
DA:292,11
DA:293,11
DA:294,11
DA:295,11
DA:297,60
DA:300,60
DA:301,1
DA:302,1
DA:303,1
DA:304,59
DA:309,59
DA:310,59
DA:311,52
DA:312,52
DA:313,59
DA:316,59
DA:317,1
DA:318,1
DA:319,1
DA:320,58
DA:324,58
DA:325,57
DA:330,57
DA:331,57
DA:332,0
DA:333,57
DA:337,57
DA:338,57
DA:343,57
DA:344,57
DA:345,55
DA:347,55
DA:348,55
DA:349,55
DA:350,55
DA:351,55
DA:355,55
DA:357,55
DA:358,55
DA:359,55
DA:360,55
DA:361,55
DA:368,2
DA:369,2
DA:374,0
DA:375,0
DA:376,2
DA:378,2
DA:379,2
DA:380,2
DA:383,60
DA:391,1
DA:392,1
DA:395,51
DA:396,50
DA:397,50
DA:401,1
DA:404,1
DA:405,1
DA:406,1
DA:407,1
DA:410,1
DA:411,1
DA:416,1
DA:418,1
DA:420,1
DA:421,1
DA:422,1
DA:423,1
DA:424,1
DA:425,1
DA:427,1
DA:430,1
DA:431,1
DA:434,1
DA:435,1
DA:436,1
DA:439,1
DA:442,1
DA:443,1
DA:444,1
DA:447,1
DA:450,1
DA:453,1
DA:454,1
DA:455,1
DA:456,1
DA:459,1
DA:461,1
DA:462,1
DA:463,1
DA:464,1
DA:465,1
DA:468,1
DA:470,1
DA:471,1
DA:474,1
DA:475,1
DA:476,1
DA:479,1
DA:480,1
DA:481,1
DA:485,1
DA:486,1
DA:488,1
DA:489,1
DA:490,1
DA:491,1
DA:492,1
DA:495,1
DA:496,1
DA:499,1
DA:501,1
DA:502,1
DA:503,1
DA:504,1
DA:506,1
DA:507,1
DA:508,1
DA:510,0
DA:514,1
DA:515,1
DA:516,1
DA:518,0
DA:522,1
DA:523,1
DA:526,1
DA:528,1
DA:529,1
DA:530,1
DA:531,1
DA:532,1
DA:533,1
DA:535,1
DA:536,1
DA:537,1
DA:539,1
DA:540,1
DA:541,1
DA:542,1
DA:543,1
DA:544,1
DA:545,1
DA:546,1
DA:547,1
DA:550,1
DA:551,1
DA:552,1
DA:553,1
DA:554,1
DA:555,1
DA:558,1
DA:559,1
DA:560,1
DA:563,1
DA:564,1
DA:565,1
DA:566,1
DA:567,1
DA:568,1
DA:569,1
DA:570,1
DA:571,1
DA:573,1
DA:574,1
DA:576,1
DA:578,1
DA:580,1
DA:581,1
DA:583,1
DA:585,1
DA:587,1
DA:588,1
DA:591,1
DA:592,1
DA:593,1
DA:594,1
DA:596,1
DA:597,1
DA:599,1
DA:600,1
DA:601,1
DA:602,1
DA:605,1
DA:607,1
DA:608,1
DA:609,1
DA:611,1
DA:612,1
DA:613,1
DA:614,1
DA:615,1
DA:618,1
DA:621,1
DA:622,1
DA:623,1
DA:625,1
DA:626,1
DA:628,1
DA:630,1
DA:631,1
DA:632,0
DA:635,1
DA:636,1
DA:637,0
DA:643,1
BRF:0
BRH:0
LF:348
LH:332
end_of_record
SF:/app/src/tools/report.rs
FN:345,_RNCNvXs0_NtNtCsluBEq34Hdgp_6glossa5tools6reportNtB7_12GlossaReportNtNtCs3XFJfFEDSOQ_4core3fmt7Display3fmt0Bb_
FN:353,_RNCNvXs0_NtNtCsluBEq34Hdgp_6glossa5tools6reportNtB7_12GlossaReportNtNtCs3XFJfFEDSOQ_4core3fmt7Display3fmts0_0Bb_
FN:352,_RNCNvXs0_NtNtCsluBEq34Hdgp_6glossa5tools6reportNtB7_12GlossaReportNtNtCs3XFJfFEDSOQ_4core3fmt7Display3fmts_0Bb_
FN:170,_RNvMNtNtCsluBEq34Hdgp_6glossa5tools6reportNtB2_12ProgramStats10visit_expr
FN:84,_RNvMNtNtCsluBEq34Hdgp_6glossa5tools6reportNtB2_12ProgramStats15visit_statement
FN:68,_RNvMNtNtCsluBEq34Hdgp_6glossa5tools6reportNtB2_12ProgramStats3new
FN:256,_RNvMs_NtNtCsluBEq34Hdgp_6glossa5tools6reportNtB4_12GlossaReport3new
FN:267,_RNvXs0_NtNtCsluBEq34Hdgp_6glossa5tools6reportNtB5_12GlossaReportNtNtCs3XFJfFEDSOQ_4core3fmt7Display3fmt
FN:407,_RNvXs1_NtNtCsluBEq34Hdgp_6glossa5tools6reportNtB5_17CompilationReportNtNtCs3XFJfFEDSOQ_4core3fmt7Display3fmt
FN:474,_RNvNtNtNtCs4cnvRHYBibt_6glossa5tools6report5tests20create_dummy_program
FN:510,_RNvNtNtNtCs4cnvRHYBibt_6glossa5tools6report5testss_27test_program_stats_coverage
FN:523,_RNvNtNtNtCs4cnvRHYBibt_6glossa5tools6report5testss_31test_report_generation_coverage
FN:559,_RNvNtNtNtCs4cnvRHYBibt_6glossa5tools6report5testss_31test_report_manual_ast_coverage
FN:535,_RNvNtNtNtCs4cnvRHYBibt_6glossa5tools6report5testss_32test_compilation_report_coverage
FN:170,_RNvMNtNtCs4cnvRHYBibt_6glossa5tools6reportNtB2_12ProgramStats10visit_expr
FN:84,_RNvMNtNtCs4cnvRHYBibt_6glossa5tools6reportNtB2_12ProgramStats15visit_statement
FN:68,_RNvMNtNtCs4cnvRHYBibt_6glossa5tools6reportNtB2_12ProgramStats3new
FN:256,_RNvMs_NtNtCs4cnvRHYBibt_6glossa5tools6reportNtB4_12GlossaReport3new
FN:267,_RNvXs0_NtNtCs4cnvRHYBibt_6glossa5tools6reportNtB5_12GlossaReportNtNtCs3XFJfFEDSOQ_4core3fmt7Display3fmt
FN:407,_RNvXs1_NtNtCs4cnvRHYBibt_6glossa5tools6reportNtB5_17CompilationReportNtNtCs3XFJfFEDSOQ_4core3fmt7Display3fmt
FN:345,_RNCNvXs0_NtNtCs4cnvRHYBibt_6glossa5tools6reportNtB7_12GlossaReportNtNtCs3XFJfFEDSOQ_4core3fmt7Display3fmt0Bb_
FN:353,_RNCNvXs0_NtNtCs4cnvRHYBibt_6glossa5tools6reportNtB7_12GlossaReportNtNtCs3XFJfFEDSOQ_4core3fmt7Display3fmts0_0Bb_
FN:352,_RNCNvXs0_NtNtCs4cnvRHYBibt_6glossa5tools6reportNtB7_12GlossaReportNtNtCs3XFJfFEDSOQ_4core3fmt7Display3fmts_0Bb_
FNDA:0,_RNCNvXs0_NtNtCsluBEq34Hdgp_6glossa5tools6reportNtB7_12GlossaReportNtNtCs3XFJfFEDSOQ_4core3fmt7Display3fmt0Bb_
FNDA:0,_RNCNvXs0_NtNtCsluBEq34Hdgp_6glossa5tools6reportNtB7_12GlossaReportNtNtCs3XFJfFEDSOQ_4core3fmt7Display3fmts0_0Bb_
FNDA:0,_RNCNvXs0_NtNtCsluBEq34Hdgp_6glossa5tools6reportNtB7_12GlossaReportNtNtCs3XFJfFEDSOQ_4core3fmt7Display3fmts_0Bb_
FNDA:0,_RNvMNtNtCsluBEq34Hdgp_6glossa5tools6reportNtB2_12ProgramStats10visit_expr
FNDA:0,_RNvMNtNtCsluBEq34Hdgp_6glossa5tools6reportNtB2_12ProgramStats15visit_statement
FNDA:0,_RNvMNtNtCsluBEq34Hdgp_6glossa5tools6reportNtB2_12ProgramStats3new
FNDA:0,_RNvMs_NtNtCsluBEq34Hdgp_6glossa5tools6reportNtB4_12GlossaReport3new
FNDA:0,_RNvXs0_NtNtCsluBEq34Hdgp_6glossa5tools6reportNtB5_12GlossaReportNtNtCs3XFJfFEDSOQ_4core3fmt7Display3fmt
FNDA:0,_RNvXs1_NtNtCsluBEq34Hdgp_6glossa5tools6reportNtB5_17CompilationReportNtNtCs3XFJfFEDSOQ_4core3fmt7Display3fmt
FNDA:3,_RNvNtNtNtCs4cnvRHYBibt_6glossa5tools6report5tests20create_dummy_program
FNDA:1,_RNvNtNtNtCs4cnvRHYBibt_6glossa5tools6report5testss_27test_program_stats_coverage
FNDA:1,_RNvNtNtNtCs4cnvRHYBibt_6glossa5tools6report5testss_31test_report_generation_coverage
FNDA:1,_RNvNtNtNtCs4cnvRHYBibt_6glossa5tools6report5testss_31test_report_manual_ast_coverage
FNDA:1,_RNvNtNtNtCs4cnvRHYBibt_6glossa5tools6report5testss_32test_compilation_report_coverage
FNDA:46,_RNvMNtNtCs4cnvRHYBibt_6glossa5tools6reportNtB2_12ProgramStats10visit_expr
FNDA:24,_RNvMNtNtCs4cnvRHYBibt_6glossa5tools6reportNtB2_12ProgramStats15visit_statement
FNDA:6,_RNvMNtNtCs4cnvRHYBibt_6glossa5tools6reportNtB2_12ProgramStats3new
FNDA:2,_RNvMs_NtNtCs4cnvRHYBibt_6glossa5tools6reportNtB4_12GlossaReport3new
FNDA:2,_RNvXs0_NtNtCs4cnvRHYBibt_6glossa5tools6reportNtB5_12GlossaReportNtNtCs3XFJfFEDSOQ_4core3fmt7Display3fmt
FNDA:2,_RNvXs1_NtNtCs4cnvRHYBibt_6glossa5tools6reportNtB5_17CompilationReportNtNtCs3XFJfFEDSOQ_4core3fmt7Display3fmt
FNDA:0,_RNCNvXs0_NtNtCs4cnvRHYBibt_6glossa5tools6reportNtB7_12GlossaReportNtNtCs3XFJfFEDSOQ_4core3fmt7Display3fmt0Bb_
FNDA:1,_RNCNvXs0_NtNtCs4cnvRHYBibt_6glossa5tools6reportNtB7_12GlossaReportNtNtCs3XFJfFEDSOQ_4core3fmt7Display3fmts0_0Bb_
FNDA:0,_RNCNvXs0_NtNtCs4cnvRHYBibt_6glossa5tools6reportNtB7_12GlossaReportNtNtCs3XFJfFEDSOQ_4core3fmt7Display3fmts_0Bb_
FNF:14
FNH:12
DA:68,6
DA:69,6
DA:70,6
DA:71,6
DA:72,6
DA:73,6
DA:74,6
DA:77,25
DA:78,19
DA:79,19
DA:81,6
DA:82,6
DA:84,24
DA:85,24
DA:86,24
DA:88,24
DA:89,4
DA:90,4
DA:91,4
DA:92,4
DA:93,1
DA:94,1
DA:95,1
DA:96,4
DA:97,1
DA:98,0
DA:99,21
DA:100,16
DA:101,16
DA:104,3
DA:105,3
DA:106,3
DA:108,3
DA:109,3
DA:110,6
DA:111,3
DA:112,3
DA:113,3
DA:114,0
DA:115,0
DA:116,0
DA:117,3
DA:119,1
DA:120,1
DA:121,1
DA:122,1
DA:123,0
DA:124,0
DA:126,1
DA:127,1
DA:128,1
DA:129,1
DA:130,0
DA:131,0
DA:133,1
DA:134,1
DA:135,1
DA:136,1
DA:137,0
DA:138,0
DA:139,0
DA:140,0
DA:143,1
DA:149,3
DA:150,2
DA:151,2
DA:153,1
DA:154,1
DA:155,0
DA:156,0
DA:158,1
DA:159,1
DA:160,1
DA:161,1
DA:163,2
DA:164,1
DA:165,1
DA:166,1
DA:168,24
DA:170,46
DA:171,46
DA:172,46
DA:173,1
DA:174,1
DA:175,2
DA:176,1
DA:177,1
DA:179,1
DA:180,1
DA:181,1
DA:182,1
DA:183,0
DA:184,1
DA:185,1
DA:186,1
DA:187,1
DA:188,1
DA:189,1
DA:190,0
DA:191,0
DA:193,1
DA:194,1
DA:195,1
DA:196,1
DA:197,4
DA:198,4
DA:199,4
DA:200,1
DA:201,1
DA:202,1
DA:203,1
DA:204,1
DA:205,1
DA:206,2
DA:207,0
DA:208,0
DA:210,1
DA:211,1
DA:212,2
DA:213,2
DA:214,0
DA:215,0
DA:217,1
DA:218,1
DA:219,1
DA:220,1
DA:221,1
DA:222,1
DA:223,1
DA:224,1
DA:225,29
DA:227,46
DA:256,2
DA:257,2
DA:258,2
DA:259,2
DA:260,2
DA:261,2
DA:262,2
DA:263,2
DA:267,2
DA:268,2
DA:269,2
DA:270,2
DA:271,2
DA:272,2
DA:273,2
DA:276,2
DA:277,2
DA:278,2
DA:280,2
DA:281,2
DA:282,2
DA:284,2
DA:285,2
DA:286,2
DA:288,2
DA:289,2
DA:290,2
DA:293,2
DA:294,1
DA:295,1
DA:296,1
DA:297,1
DA:298,1
DA:300,2
DA:301,0
DA:302,0
DA:303,0
DA:304,0
DA:305,2
DA:307,2
DA:308,0
DA:309,0
DA:310,0
DA:311,0
DA:312,2
DA:314,2
DA:315,1
DA:316,1
DA:317,1
DA:318,1
DA:319,1
DA:321,2
DA:322,2
DA:323,2
DA:324,2
DA:325,0
DA:326,2
DA:329,2
DA:330,2
DA:331,1
DA:332,1
DA:333,1
DA:334,1
DA:335,1
DA:337,1
DA:338,1
DA:341,2
DA:342,1
DA:343,1
DA:344,1
DA:345,1
DA:346,1
DA:347,1
DA:349,1
DA:350,1
DA:351,1
DA:352,1
DA:353,1
DA:355,1
DA:356,1
DA:357,1
DA:358,1
DA:361,1
DA:362,1
DA:364,2
DA:365,2
DA:407,2
DA:408,2
DA:409,2
DA:410,2
DA:411,2
DA:412,2
DA:413,2
DA:417,2
DA:418,2
DA:419,2
DA:423,2
DA:424,2
DA:425,2
DA:429,2
DA:430,2
DA:431,2
DA:435,2
DA:436,2
DA:437,2
DA:439,2
DA:440,2
DA:441,2
DA:445,2
DA:446,2
DA:447,2
DA:449,2
DA:450,2
DA:451,2
DA:454,2
DA:455,2
DA:456,2
DA:457,2
DA:458,2
DA:459,2
DA:460,0
DA:461,2
DA:463,2
DA:464,2
DA:474,3
DA:475,3
DA:477,3
DA:479,3
DA:482,3
DA:483,3
DA:484,3
DA:485,3
DA:486,3
DA:487,3
DA:488,3
DA:489,3
DA:490,3
DA:493,3
DA:494,3
DA:495,3
DA:496,3
DA:497,3
DA:498,3
DA:499,3
DA:500,3
DA:501,3
DA:502,3
DA:503,3
DA:504,3
DA:506,3
DA:507,3
DA:510,1
DA:511,1
DA:512,1
DA:514,1
DA:515,1
DA:516,1
DA:517,1
DA:518,1
DA:519,1
DA:520,1
DA:523,1
DA:524,1
DA:525,1
DA:526,1
DA:528,1
DA:529,1
DA:530,1
DA:531,1
DA:532,1
DA:535,1
DA:536,1
DA:537,1
DA:538,1
DA:539,1
DA:540,1
DA:541,1
DA:542,1
DA:543,1
DA:544,1
DA:545,1
DA:547,1
DA:549,1
DA:550,1
DA:551,1
DA:552,1
DA:553,1
DA:554,1
DA:555,1
DA:556,1
DA:559,1
DA:561,1
DA:562,1
DA:564,1
DA:565,1
DA:566,1
DA:567,1
DA:568,1
DA:569,1
DA:570,1
DA:572,1
DA:573,1
DA:574,1
DA:575,1
DA:576,1
DA:577,1
DA:578,1
DA:579,1
DA:580,1
DA:581,1
DA:582,1
DA:583,1
DA:584,1
DA:585,1
DA:586,1
DA:587,1
DA:588,1
DA:589,1
DA:591,1
DA:592,1
DA:593,1
DA:594,1
DA:595,1
DA:596,1
DA:597,1
DA:599,1
DA:600,1
DA:601,1
DA:602,1
DA:603,1
DA:604,1
DA:605,1
DA:606,1
DA:607,1
DA:608,1
DA:609,1
DA:610,1
DA:611,1
DA:612,1
DA:613,1
DA:614,1
DA:615,1
DA:617,1
DA:618,1
DA:619,1
DA:620,1
DA:621,1
DA:622,1
DA:623,1
DA:624,1
DA:625,1
DA:627,1
DA:628,1
DA:629,1
DA:630,1
DA:632,1
DA:633,1
DA:634,1
DA:635,1
DA:636,1
DA:638,1
DA:639,1
DA:640,1
DA:641,1
DA:643,1
DA:644,1
DA:645,1
DA:646,1
DA:648,1
DA:649,1
DA:650,1
DA:651,1
DA:652,1
DA:653,1
DA:655,1
DA:656,1
DA:657,1
DA:658,1
DA:659,1
DA:660,1
DA:661,1
DA:662,1
DA:663,1
DA:664,1
DA:665,1
DA:666,1
DA:667,1
DA:668,1
DA:669,1
DA:670,1
DA:671,1
DA:672,1
DA:673,1
DA:674,1
DA:675,1
DA:676,1
DA:677,1
DA:678,1
DA:679,1
DA:680,1
DA:681,1
DA:682,1
DA:683,1
DA:684,1
DA:685,1
DA:686,1
DA:687,1
DA:688,1
DA:689,1
DA:690,1
DA:691,1
DA:692,1
DA:693,1
DA:694,1
DA:695,1
DA:696,1
DA:697,1
DA:698,1
DA:699,1
DA:700,1
DA:701,1
DA:702,1
DA:703,1
DA:704,1
DA:705,1
DA:706,1
DA:707,1
DA:708,1
DA:709,1
DA:710,1
DA:711,1
DA:712,1
DA:713,1
DA:714,1
DA:715,1
DA:716,1
DA:717,1
DA:718,1
DA:719,1
DA:720,1
DA:721,1
DA:722,1
DA:723,1
DA:724,1
DA:725,1
DA:726,1
DA:727,1
DA:728,1
DA:729,1
DA:730,1
DA:731,1
DA:732,1
DA:733,1
DA:734,1
DA:735,1
DA:736,1
DA:737,1
DA:738,1
DA:739,1
DA:740,1
DA:741,1
DA:742,1
DA:743,1
DA:744,1
DA:745,1
DA:746,1
DA:747,1
DA:748,1
DA:749,1
DA:750,1
DA:751,1
DA:752,1
DA:753,1
DA:754,1
DA:755,1
DA:756,1
DA:757,1
DA:758,1
DA:759,1
DA:760,1
DA:761,1
DA:762,1
DA:763,1
DA:764,1
DA:765,1
DA:766,1
DA:767,1
DA:768,1
DA:769,1
DA:770,1
DA:771,1
DA:772,1
DA:773,1
DA:774,1
DA:775,1
DA:776,1
DA:777,1
DA:778,1
DA:779,1
DA:780,1
DA:781,1
DA:782,1
DA:783,1
DA:786,1
DA:787,1
DA:790,1
DA:792,1
DA:793,1
DA:794,1
DA:795,1
BRF:0
BRH:0
LF:545
LH:512
end_of_record
SF:/app/src/tools/runner.rs
FN:139,_RNCNvNtNtCsluBEq34Hdgp_6glossa5tools6runner10build_file0B7_
FN:140,_RNCNvNtNtCsluBEq34Hdgp_6glossa5tools6runner10build_files_0B7_
FN:25,_RNCNvNtNtCsluBEq34Hdgp_6glossa5tools6runner14analyze_source0B7_
FN:26,_RNCNvNtNtCsluBEq34Hdgp_6glossa5tools6runner14analyze_sources_0B7_
FN:380,_RNCNvNtNtCsluBEq34Hdgp_6glossa5tools6runner14highlight_file0B7_
FN:128,_RNvNtNtCsluBEq34Hdgp_6glossa5tools6runner10build_file
FN:330,_RNvNtNtCsluBEq34Hdgp_6glossa5tools6runner10check_file
FN:64,_RNvNtNtCsluBEq34Hdgp_6glossa5tools6runner11load_source
FN:24,_RNvNtNtCsluBEq34Hdgp_6glossa5tools6runner14analyze_source
FN:377,_RNvNtNtCsluBEq34Hdgp_6glossa5tools6runner14highlight_file
FN:39,_RNvNtNtCsluBEq34Hdgp_6glossa5tools6runner15check_file_size
FN:33,_RNvNtNtCsluBEq34Hdgp_6glossa5tools6runner7compile
FN:203,_RNvNtNtCsluBEq34Hdgp_6glossa5tools6runner8run_file
FN:415,_RNvNtNtCsluBEq34Hdgp_6glossa5tools6runner9bard_file
FN:433,_RNvNtNtNtCs4cnvRHYBibt_6glossa5tools6runner5testss_18test_compile_hello
FN:637,_RNvNtNtNtCs4cnvRHYBibt_6glossa5tools6runner5testss_20test_bard_file_valid
FN:443,_RNvNtNtNtCs4cnvRHYBibt_6glossa5tools6runner5testss_20test_compile_binding
FN:591,_RNvNtNtNtCs4cnvRHYBibt_6glossa5tools6runner5testss_20test_run_rustc_error
FN:609,_RNvNtNtNtCs4cnvRHYBibt_6glossa5tools6runner5testss_21test_check_file_valid
FN:548,_RNvNtNtNtCs4cnvRHYBibt_6glossa5tools6runner5testss_21test_run_file_success
FN:577,_RNvNtNtNtCs4cnvRHYBibt_6glossa5tools6runner5testss_22test_run_compile_error
FN:503,_RNvNtNtNtCs4cnvRHYBibt_6glossa5tools6runner5testss_23test_build_file_success
FN:526,_RNvNtNtNtCs4cnvRHYBibt_6glossa5tools6runner5testss_24test_run_file_size_limit
FN:452,_RNvNtNtNtCs4cnvRHYBibt_6glossa5tools6runner5testss_25test_compile_full_program
FN:622,_RNvNtNtNtCs4cnvRHYBibt_6glossa5tools6runner5testss_25test_highlight_file_valid
FN:481,_RNvNtNtNtCs4cnvRHYBibt_6glossa5tools6runner5testss_26test_build_file_size_limit
FN:459,_RNvNtNtNtCs4cnvRHYBibt_6glossa5tools6runner5testss_29test_file_size_check_internal
FN:139,_RNCNvNtNtCs4cnvRHYBibt_6glossa5tools6runner10build_file0B7_
FN:140,_RNCNvNtNtCs4cnvRHYBibt_6glossa5tools6runner10build_files_0B7_
FN:25,_RNCNvNtNtCs4cnvRHYBibt_6glossa5tools6runner14analyze_source0B7_
FN:26,_RNCNvNtNtCs4cnvRHYBibt_6glossa5tools6runner14analyze_sources_0B7_
FN:380,_RNCNvNtNtCs4cnvRHYBibt_6glossa5tools6runner14highlight_file0B7_
FN:128,_RNvNtNtCs4cnvRHYBibt_6glossa5tools6runner10build_file
FN:330,_RNvNtNtCs4cnvRHYBibt_6glossa5tools6runner10check_file
FN:64,_RNvNtNtCs4cnvRHYBibt_6glossa5tools6runner11load_source
FN:24,_RNvNtNtCs4cnvRHYBibt_6glossa5tools6runner14analyze_source
FN:377,_RNvNtNtCs4cnvRHYBibt_6glossa5tools6runner14highlight_file
FN:39,_RNvNtNtCs4cnvRHYBibt_6glossa5tools6runner15check_file_size
FN:33,_RNvNtNtCs4cnvRHYBibt_6glossa5tools6runner7compile
FN:203,_RNvNtNtCs4cnvRHYBibt_6glossa5tools6runner8run_file
FN:415,_RNvNtNtCs4cnvRHYBibt_6glossa5tools6runner9bard_file
FNDA:0,_RNCNvNtNtCsluBEq34Hdgp_6glossa5tools6runner10build_file0B7_
FNDA:0,_RNCNvNtNtCsluBEq34Hdgp_6glossa5tools6runner10build_files_0B7_
FNDA:1,_RNCNvNtNtCsluBEq34Hdgp_6glossa5tools6runner14analyze_source0B7_
FNDA:1,_RNCNvNtNtCsluBEq34Hdgp_6glossa5tools6runner14analyze_sources_0B7_
FNDA:0,_RNCNvNtNtCsluBEq34Hdgp_6glossa5tools6runner14highlight_file0B7_
FNDA:0,_RNvNtNtCsluBEq34Hdgp_6glossa5tools6runner10build_file
FNDA:0,_RNvNtNtCsluBEq34Hdgp_6glossa5tools6runner10check_file
FNDA:11,_RNvNtNtCsluBEq34Hdgp_6glossa5tools6runner11load_source
FNDA:3,_RNvNtNtCsluBEq34Hdgp_6glossa5tools6runner14analyze_source
FNDA:0,_RNvNtNtCsluBEq34Hdgp_6glossa5tools6runner14highlight_file
FNDA:14,_RNvNtNtCsluBEq34Hdgp_6glossa5tools6runner15check_file_size
FNDA:3,_RNvNtNtCsluBEq34Hdgp_6glossa5tools6runner7compile
FNDA:4,_RNvNtNtCsluBEq34Hdgp_6glossa5tools6runner8run_file
FNDA:0,_RNvNtNtCsluBEq34Hdgp_6glossa5tools6runner9bard_file
FNDA:1,_RNvNtNtNtCs4cnvRHYBibt_6glossa5tools6runner5testss_18test_compile_hello
FNDA:1,_RNvNtNtNtCs4cnvRHYBibt_6glossa5tools6runner5testss_20test_bard_file_valid
FNDA:1,_RNvNtNtNtCs4cnvRHYBibt_6glossa5tools6runner5testss_20test_compile_binding
FNDA:1,_RNvNtNtNtCs4cnvRHYBibt_6glossa5tools6runner5testss_20test_run_rustc_error
FNDA:1,_RNvNtNtNtCs4cnvRHYBibt_6glossa5tools6runner5testss_21test_check_file_valid
FNDA:1,_RNvNtNtNtCs4cnvRHYBibt_6glossa5tools6runner5testss_21test_run_file_success
FNDA:1,_RNvNtNtNtCs4cnvRHYBibt_6glossa5tools6runner5testss_22test_run_compile_error
FNDA:1,_RNvNtNtNtCs4cnvRHYBibt_6glossa5tools6runner5testss_23test_build_file_success
FNDA:1,_RNvNtNtNtCs4cnvRHYBibt_6glossa5tools6runner5testss_24test_run_file_size_limit
FNDA:1,_RNvNtNtNtCs4cnvRHYBibt_6glossa5tools6runner5testss_25test_compile_full_program
FNDA:1,_RNvNtNtNtCs4cnvRHYBibt_6glossa5tools6runner5testss_25test_highlight_file_valid
FNDA:1,_RNvNtNtNtCs4cnvRHYBibt_6glossa5tools6runner5testss_26test_build_file_size_limit
FNDA:1,_RNvNtNtNtCs4cnvRHYBibt_6glossa5tools6runner5testss_29test_file_size_check_internal
FNDA:0,_RNCNvNtNtCs4cnvRHYBibt_6glossa5tools6runner10build_file0B7_
FNDA:1,_RNCNvNtNtCs4cnvRHYBibt_6glossa5tools6runner10build_files_0B7_
FNDA:1,_RNCNvNtNtCs4cnvRHYBibt_6glossa5tools6runner14analyze_source0B7_
FNDA:0,_RNCNvNtNtCs4cnvRHYBibt_6glossa5tools6runner14analyze_sources_0B7_
FNDA:0,_RNCNvNtNtCs4cnvRHYBibt_6glossa5tools6runner14highlight_file0B7_
FNDA:2,_RNvNtNtCs4cnvRHYBibt_6glossa5tools6runner10build_file
FNDA:1,_RNvNtNtCs4cnvRHYBibt_6glossa5tools6runner10check_file
FNDA:14,_RNvNtNtCs4cnvRHYBibt_6glossa5tools6runner11load_source
FNDA:9,_RNvNtNtCs4cnvRHYBibt_6glossa5tools6runner14analyze_source
FNDA:1,_RNvNtNtCs4cnvRHYBibt_6glossa5tools6runner14highlight_file
FNDA:19,_RNvNtNtCs4cnvRHYBibt_6glossa5tools6runner15check_file_size
FNDA:6,_RNvNtNtCs4cnvRHYBibt_6glossa5tools6runner7compile
FNDA:5,_RNvNtNtCs4cnvRHYBibt_6glossa5tools6runner8run_file
FNDA:1,_RNvNtNtCs4cnvRHYBibt_6glossa5tools6runner9bard_file
FNF:27
FNH:25
DA:24,12
DA:25,12
DA:26,10
DA:27,12
DA:33,9
DA:34,9
DA:35,6
DA:36,9
DA:39,33
DA:40,33
DA:41,33
DA:42,4
DA:43,4
DA:44,4
DA:45,4
DA:46,4
DA:47,29
DA:48,29
DA:49,33
DA:64,25
DA:65,25
DA:66,2
DA:67,23
DA:68,23
DA:70,21
DA:71,21
DA:74,21
DA:75,21
DA:76,21
DA:78,21
DA:79,1
DA:80,1
DA:81,1
DA:82,1
DA:83,20
DA:85,20
DA:86,25
DA:128,2
DA:129,2
DA:130,2
DA:131,2
DA:132,1
DA:135,1
DA:136,1
DA:138,1
DA:139,1
DA:140,1
DA:142,1
DA:144,1
DA:145,1
DA:146,1
DA:148,1
DA:150,1
DA:151,1
DA:152,1
DA:153,1
DA:154,1
DA:155,1
DA:156,1
DA:157,1
DA:159,1
DA:161,1
DA:162,2
DA:203,9
DA:204,9
DA:205,0
DA:206,9
DA:207,9
DA:210,8
DA:211,8
DA:213,8
DA:216,8
DA:217,1
DA:218,1
DA:221,1
DA:223,1
DA:225,1
DA:226,0
DA:227,1
DA:228,1
DA:229,7
DA:231,7
DA:234,7
DA:236,6
DA:237,3
DA:238,3
DA:239,3
DA:240,3
DA:245,3
DA:247,3
DA:250,3
DA:251,3
DA:252,3
DA:253,3
DA:254,3
DA:255,3
DA:256,3
DA:257,3
DA:258,3
DA:259,3
DA:261,3
DA:262,1
DA:263,1
DA:266,1
DA:267,1
DA:268,1
DA:269,1
DA:270,1
DA:271,1
DA:272,1
DA:275,1
DA:276,1
DA:280,1
DA:282,1
DA:283,2
DA:285,2
DA:287,2
DA:288,2
DA:291,2
DA:293,2
DA:295,2
DA:296,0
DA:297,2
DA:299,2
DA:300,9
DA:330,1
DA:331,1
DA:332,1
DA:334,1
DA:336,1
DA:337,1
DA:338,1
DA:339,1
DA:340,1
DA:341,1
DA:343,1
DA:344,1
DA:346,1
DA:347,1
DA:377,1
DA:378,1
DA:379,1
DA:380,1
DA:382,1
DA:383,1
DA:385,1
DA:386,1
DA:415,1
DA:416,1
DA:417,1
DA:418,1
DA:420,1
DA:421,1
DA:422,1
DA:424,1
DA:425,1
DA:433,1
DA:434,1
DA:435,1
DA:436,1
DA:437,1
DA:439,1
DA:440,1
DA:443,1
DA:444,1
DA:445,1
DA:446,1
DA:447,1
DA:448,1
DA:449,1
DA:452,1
DA:453,1
DA:454,1
DA:455,1
DA:456,1
DA:459,1
DA:461,1
DA:462,1
DA:463,1
DA:464,1
DA:465,1
DA:466,1
DA:467,1
DA:470,1
DA:471,1
DA:472,1
DA:473,1
DA:474,1
DA:475,1
DA:476,1
DA:478,1
DA:481,1
DA:483,1
DA:484,1
DA:485,1
DA:486,1
DA:487,1
DA:488,1
DA:489,1
DA:492,1
DA:493,1
DA:494,1
DA:495,1
DA:496,1
DA:497,1
DA:498,1
DA:500,1
DA:503,1
DA:505,1
DA:506,1
DA:507,1
DA:508,1
DA:509,1
DA:510,1
DA:513,1
DA:514,1
DA:517,1
DA:518,1
DA:521,1
DA:522,1
DA:523,1
DA:526,1
DA:528,1
DA:529,1
DA:530,1
DA:531,1
DA:532,1
DA:533,1
DA:534,1
DA:537,1
DA:538,1
DA:539,1
DA:540,1
DA:541,1
DA:542,1
DA:543,1
DA:545,1
DA:548,1
DA:550,1
DA:551,1
DA:552,1
DA:553,1
DA:554,1
DA:555,1
DA:559,1
DA:562,1
DA:565,1
DA:568,1
DA:569,1
DA:572,1
DA:573,1
DA:574,1
DA:577,1
DA:578,1
DA:579,1
DA:580,1
DA:581,1
DA:582,1
DA:583,1
DA:585,1
DA:586,1
DA:587,1
DA:588,1
DA:591,1
DA:592,1
DA:593,1
DA:594,1
DA:595,1
DA:596,1
DA:597,1
DA:598,1
DA:599,1
DA:600,1
DA:602,1
DA:603,1
DA:605,1
DA:606,1
DA:609,1
DA:610,1
DA:611,1
DA:612,1
DA:613,1
DA:614,1
DA:615,1
DA:617,1
DA:618,1
DA:619,1
DA:622,1
DA:623,1
DA:624,1
DA:625,1
DA:626,1
DA:627,1
DA:628,1
DA:632,1
DA:633,1
DA:634,1
DA:637,1
DA:638,1
DA:639,1
DA:640,1
DA:641,1
DA:642,1
DA:643,1
DA:645,1
DA:646,1
DA:647,1
BRF:0
BRH:0
LF:312
LH:307
end_of_record
SF:/app/src/tools/tester.rs
FN:170,_RNCNvNtNtCsluBEq34Hdgp_6glossa5tools6tester9run_tests0B7_
FN:189,_RNCNvNtNtCsluBEq34Hdgp_6glossa5tools6tester9run_testss0_0B7_
FN:194,_RNCNvNtNtCsluBEq34Hdgp_6glossa5tools6tester9run_testss1_0B7_
FN:171,_RNCNvNtNtCsluBEq34Hdgp_6glossa5tools6tester9run_testss_0B7_
FN:170,_RNCNvNtNtCs4cnvRHYBibt_6glossa5tools6tester9run_tests0B7_
FN:189,_RNCNvNtNtCs4cnvRHYBibt_6glossa5tools6tester9run_testss0_0B7_
FN:194,_RNCNvNtNtCs4cnvRHYBibt_6glossa5tools6tester9run_testss1_0B7_
FN:171,_RNCNvNtNtCs4cnvRHYBibt_6glossa5tools6tester9run_testss_0B7_
FN:165,_RNvNtNtCs4cnvRHYBibt_6glossa5tools6tester9run_tests
FN:100,_RNvNtNtCs4cnvRHYBibt_6glossa5tools6tester16extract_failures
FN:68,_RNvNtNtCs4cnvRHYBibt_6glossa5tools6tester17parse_test_output
FN:344,_RNvNtNtNtCs4cnvRHYBibt_6glossa5tools6tester5testss_23test_parse_output_basic
FN:361,_RNvNtNtNtCs4cnvRHYBibt_6glossa5tools6tester5testss_25test_parse_output_failure
FN:388,_RNvNtNtNtCs4cnvRHYBibt_6glossa5tools6tester5testss_25test_parse_output_ignored
FN:402,_RNvNtNtNtCs4cnvRHYBibt_6glossa5tools6tester5testss_27test_extract_failures_basic
FN:426,_RNvNtNtNtCs4cnvRHYBibt_6glossa5tools6tester5testss_30test_extract_failures_multiple
FN:449,_RNvNtNtNtCs4cnvRHYBibt_6glossa5tools6tester5testss_32test_extract_failures_edge_cases
FN:494,_RNvNtNtNtCs4cnvRHYBibt_6glossa5tools6tester5testss_33test_parse_test_output_edge_cases
FN:550,_RNvNtNtNtCs4cnvRHYBibt_6glossa5tools6tester23additional_sentry_testss_34test_parse_test_output_empty_parts
FN:100,_RNvNtNtCsluBEq34Hdgp_6glossa5tools6tester16extract_failures
FN:68,_RNvNtNtCsluBEq34Hdgp_6glossa5tools6tester17parse_test_output
FN:165,_RNvNtNtCsluBEq34Hdgp_6glossa5tools6tester9run_tests
FNDA:1,_RNCNvNtNtCsluBEq34Hdgp_6glossa5tools6tester9run_tests0B7_
FNDA:0,_RNCNvNtNtCsluBEq34Hdgp_6glossa5tools6tester9run_testss0_0B7_
FNDA:0,_RNCNvNtNtCsluBEq34Hdgp_6glossa5tools6tester9run_testss1_0B7_
FNDA:0,_RNCNvNtNtCsluBEq34Hdgp_6glossa5tools6tester9run_testss_0B7_
FNDA:0,_RNCNvNtNtCs4cnvRHYBibt_6glossa5tools6tester9run_tests0B7_
FNDA:0,_RNCNvNtNtCs4cnvRHYBibt_6glossa5tools6tester9run_testss0_0B7_
FNDA:0,_RNCNvNtNtCs4cnvRHYBibt_6glossa5tools6tester9run_testss1_0B7_
FNDA:0,_RNCNvNtNtCs4cnvRHYBibt_6glossa5tools6tester9run_testss_0B7_
FNDA:0,_RNvNtNtCs4cnvRHYBibt_6glossa5tools6tester9run_tests
FNDA:4,_RNvNtNtCs4cnvRHYBibt_6glossa5tools6tester16extract_failures
FNDA:9,_RNvNtNtCs4cnvRHYBibt_6glossa5tools6tester17parse_test_output
FNDA:1,_RNvNtNtNtCs4cnvRHYBibt_6glossa5tools6tester5testss_23test_parse_output_basic
FNDA:1,_RNvNtNtNtCs4cnvRHYBibt_6glossa5tools6tester5testss_25test_parse_output_failure
FNDA:1,_RNvNtNtNtCs4cnvRHYBibt_6glossa5tools6tester5testss_25test_parse_output_ignored
FNDA:1,_RNvNtNtNtCs4cnvRHYBibt_6glossa5tools6tester5testss_27test_extract_failures_basic
FNDA:1,_RNvNtNtNtCs4cnvRHYBibt_6glossa5tools6tester5testss_30test_extract_failures_multiple
FNDA:1,_RNvNtNtNtCs4cnvRHYBibt_6glossa5tools6tester5testss_32test_extract_failures_edge_cases
FNDA:1,_RNvNtNtNtCs4cnvRHYBibt_6glossa5tools6tester5testss_33test_parse_test_output_edge_cases
FNDA:1,_RNvNtNtNtCs4cnvRHYBibt_6glossa5tools6tester23additional_sentry_testss_34test_parse_test_output_empty_parts
FNDA:1,_RNvNtNtCsluBEq34Hdgp_6glossa5tools6tester16extract_failures
FNDA:3,_RNvNtNtCsluBEq34Hdgp_6glossa5tools6tester17parse_test_output
FNDA:6,_RNvNtNtCsluBEq34Hdgp_6glossa5tools6tester9run_tests
FNF:15
FNH:12
DA:68,12
DA:69,12
DA:70,67
DA:72,67
DA:73,18
DA:74,12
DA:75,10
DA:77,9
DA:80,9
DA:82,8
DA:83,8
DA:84,8
DA:85,3
DA:86,1
DA:87,0
DA:89,8
DA:90,8
DA:91,8
DA:92,8
DA:93,0
DA:94,1
DA:95,58
DA:97,12
DA:98,12
DA:100,5
DA:101,5
DA:102,5
DA:103,5
DA:106,20
DA:107,19
DA:108,4
DA:109,15
DA:110,15
DA:113,5
DA:114,1
DA:115,4
DA:116,4
DA:119,29
DA:120,25
DA:121,25
DA:123,4
DA:124,4
DA:125,4
DA:126,4
DA:128,4
DA:129,4
DA:130,4
DA:131,4
DA:132,4
DA:135,4
DA:136,4
DA:137,19
DA:138,19
DA:139,19
DA:141,1
DA:142,18
DA:143,18
DA:145,3
DA:146,15
DA:147,15
DA:148,15
DA:149,15
DA:151,4
DA:152,4
DA:153,21
DA:154,21
DA:157,4
DA:158,5
DA:165,6
DA:166,6
DA:169,6
DA:170,5
DA:171,4
DA:172,4
DA:175,4
DA:176,4
DA:177,4
DA:178,4
DA:179,4
DA:181,4
DA:182,4
DA:187,4
DA:188,4
DA:189,4
DA:190,4
DA:191,4
DA:192,4
DA:193,4
DA:194,4
DA:195,0
DA:196,0
DA:197,4
DA:198,0
DA:200,4
DA:204,4
DA:205,4
DA:206,4
DA:207,4
DA:208,4
DA:209,4
DA:210,4
DA:212,4
DA:213,1
DA:214,1
DA:215,1
DA:216,3
DA:219,3
DA:221,3
DA:222,3
DA:223,3
DA:227,3
DA:230,3
DA:231,3
DA:233,3
DA:234,2
DA:235,2
DA:236,1
DA:237,1
DA:238,1
DA:239,1
DA:240,1
DA:241,1
DA:242,1
DA:243,1
DA:244,1
DA:245,1
DA:246,1
DA:247,1
DA:248,1
DA:249,1
DA:250,1
DA:251,1
DA:252,1
DA:253,1
DA:255,3
DA:257,3
DA:258,2
DA:259,2
DA:261,2
DA:262,2
DA:263,2
DA:264,2
DA:265,2
DA:268,4
DA:269,2
DA:270,1
DA:271,1
DA:272,1
DA:273,1
DA:274,0
DA:279,2
DA:281,2
DA:283,2
DA:284,1
DA:285,1
DA:286,1
DA:287,1
DA:288,1
DA:289,1
DA:290,1
DA:291,1
DA:292,1
DA:293,1
DA:296,3
DA:297,1
DA:298,1
DA:300,1
DA:302,1
DA:303,2
DA:304,1
DA:305,1
DA:306,1
DA:307,1
DA:310,1
DA:311,1
DA:312,1
DA:313,1
DA:315,1
DA:316,5
DA:317,5
DA:318,5
DA:319,5
DA:320,1
DA:321,1
DA:325,0
DA:326,0
DA:327,0
DA:328,0
DA:330,2
DA:332,3
DA:333,1
DA:334,2
DA:336,2
DA:337,6
DA:344,1
DA:345,1
DA:346,1
DA:347,1
DA:348,1
DA:349,1
DA:350,1
DA:351,1
DA:352,1
DA:353,1
DA:354,1
DA:355,1
DA:356,1
DA:357,1
DA:358,1
DA:361,1
DA:362,1
DA:363,1
DA:364,1
DA:365,1
DA:366,1
DA:367,1
DA:368,1
DA:369,1
DA:370,1
DA:371,1
DA:372,1
DA:373,1
DA:374,1
DA:375,1
DA:376,1
DA:377,1
DA:378,1
DA:379,1
DA:380,1
DA:381,1
DA:382,1
DA:383,1
DA:384,1
DA:385,1
DA:388,1
DA:389,1
DA:390,1
DA:391,1
DA:392,1
DA:393,1
DA:394,1
DA:395,1
DA:396,1
DA:397,1
DA:398,1
DA:399,1
DA:402,1
DA:403,1
DA:404,1
DA:405,1
DA:406,1
DA:407,1
DA:408,1
DA:409,1
DA:410,1
DA:411,1
DA:412,1
DA:413,1
DA:414,1
DA:415,1
DA:416,1
DA:417,1
DA:418,1
DA:419,1
DA:420,1
DA:421,1
DA:422,1
DA:423,1
DA:426,1
DA:427,1
DA:428,1
DA:429,1
DA:430,1
DA:431,1
DA:432,1
DA:433,1
DA:434,1
DA:435,1
DA:436,1
DA:437,1
DA:438,1
DA:439,1
DA:440,1
DA:441,1
DA:442,1
DA:443,1
DA:444,1
DA:445,1
DA:446,1
DA:449,1
DA:456,1
DA:457,1
DA:458,1
DA:459,1
DA:460,1
DA:461,1
DA:462,1
DA:463,1
DA:464,1
DA:465,1
DA:466,1
DA:467,1
DA:468,1
DA:469,1
DA:470,1
DA:471,1
DA:472,1
DA:473,1
DA:474,1
DA:475,1
DA:476,1
DA:477,1
DA:478,1
DA:479,1
DA:482,3
DA:483,2
DA:484,2
DA:485,2
DA:487,0
DA:491,1
DA:494,1
DA:501,1
DA:502,1
DA:503,1
DA:504,1
DA:505,1
DA:506,1
DA:507,1
DA:508,1
DA:509,1
DA:510,1
DA:511,1
DA:512,1
DA:513,1
DA:514,1
DA:515,1
DA:516,1
DA:517,1
DA:518,1
DA:519,1
DA:520,1
DA:521,1
DA:522,1
DA:523,1
DA:524,1
DA:525,1
DA:526,1
DA:527,1
DA:528,1
DA:529,1
DA:532,6
DA:533,5
DA:534,5
DA:535,5
DA:537,0
DA:541,1
DA:550,1
DA:551,1
DA:552,1
DA:553,1
DA:554,1
BRF:0
BRH:0
LF:366
LH:350
end_of_record
SF:/app/src/tools/ui.rs
FN:130,_RNvXs_NtNtCsluBEq34Hdgp_6glossa5tools2uiNtB4_6StatusNtNtNtCs3XFJfFEDSOQ_4core3ops4drop4Drop4drop
FN:38,_RINvMNtNtCsluBEq34Hdgp_6glossa5tools2uiNtB3_6Status5startpEB7_
FN:116,_RINvMNtNtCsluBEq34Hdgp_6glossa5tools2uiNtB3_6Status10print_doneINtNtNtCsgQ09HlrS5wL_9crossterm5style14styled_content13StyledContentReEEB7_
FN:43,_RINvMNtNtCsluBEq34Hdgp_6glossa5tools2uiNtB3_6Status17start_with_symbolReB16_EB7_
FN:49,_RINvMNtNtCsluBEq34Hdgp_6glossa5tools2uiNtB3_6Status3newReBR_EB7_
FN:85,_RINvMNtNtCsluBEq34Hdgp_6glossa5tools2uiNtB3_6Status5errorReEB7_
FN:62,_RINvMNtNtCsluBEq34Hdgp_6glossa5tools2uiNtB3_6Status6updateReEB7_
FN:96,_RNvMNtNtCsluBEq34Hdgp_6glossa5tools2uiNtB2_6Status13print_running
FN:71,_RNvMNtNtCsluBEq34Hdgp_6glossa5tools2uiNtB2_6Status7success
FN:38,_RINvMNtNtCs4cnvRHYBibt_6glossa5tools2uiNtB3_6Status5startpEB7_
FN:130,_RNvXs_NtNtCs4cnvRHYBibt_6glossa5tools2uiNtB4_6StatusNtNtNtCs3XFJfFEDSOQ_4core3ops4drop4Drop4drop
FN:96,_RNvMNtNtCs4cnvRHYBibt_6glossa5tools2uiNtB2_6Status13print_running
FN:71,_RNvMNtNtCs4cnvRHYBibt_6glossa5tools2uiNtB2_6Status7success
FN:116,_RINvMNtNtCs4cnvRHYBibt_6glossa5tools2uiNtB3_6Status10print_doneINtNtNtCsgQ09HlrS5wL_9crossterm5style14styled_content13StyledContentReEEB7_
FN:43,_RINvMNtNtCs4cnvRHYBibt_6glossa5tools2uiNtB3_6Status17start_with_symbolReB16_EB7_
FN:49,_RINvMNtNtCs4cnvRHYBibt_6glossa5tools2uiNtB3_6Status3newReBR_EB7_
FN:85,_RINvMNtNtCs4cnvRHYBibt_6glossa5tools2uiNtB3_6Status5errorReEB7_
FN:62,_RINvMNtNtCs4cnvRHYBibt_6glossa5tools2uiNtB3_6Status6updateReEB7_
FN:188,_RNvNtNtNtCs4cnvRHYBibt_6glossa5tools2ui5testss_16test_status_drop
FN:156,_RNvNtNtNtCs4cnvRHYBibt_6glossa5tools2ui5testss_21test_status_tty_error
FN:149,_RNvNtNtNtCs4cnvRHYBibt_6glossa5tools2ui5testss_22test_status_tty_update
FN:142,_RNvNtNtNtCs4cnvRHYBibt_6glossa5tools2ui5testss_23test_status_tty_success
FN:176,_RNvNtNtNtCs4cnvRHYBibt_6glossa5tools2ui5testss_24test_status_no_tty_error
FN:182,_RNvNtNtNtCs4cnvRHYBibt_6glossa5tools2ui5testss_25test_status_custom_symbol
FN:169,_RNvNtNtNtCs4cnvRHYBibt_6glossa5tools2ui5testss_25test_status_no_tty_update
FN:162,_RNvNtNtNtCs4cnvRHYBibt_6glossa5tools2ui5testss_26test_status_no_tty_success
FNDA:11,_RNvXs_NtNtCsluBEq34Hdgp_6glossa5tools2uiNtB4_6StatusNtNtNtCs3XFJfFEDSOQ_4core3ops4drop4Drop4drop
FNDA:0,_RINvMNtNtCsluBEq34Hdgp_6glossa5tools2uiNtB3_6Status5startpEB7_
FNDA:8,_RINvMNtNtCsluBEq34Hdgp_6glossa5tools2uiNtB3_6Status10print_doneINtNtNtCsgQ09HlrS5wL_9crossterm5style14styled_content13StyledContentReEEB7_
FNDA:11,_RINvMNtNtCsluBEq34Hdgp_6glossa5tools2uiNtB3_6Status17start_with_symbolReB16_EB7_
FNDA:11,_RINvMNtNtCsluBEq34Hdgp_6glossa5tools2uiNtB3_6Status3newReBR_EB7_
FNDA:4,_RINvMNtNtCsluBEq34Hdgp_6glossa5tools2uiNtB3_6Status5errorReEB7_
FNDA:4,_RINvMNtNtCsluBEq34Hdgp_6glossa5tools2uiNtB3_6Status6updateReEB7_
FNDA:15,_RNvMNtNtCsluBEq34Hdgp_6glossa5tools2uiNtB2_6Status13print_running
FNDA:4,_RNvMNtNtCsluBEq34Hdgp_6glossa5tools2uiNtB2_6Status7success
FNDA:0,_RINvMNtNtCs4cnvRHYBibt_6glossa5tools2uiNtB3_6Status5startpEB7_
FNDA:22,_RNvXs_NtNtCs4cnvRHYBibt_6glossa5tools2uiNtB4_6StatusNtNtNtCs3XFJfFEDSOQ_4core3ops4drop4Drop4drop
FNDA:26,_RNvMNtNtCs4cnvRHYBibt_6glossa5tools2uiNtB2_6Status13print_running
FNDA:14,_RNvMNtNtCs4cnvRHYBibt_6glossa5tools2uiNtB2_6Status7success
FNDA:18,_RINvMNtNtCs4cnvRHYBibt_6glossa5tools2uiNtB3_6Status10print_doneINtNtNtCsgQ09HlrS5wL_9crossterm5style14styled_content13StyledContentReEEB7_
FNDA:14,_RINvMNtNtCs4cnvRHYBibt_6glossa5tools2uiNtB3_6Status17start_with_symbolReB16_EB7_
FNDA:22,_RINvMNtNtCs4cnvRHYBibt_6glossa5tools2uiNtB3_6Status3newReBR_EB7_
FNDA:4,_RINvMNtNtCs4cnvRHYBibt_6glossa5tools2uiNtB3_6Status5errorReEB7_
FNDA:4,_RINvMNtNtCs4cnvRHYBibt_6glossa5tools2uiNtB3_6Status6updateReEB7_
FNDA:1,_RNvNtNtNtCs4cnvRHYBibt_6glossa5tools2ui5testss_16test_status_drop
FNDA:1,_RNvNtNtNtCs4cnvRHYBibt_6glossa5tools2ui5testss_21test_status_tty_error
FNDA:1,_RNvNtNtNtCs4cnvRHYBibt_6glossa5tools2ui5testss_22test_status_tty_update
FNDA:1,_RNvNtNtNtCs4cnvRHYBibt_6glossa5tools2ui5testss_23test_status_tty_success
FNDA:1,_RNvNtNtNtCs4cnvRHYBibt_6glossa5tools2ui5testss_24test_status_no_tty_error
FNDA:1,_RNvNtNtNtCs4cnvRHYBibt_6glossa5tools2ui5testss_25test_status_custom_symbol
FNDA:1,_RNvNtNtNtCs4cnvRHYBibt_6glossa5tools2ui5testss_25test_status_no_tty_update
FNDA:1,_RNvNtNtNtCs4cnvRHYBibt_6glossa5tools2ui5testss_26test_status_no_tty_success
FNF:17
FNH:16
DA:38,0
DA:39,0
DA:40,0
DA:43,25
DA:44,25
DA:45,25
DA:46,25
DA:49,33
DA:50,33
DA:51,33
DA:52,33
DA:53,33
DA:54,33
DA:55,33
DA:56,33
DA:57,33
DA:58,33
DA:59,33
DA:62,8
DA:63,8
DA:64,0
DA:65,8
DA:66,8
DA:67,8
DA:68,8
DA:71,18
DA:72,18
DA:73,0
DA:74,18
DA:76,18
DA:77,18
DA:78,18
DA:80,18
DA:81,18
DA:82,18
DA:85,8
DA:86,8
DA:87,0
DA:88,8
DA:90,8
DA:91,8
DA:92,8
DA:93,8
DA:94,8
DA:96,41
DA:98,41
DA:99,41
DA:101,41
DA:102,5
DA:103,5
DA:104,1
DA:105,1
DA:106,4
DA:107,4
DA:108,4
DA:109,5
DA:110,5
DA:111,36
DA:112,36
DA:113,36
DA:114,41
DA:116,26
DA:117,26
DA:118,3
DA:119,3
DA:120,3
DA:121,3
DA:122,3
DA:123,23
DA:124,23
DA:125,23
DA:126,26
DA:130,33
DA:131,33
DA:132,1
DA:133,32
DA:134,33
DA:142,1
DA:143,1
DA:145,1
DA:146,1
DA:149,1
DA:150,1
DA:151,1
DA:152,1
DA:153,1
DA:156,1
DA:157,1
DA:158,1
DA:159,1
DA:162,1
DA:163,1
DA:165,1
DA:166,1
DA:169,1
DA:170,1
DA:171,1
DA:172,1
DA:173,1
DA:176,1
DA:177,1
DA:178,1
DA:179,1
DA:182,1
DA:183,1
DA:184,1
DA:185,1
DA:188,1
DA:189,1
DA:190,1
DA:191,1
DA:192,1
DA:193,1
BRF:0
BRH:0
LF:113
LH:107
end_of_record
SF:/app/src/tools/weave.rs
FN:37,_RNCNvNtNtCsluBEq34Hdgp_6glossa5tools5weave9run_weave0B7_
FN:38,_RNCNvNtNtCsluBEq34Hdgp_6glossa5tools5weave9run_weaves_0B7_
FN:102,_RNvNtNtNtCs4cnvRHYBibt_6glossa5tools5weave5testss_22test_run_weave_success
FN:129,_RNvNtNtNtCs4cnvRHYBibt_6glossa5tools5weave5testss_29test_run_weave_file_not_found
FN:137,_RNvNtNtNtCs4cnvRHYBibt_6glossa5tools5weave5testss_29test_run_weave_file_too_large
FN:27,_RNvNtNtCs4cnvRHYBibt_6glossa5tools5weave9run_weave
FN:37,_RNCNvNtNtCs4cnvRHYBibt_6glossa5tools5weave9run_weave0B7_
FN:38,_RNCNvNtNtCs4cnvRHYBibt_6glossa5tools5weave9run_weaves_0B7_
FN:27,_RNvNtNtCsluBEq34Hdgp_6glossa5tools5weave9run_weave
FNDA:0,_RNCNvNtNtCsluBEq34Hdgp_6glossa5tools5weave9run_weave0B7_
FNDA:0,_RNCNvNtNtCsluBEq34Hdgp_6glossa5tools5weave9run_weaves_0B7_
FNDA:1,_RNvNtNtNtCs4cnvRHYBibt_6glossa5tools5weave5testss_22test_run_weave_success
FNDA:1,_RNvNtNtNtCs4cnvRHYBibt_6glossa5tools5weave5testss_29test_run_weave_file_not_found
FNDA:1,_RNvNtNtNtCs4cnvRHYBibt_6glossa5tools5weave5testss_29test_run_weave_file_too_large
FNDA:3,_RNvNtNtCs4cnvRHYBibt_6glossa5tools5weave9run_weave
FNDA:0,_RNCNvNtNtCs4cnvRHYBibt_6glossa5tools5weave9run_weave0B7_
FNDA:0,_RNCNvNtNtCs4cnvRHYBibt_6glossa5tools5weave9run_weaves_0B7_
FNDA:1,_RNvNtNtCsluBEq34Hdgp_6glossa5tools5weave9run_weave
FNF:6
FNH:4
DA:27,4
DA:28,4
DA:29,1
DA:30,3
DA:32,3
DA:34,3
DA:37,2
DA:38,2
DA:41,2
DA:44,2
DA:45,2
DA:46,2
DA:49,2
DA:51,2
DA:53,2
DA:55,2
DA:56,2
DA:57,2
DA:58,2
DA:59,1
DA:60,1
DA:61,2
DA:63,2
DA:65,2
DA:66,2
DA:68,2
DA:69,2
DA:70,2
DA:71,2
DA:72,2
DA:73,2
DA:74,2
DA:77,2
DA:78,2
DA:80,2
DA:82,2
DA:83,2
DA:84,2
DA:85,2
DA:86,2
DA:87,2
DA:88,2
DA:89,2
DA:91,2
DA:93,2
DA:94,4
DA:102,1
DA:103,1
DA:104,1
DA:105,1
DA:106,1
DA:107,1
DA:108,1
DA:110,1
DA:111,1
DA:113,1
DA:114,1
DA:116,1
DA:119,1
DA:120,1
DA:121,1
DA:122,1
DA:123,1
DA:124,1
DA:125,1
DA:126,1
DA:129,1
DA:130,1
DA:131,1
DA:132,1
DA:133,1
DA:134,1
DA:137,1
DA:138,1
DA:139,1
DA:142,1
DA:143,1
DA:144,1
DA:145,1
DA:146,1
DA:147,1
DA:149,1
DA:150,1
DA:151,1
DA:152,1
DA:153,1
DA:154,1
DA:155,1
DA:157,1
BRF:0
BRH:0
LF:91
LH:88
end_of_record